ARM GAS  /tmp/ccEnAiLD.s 			page 1


   1              		.cpu cortex-m0
   2              		.eabi_attribute 20, 1
   3              		.eabi_attribute 21, 1
   4              		.eabi_attribute 23, 3
   5              		.eabi_attribute 24, 1
   6              		.eabi_attribute 25, 1
   7              		.eabi_attribute 26, 1
   8              		.eabi_attribute 30, 1
   9              		.eabi_attribute 34, 0
  10              		.eabi_attribute 18, 4
  11              		.file	"lexer.c"
  12              		.text
  13              	.Ltext0:
  14              		.cfi_sections	.debug_frame
  15              		.section	.text.isws,"ax",%progbits
  16              		.align	1
  17              		.arch armv6s-m
  18              		.syntax unified
  19              		.code	16
  20              		.thumb_func
  21              		.fpu softvfp
  23              	isws:
  24              	.LVL0:
  25              	.LFB3:
  26              		.file 1 "libscpi/src/lexer.c"
   1:libscpi/src/lexer.c **** /*-
   2:libscpi/src/lexer.c ****  * BSD 2-Clause License
   3:libscpi/src/lexer.c ****  *
   4:libscpi/src/lexer.c ****  * Copyright (c) 2012-2018, Jan Breuer
   5:libscpi/src/lexer.c ****  * All rights reserved.
   6:libscpi/src/lexer.c ****  *
   7:libscpi/src/lexer.c ****  * Redistribution and use in source and binary forms, with or without
   8:libscpi/src/lexer.c ****  * modification, are permitted provided that the following conditions are met:
   9:libscpi/src/lexer.c ****  *
  10:libscpi/src/lexer.c ****  * * Redistributions of source code must retain the above copyright notice, this
  11:libscpi/src/lexer.c ****  *   list of conditions and the following disclaimer.
  12:libscpi/src/lexer.c ****  *
  13:libscpi/src/lexer.c ****  * * Redistributions in binary form must reproduce the above copyright notice,
  14:libscpi/src/lexer.c ****  *   this list of conditions and the following disclaimer in the documentation
  15:libscpi/src/lexer.c ****  *   and/or other materials provided with the distribution.
  16:libscpi/src/lexer.c ****  *
  17:libscpi/src/lexer.c ****  * THIS SOFTWARE IS PROVIDED BY THE COPYRIGHT HOLDERS AND CONTRIBUTORS "AS IS"
  18:libscpi/src/lexer.c ****  * AND ANY EXPRESS OR IMPLIED WARRANTIES, INCLUDING, BUT NOT LIMITED TO, THE
  19:libscpi/src/lexer.c ****  * IMPLIED WARRANTIES OF MERCHANTABILITY AND FITNESS FOR A PARTICULAR PURPOSE ARE
  20:libscpi/src/lexer.c ****  * DISCLAIMED. IN NO EVENT SHALL THE COPYRIGHT HOLDER OR CONTRIBUTORS BE LIABLE
  21:libscpi/src/lexer.c ****  * FOR ANY DIRECT, INDIRECT, INCIDENTAL, SPECIAL, EXEMPLARY, OR CONSEQUENTIAL
  22:libscpi/src/lexer.c ****  * DAMAGES (INCLUDING, BUT NOT LIMITED TO, PROCUREMENT OF SUBSTITUTE GOODS OR
  23:libscpi/src/lexer.c ****  * SERVICES; LOSS OF USE, DATA, OR PROFITS; OR BUSINESS INTERRUPTION) HOWEVER
  24:libscpi/src/lexer.c ****  * CAUSED AND ON ANY THEORY OF LIABILITY, WHETHER IN CONTRACT, STRICT LIABILITY,
  25:libscpi/src/lexer.c ****  * OR TORT (INCLUDING NEGLIGENCE OR OTHERWISE) ARISING IN ANY WAY OUT OF THE USE
  26:libscpi/src/lexer.c ****  * OF THIS SOFTWARE, EVEN IF ADVISED OF THE POSSIBILITY OF SUCH DAMAGE.
  27:libscpi/src/lexer.c ****  */
  28:libscpi/src/lexer.c **** 
  29:libscpi/src/lexer.c **** /**
  30:libscpi/src/lexer.c ****  * @file   lexer.c
  31:libscpi/src/lexer.c ****  * @date   Wed Mar 20 19:35:19 UTC 2013
  32:libscpi/src/lexer.c ****  * 
ARM GAS  /tmp/ccEnAiLD.s 			page 2


  33:libscpi/src/lexer.c ****  * @brief  SCPI Lexer
  34:libscpi/src/lexer.c ****  * 
  35:libscpi/src/lexer.c ****  * 
  36:libscpi/src/lexer.c ****  */
  37:libscpi/src/lexer.c **** 
  38:libscpi/src/lexer.c **** #include <ctype.h>
  39:libscpi/src/lexer.c **** #include <stdio.h>
  40:libscpi/src/lexer.c **** #include <string.h>
  41:libscpi/src/lexer.c **** 
  42:libscpi/src/lexer.c **** #include "lexer_private.h"
  43:libscpi/src/lexer.c **** #include "scpi/error.h"
  44:libscpi/src/lexer.c **** 
  45:libscpi/src/lexer.c **** /**
  46:libscpi/src/lexer.c ****  * Is white space
  47:libscpi/src/lexer.c ****  * @param c
  48:libscpi/src/lexer.c ****  * @return 
  49:libscpi/src/lexer.c ****  */
  50:libscpi/src/lexer.c **** static int isws(int c) {
  27              		.loc 1 50 24 view -0
  28              		.cfi_startproc
  29              		@ args = 0, pretend = 0, frame = 0
  30              		@ frame_needed = 0, uses_anonymous_args = 0
  31              		@ link register save eliminated.
  51:libscpi/src/lexer.c ****     if ((c == ' ') || (c == '\t')) {
  32              		.loc 1 51 5 view .LVU1
  33              		.loc 1 51 8 is_stmt 0 view .LVU2
  34 0000 2028     		cmp	r0, #32
  35 0002 03D0     		beq	.L3
  36              		.loc 1 51 20 discriminator 1 view .LVU3
  37 0004 0928     		cmp	r0, #9
  38 0006 03D0     		beq	.L4
  52:libscpi/src/lexer.c ****         return 1;
  53:libscpi/src/lexer.c ****     }
  54:libscpi/src/lexer.c ****     return 0;
  39              		.loc 1 54 12 view .LVU4
  40 0008 0020     		movs	r0, #0
  41              	.LVL1:
  42              	.L1:
  55:libscpi/src/lexer.c **** }
  43              		.loc 1 55 1 view .LVU5
  44              		@ sp needed
  45 000a 7047     		bx	lr
  46              	.LVL2:
  47              	.L3:
  52:libscpi/src/lexer.c ****         return 1;
  48              		.loc 1 52 16 view .LVU6
  49 000c 0120     		movs	r0, #1
  50              	.LVL3:
  52:libscpi/src/lexer.c ****         return 1;
  51              		.loc 1 52 16 view .LVU7
  52 000e FCE7     		b	.L1
  53              	.LVL4:
  54              	.L4:
  52:libscpi/src/lexer.c ****         return 1;
  55              		.loc 1 52 16 view .LVU8
  56 0010 0120     		movs	r0, #1
  57              	.LVL5:
ARM GAS  /tmp/ccEnAiLD.s 			page 3


  52:libscpi/src/lexer.c ****         return 1;
  58              		.loc 1 52 16 view .LVU9
  59 0012 FAE7     		b	.L1
  60              		.cfi_endproc
  61              	.LFE3:
  63              		.section	.text.isbdigit,"ax",%progbits
  64              		.align	1
  65              		.syntax unified
  66              		.code	16
  67              		.thumb_func
  68              		.fpu softvfp
  70              	isbdigit:
  71              	.LVL6:
  72              	.LFB4:
  56:libscpi/src/lexer.c **** 
  57:libscpi/src/lexer.c **** /**
  58:libscpi/src/lexer.c ****  * Is binary digit
  59:libscpi/src/lexer.c ****  * @param c
  60:libscpi/src/lexer.c ****  * @return 
  61:libscpi/src/lexer.c ****  */
  62:libscpi/src/lexer.c **** static int isbdigit(int c) {
  73              		.loc 1 62 28 is_stmt 1 view -0
  74              		.cfi_startproc
  75              		@ args = 0, pretend = 0, frame = 0
  76              		@ frame_needed = 0, uses_anonymous_args = 0
  77              		@ link register save eliminated.
  63:libscpi/src/lexer.c ****     if ((c == '0') || (c == '1')) {
  78              		.loc 1 63 5 view .LVU11
  79              		.loc 1 63 20 is_stmt 0 view .LVU12
  80 0000 3038     		subs	r0, r0, #48
  81              	.LVL7:
  82              		.loc 1 63 8 view .LVU13
  83 0002 0128     		cmp	r0, #1
  84 0004 01D9     		bls	.L7
  64:libscpi/src/lexer.c ****         return 1;
  65:libscpi/src/lexer.c ****     }
  66:libscpi/src/lexer.c ****     return 0;
  85              		.loc 1 66 12 view .LVU14
  86 0006 0020     		movs	r0, #0
  87              	.LVL8:
  88              	.L5:
  67:libscpi/src/lexer.c **** }
  89              		.loc 1 67 1 view .LVU15
  90              		@ sp needed
  91 0008 7047     		bx	lr
  92              	.L7:
  64:libscpi/src/lexer.c ****         return 1;
  93              		.loc 1 64 16 view .LVU16
  94 000a 0120     		movs	r0, #1
  95 000c FCE7     		b	.L5
  96              		.cfi_endproc
  97              	.LFE4:
  99              		.section	.text.isqdigit,"ax",%progbits
 100              		.align	1
 101              		.syntax unified
 102              		.code	16
 103              		.thumb_func
ARM GAS  /tmp/ccEnAiLD.s 			page 4


 104              		.fpu softvfp
 106              	isqdigit:
 107              	.LVL9:
 108              	.LFB5:
  68:libscpi/src/lexer.c **** 
  69:libscpi/src/lexer.c **** /**
  70:libscpi/src/lexer.c ****  * Is hexadecimal digit
  71:libscpi/src/lexer.c ****  * @param c
  72:libscpi/src/lexer.c ****  * @return 
  73:libscpi/src/lexer.c ****  */
  74:libscpi/src/lexer.c **** static int isqdigit(int c) {
 109              		.loc 1 74 28 is_stmt 1 view -0
 110              		.cfi_startproc
 111              		@ args = 0, pretend = 0, frame = 0
 112              		@ frame_needed = 0, uses_anonymous_args = 0
 113              		@ link register save eliminated.
  75:libscpi/src/lexer.c ****     if ((c == '0') || (c == '1') || (c == '2') || (c == '3') || (c == '4') || (c == '5') || (c == '
 114              		.loc 1 75 5 view .LVU18
 115              		.loc 1 75 104 is_stmt 0 view .LVU19
 116 0000 3038     		subs	r0, r0, #48
 117              	.LVL10:
 118              		.loc 1 75 8 view .LVU20
 119 0002 0728     		cmp	r0, #7
 120 0004 01D9     		bls	.L10
  76:libscpi/src/lexer.c ****         return 1;
  77:libscpi/src/lexer.c ****     }
  78:libscpi/src/lexer.c ****     return 0;
 121              		.loc 1 78 12 view .LVU21
 122 0006 0020     		movs	r0, #0
 123              	.LVL11:
 124              	.L8:
  79:libscpi/src/lexer.c **** }
 125              		.loc 1 79 1 view .LVU22
 126              		@ sp needed
 127 0008 7047     		bx	lr
 128              	.L10:
  76:libscpi/src/lexer.c ****         return 1;
 129              		.loc 1 76 16 view .LVU23
 130 000a 0120     		movs	r0, #1
 131 000c FCE7     		b	.L8
 132              		.cfi_endproc
 133              	.LFE5:
 135              		.section	.text.iseos,"ax",%progbits
 136              		.align	1
 137              		.syntax unified
 138              		.code	16
 139              		.thumb_func
 140              		.fpu softvfp
 142              	iseos:
 143              	.LVL12:
 144              	.LFB6:
  80:libscpi/src/lexer.c **** 
  81:libscpi/src/lexer.c **** /**
  82:libscpi/src/lexer.c ****  * Is end of string
  83:libscpi/src/lexer.c ****  * @param state
  84:libscpi/src/lexer.c ****  * @return 
  85:libscpi/src/lexer.c ****  */
ARM GAS  /tmp/ccEnAiLD.s 			page 5


  86:libscpi/src/lexer.c **** static int iseos(lex_state_t * state) {
 145              		.loc 1 86 39 is_stmt 1 view -0
 146              		.cfi_startproc
 147              		@ args = 0, pretend = 0, frame = 0
 148              		@ frame_needed = 0, uses_anonymous_args = 0
 149              		@ link register save eliminated.
  87:libscpi/src/lexer.c ****     if ((state->buffer + state->len) <= (state->pos)) {
 150              		.loc 1 87 5 view .LVU25
 151              		.loc 1 87 24 is_stmt 0 view .LVU26
 152 0000 0368     		ldr	r3, [r0]
 153 0002 8268     		ldr	r2, [r0, #8]
 154 0004 9446     		mov	ip, r2
 155 0006 6344     		add	r3, r3, ip
 156              		.loc 1 87 47 view .LVU27
 157 0008 4268     		ldr	r2, [r0, #4]
 158              		.loc 1 87 8 view .LVU28
 159 000a 9342     		cmp	r3, r2
 160 000c 01D8     		bhi	.L13
  88:libscpi/src/lexer.c ****         return 1;
 161              		.loc 1 88 16 view .LVU29
 162 000e 0120     		movs	r0, #1
 163              	.LVL13:
 164              	.L11:
  89:libscpi/src/lexer.c ****     } else {
  90:libscpi/src/lexer.c ****         return 0;
  91:libscpi/src/lexer.c ****     }
  92:libscpi/src/lexer.c **** }
 165              		.loc 1 92 1 view .LVU30
 166              		@ sp needed
 167 0010 7047     		bx	lr
 168              	.LVL14:
 169              	.L13:
  90:libscpi/src/lexer.c ****     }
 170              		.loc 1 90 16 view .LVU31
 171 0012 0020     		movs	r0, #0
 172              	.LVL15:
  90:libscpi/src/lexer.c ****     }
 173              		.loc 1 90 16 view .LVU32
 174 0014 FCE7     		b	.L11
 175              		.cfi_endproc
 176              	.LFE6:
 178              		.section	.text.ischr,"ax",%progbits
 179              		.align	1
 180              		.syntax unified
 181              		.code	16
 182              		.thumb_func
 183              		.fpu softvfp
 185              	ischr:
 186              	.LVL16:
 187              	.LFB8:
  93:libscpi/src/lexer.c **** 
  94:libscpi/src/lexer.c **** /**
  95:libscpi/src/lexer.c ****  * Private export of iseos
  96:libscpi/src/lexer.c ****  * @param state
  97:libscpi/src/lexer.c ****  * @return 
  98:libscpi/src/lexer.c ****  */
  99:libscpi/src/lexer.c **** int scpiLex_IsEos(lex_state_t * state) {
ARM GAS  /tmp/ccEnAiLD.s 			page 6


 100:libscpi/src/lexer.c ****     return iseos(state);
 101:libscpi/src/lexer.c **** }
 102:libscpi/src/lexer.c **** 
 103:libscpi/src/lexer.c **** /**
 104:libscpi/src/lexer.c ****  * Test current character
 105:libscpi/src/lexer.c ****  * @param state
 106:libscpi/src/lexer.c ****  * @param chr
 107:libscpi/src/lexer.c ****  * @return 
 108:libscpi/src/lexer.c ****  */
 109:libscpi/src/lexer.c **** static int ischr(lex_state_t * state, char chr) {
 188              		.loc 1 109 49 is_stmt 1 view -0
 189              		.cfi_startproc
 190              		@ args = 0, pretend = 0, frame = 0
 191              		@ frame_needed = 0, uses_anonymous_args = 0
 192              		@ link register save eliminated.
 110:libscpi/src/lexer.c ****     return (state->pos[0] == chr);
 193              		.loc 1 110 5 view .LVU34
 194              		.loc 1 110 18 is_stmt 0 view .LVU35
 195 0000 4368     		ldr	r3, [r0, #4]
 196              		.loc 1 110 23 view .LVU36
 197 0002 1878     		ldrb	r0, [r3]
 198              	.LVL17:
 199              		.loc 1 110 27 view .LVU37
 200 0004 401A     		subs	r0, r0, r1
 201 0006 4142     		rsbs	r1, r0, #0
 202 0008 4841     		adcs	r0, r0, r1
 203              	.LVL18:
 111:libscpi/src/lexer.c **** }
 204              		.loc 1 111 1 view .LVU38
 205              		@ sp needed
 206 000a 7047     		bx	lr
 207              		.cfi_endproc
 208              	.LFE8:
 210              		.section	.text.isplusmn,"ax",%progbits
 211              		.align	1
 212              		.syntax unified
 213              		.code	16
 214              		.thumb_func
 215              		.fpu softvfp
 217              	isplusmn:
 218              	.LVL19:
 219              	.LFB9:
 112:libscpi/src/lexer.c **** 
 113:libscpi/src/lexer.c **** /**
 114:libscpi/src/lexer.c ****  * Is plus or minus
 115:libscpi/src/lexer.c ****  * @param c
 116:libscpi/src/lexer.c ****  * @return 
 117:libscpi/src/lexer.c ****  */
 118:libscpi/src/lexer.c **** static int isplusmn(int c) {
 220              		.loc 1 118 28 is_stmt 1 view -0
 221              		.cfi_startproc
 222              		@ args = 0, pretend = 0, frame = 0
 223              		@ frame_needed = 0, uses_anonymous_args = 0
 224              		@ link register save eliminated.
 119:libscpi/src/lexer.c ****     return c == '+' || c == '-';
 225              		.loc 1 119 5 view .LVU40
 226              		.loc 1 119 21 is_stmt 0 view .LVU41
ARM GAS  /tmp/ccEnAiLD.s 			page 7


 227 0000 2B28     		cmp	r0, #43
 228 0002 05D0     		beq	.L17
 229              		.loc 1 119 21 discriminator 2 view .LVU42
 230 0004 2D28     		cmp	r0, #45
 231 0006 01D0     		beq	.L19
 232              		.loc 1 119 21 view .LVU43
 233 0008 0020     		movs	r0, #0
 234              	.LVL20:
 235              	.L15:
 120:libscpi/src/lexer.c **** }
 236              		.loc 1 120 1 view .LVU44
 237              		@ sp needed
 238 000a 7047     		bx	lr
 239              	.LVL21:
 240              	.L19:
 119:libscpi/src/lexer.c ****     return c == '+' || c == '-';
 241              		.loc 1 119 21 view .LVU45
 242 000c 2C38     		subs	r0, r0, #44
 243              	.LVL22:
 119:libscpi/src/lexer.c ****     return c == '+' || c == '-';
 244              		.loc 1 119 21 view .LVU46
 245 000e FCE7     		b	.L15
 246              	.LVL23:
 247              	.L17:
 119:libscpi/src/lexer.c ****     return c == '+' || c == '-';
 248              		.loc 1 119 21 view .LVU47
 249 0010 0120     		movs	r0, #1
 250              	.LVL24:
 119:libscpi/src/lexer.c ****     return c == '+' || c == '-';
 251              		.loc 1 119 21 view .LVU48
 252 0012 FAE7     		b	.L15
 253              		.cfi_endproc
 254              	.LFE9:
 256              		.section	.text.isH,"ax",%progbits
 257              		.align	1
 258              		.syntax unified
 259              		.code	16
 260              		.thumb_func
 261              		.fpu softvfp
 263              	isH:
 264              	.LVL25:
 265              	.LFB10:
 121:libscpi/src/lexer.c **** 
 122:libscpi/src/lexer.c **** /**
 123:libscpi/src/lexer.c ****  * Is letter H
 124:libscpi/src/lexer.c ****  * @param c
 125:libscpi/src/lexer.c ****  * @return 
 126:libscpi/src/lexer.c ****  */
 127:libscpi/src/lexer.c **** static int isH(int c) {
 266              		.loc 1 127 23 is_stmt 1 view -0
 267              		.cfi_startproc
 268              		@ args = 0, pretend = 0, frame = 0
 269              		@ frame_needed = 0, uses_anonymous_args = 0
 270              		@ link register save eliminated.
 128:libscpi/src/lexer.c ****     return c == 'h' || c == 'H';
 271              		.loc 1 128 5 view .LVU50
 272              		.loc 1 128 21 is_stmt 0 view .LVU51
ARM GAS  /tmp/ccEnAiLD.s 			page 8


 273 0000 6828     		cmp	r0, #104
 274 0002 05D0     		beq	.L22
 275              		.loc 1 128 21 discriminator 2 view .LVU52
 276 0004 4828     		cmp	r0, #72
 277 0006 01D0     		beq	.L24
 278              		.loc 1 128 21 view .LVU53
 279 0008 0020     		movs	r0, #0
 280              	.LVL26:
 281              	.L20:
 129:libscpi/src/lexer.c **** }
 282              		.loc 1 129 1 view .LVU54
 283              		@ sp needed
 284 000a 7047     		bx	lr
 285              	.LVL27:
 286              	.L24:
 128:libscpi/src/lexer.c ****     return c == 'h' || c == 'H';
 287              		.loc 1 128 21 view .LVU55
 288 000c 4738     		subs	r0, r0, #71
 289              	.LVL28:
 128:libscpi/src/lexer.c ****     return c == 'h' || c == 'H';
 290              		.loc 1 128 21 view .LVU56
 291 000e FCE7     		b	.L20
 292              	.LVL29:
 293              	.L22:
 128:libscpi/src/lexer.c ****     return c == 'h' || c == 'H';
 294              		.loc 1 128 21 view .LVU57
 295 0010 0120     		movs	r0, #1
 296              	.LVL30:
 128:libscpi/src/lexer.c ****     return c == 'h' || c == 'H';
 297              		.loc 1 128 21 view .LVU58
 298 0012 FAE7     		b	.L20
 299              		.cfi_endproc
 300              	.LFE10:
 302              		.section	.text.isB,"ax",%progbits
 303              		.align	1
 304              		.syntax unified
 305              		.code	16
 306              		.thumb_func
 307              		.fpu softvfp
 309              	isB:
 310              	.LVL31:
 311              	.LFB11:
 130:libscpi/src/lexer.c **** 
 131:libscpi/src/lexer.c **** /**
 132:libscpi/src/lexer.c ****  * Is letter B
 133:libscpi/src/lexer.c ****  * @param c
 134:libscpi/src/lexer.c ****  * @return 
 135:libscpi/src/lexer.c ****  */
 136:libscpi/src/lexer.c **** static int isB(int c) {
 312              		.loc 1 136 23 is_stmt 1 view -0
 313              		.cfi_startproc
 314              		@ args = 0, pretend = 0, frame = 0
 315              		@ frame_needed = 0, uses_anonymous_args = 0
 316              		@ link register save eliminated.
 137:libscpi/src/lexer.c ****     return c == 'b' || c == 'B';
 317              		.loc 1 137 5 view .LVU60
 318              		.loc 1 137 21 is_stmt 0 view .LVU61
ARM GAS  /tmp/ccEnAiLD.s 			page 9


 319 0000 6228     		cmp	r0, #98
 320 0002 05D0     		beq	.L27
 321              		.loc 1 137 21 discriminator 2 view .LVU62
 322 0004 4228     		cmp	r0, #66
 323 0006 01D0     		beq	.L29
 324              		.loc 1 137 21 view .LVU63
 325 0008 0020     		movs	r0, #0
 326              	.LVL32:
 327              	.L25:
 138:libscpi/src/lexer.c **** }
 328              		.loc 1 138 1 view .LVU64
 329              		@ sp needed
 330 000a 7047     		bx	lr
 331              	.LVL33:
 332              	.L29:
 137:libscpi/src/lexer.c ****     return c == 'b' || c == 'B';
 333              		.loc 1 137 21 view .LVU65
 334 000c 4138     		subs	r0, r0, #65
 335              	.LVL34:
 137:libscpi/src/lexer.c ****     return c == 'b' || c == 'B';
 336              		.loc 1 137 21 view .LVU66
 337 000e FCE7     		b	.L25
 338              	.LVL35:
 339              	.L27:
 137:libscpi/src/lexer.c ****     return c == 'b' || c == 'B';
 340              		.loc 1 137 21 view .LVU67
 341 0010 0120     		movs	r0, #1
 342              	.LVL36:
 137:libscpi/src/lexer.c ****     return c == 'b' || c == 'B';
 343              		.loc 1 137 21 view .LVU68
 344 0012 FAE7     		b	.L25
 345              		.cfi_endproc
 346              	.LFE11:
 348              		.section	.text.isQ,"ax",%progbits
 349              		.align	1
 350              		.syntax unified
 351              		.code	16
 352              		.thumb_func
 353              		.fpu softvfp
 355              	isQ:
 356              	.LVL37:
 357              	.LFB12:
 139:libscpi/src/lexer.c **** 
 140:libscpi/src/lexer.c **** /**
 141:libscpi/src/lexer.c ****  * Is letter Q
 142:libscpi/src/lexer.c ****  * @param c
 143:libscpi/src/lexer.c ****  * @return 
 144:libscpi/src/lexer.c ****  */
 145:libscpi/src/lexer.c **** static int isQ(int c) {
 358              		.loc 1 145 23 is_stmt 1 view -0
 359              		.cfi_startproc
 360              		@ args = 0, pretend = 0, frame = 0
 361              		@ frame_needed = 0, uses_anonymous_args = 0
 362              		@ link register save eliminated.
 146:libscpi/src/lexer.c ****     return c == 'q' || c == 'Q';
 363              		.loc 1 146 5 view .LVU70
 364              		.loc 1 146 21 is_stmt 0 view .LVU71
ARM GAS  /tmp/ccEnAiLD.s 			page 10


 365 0000 7128     		cmp	r0, #113
 366 0002 05D0     		beq	.L32
 367              		.loc 1 146 21 discriminator 2 view .LVU72
 368 0004 5128     		cmp	r0, #81
 369 0006 01D0     		beq	.L34
 370              		.loc 1 146 21 view .LVU73
 371 0008 0020     		movs	r0, #0
 372              	.LVL38:
 373              	.L30:
 147:libscpi/src/lexer.c **** }
 374              		.loc 1 147 1 view .LVU74
 375              		@ sp needed
 376 000a 7047     		bx	lr
 377              	.LVL39:
 378              	.L34:
 146:libscpi/src/lexer.c ****     return c == 'q' || c == 'Q';
 379              		.loc 1 146 21 view .LVU75
 380 000c 5038     		subs	r0, r0, #80
 381              	.LVL40:
 146:libscpi/src/lexer.c ****     return c == 'q' || c == 'Q';
 382              		.loc 1 146 21 view .LVU76
 383 000e FCE7     		b	.L30
 384              	.LVL41:
 385              	.L32:
 146:libscpi/src/lexer.c ****     return c == 'q' || c == 'Q';
 386              		.loc 1 146 21 view .LVU77
 387 0010 0120     		movs	r0, #1
 388              	.LVL42:
 146:libscpi/src/lexer.c ****     return c == 'q' || c == 'Q';
 389              		.loc 1 146 21 view .LVU78
 390 0012 FAE7     		b	.L30
 391              		.cfi_endproc
 392              	.LFE12:
 394              		.section	.text.isE,"ax",%progbits
 395              		.align	1
 396              		.syntax unified
 397              		.code	16
 398              		.thumb_func
 399              		.fpu softvfp
 401              	isE:
 402              	.LVL43:
 403              	.LFB13:
 148:libscpi/src/lexer.c **** 
 149:libscpi/src/lexer.c **** /**
 150:libscpi/src/lexer.c ****  * Is letter E
 151:libscpi/src/lexer.c ****  * @param c
 152:libscpi/src/lexer.c ****  * @return 
 153:libscpi/src/lexer.c ****  */
 154:libscpi/src/lexer.c **** static int isE(int c) {
 404              		.loc 1 154 23 is_stmt 1 view -0
 405              		.cfi_startproc
 406              		@ args = 0, pretend = 0, frame = 0
 407              		@ frame_needed = 0, uses_anonymous_args = 0
 408              		@ link register save eliminated.
 155:libscpi/src/lexer.c ****     return c == 'e' || c == 'E';
 409              		.loc 1 155 5 view .LVU80
 410              		.loc 1 155 21 is_stmt 0 view .LVU81
ARM GAS  /tmp/ccEnAiLD.s 			page 11


 411 0000 6528     		cmp	r0, #101
 412 0002 05D0     		beq	.L37
 413              		.loc 1 155 21 discriminator 2 view .LVU82
 414 0004 4528     		cmp	r0, #69
 415 0006 01D0     		beq	.L39
 416              		.loc 1 155 21 view .LVU83
 417 0008 0020     		movs	r0, #0
 418              	.LVL44:
 419              	.L35:
 156:libscpi/src/lexer.c **** }
 420              		.loc 1 156 1 view .LVU84
 421              		@ sp needed
 422 000a 7047     		bx	lr
 423              	.LVL45:
 424              	.L39:
 155:libscpi/src/lexer.c ****     return c == 'e' || c == 'E';
 425              		.loc 1 155 21 view .LVU85
 426 000c 4438     		subs	r0, r0, #68
 427              	.LVL46:
 155:libscpi/src/lexer.c ****     return c == 'e' || c == 'E';
 428              		.loc 1 155 21 view .LVU86
 429 000e FCE7     		b	.L35
 430              	.LVL47:
 431              	.L37:
 155:libscpi/src/lexer.c ****     return c == 'e' || c == 'E';
 432              		.loc 1 155 21 view .LVU87
 433 0010 0120     		movs	r0, #1
 434              	.LVL48:
 155:libscpi/src/lexer.c ****     return c == 'e' || c == 'E';
 435              		.loc 1 155 21 view .LVU88
 436 0012 FAE7     		b	.L35
 437              		.cfi_endproc
 438              	.LFE13:
 440              		.section	.text.skipWs,"ax",%progbits
 441              		.align	1
 442              		.syntax unified
 443              		.code	16
 444              		.thumb_func
 445              		.fpu softvfp
 447              	skipWs:
 448              	.LVL49:
 449              	.LFB14:
 157:libscpi/src/lexer.c **** 
 158:libscpi/src/lexer.c **** #define SKIP_NONE       0
 159:libscpi/src/lexer.c **** #define SKIP_OK         1
 160:libscpi/src/lexer.c **** #define SKIP_INCOMPLETE -1
 161:libscpi/src/lexer.c **** 
 162:libscpi/src/lexer.c **** /* skip characters */
 163:libscpi/src/lexer.c **** /* 7.4.1 <PROGRAM MESSAGE UNIT SEPARATOR>*/
 164:libscpi/src/lexer.c **** /* TODO: static int skipProgramMessageUnitSeparator(lex_state_t * state) */
 165:libscpi/src/lexer.c **** 
 166:libscpi/src/lexer.c **** /**
 167:libscpi/src/lexer.c ****  * Skip all whitespaces
 168:libscpi/src/lexer.c ****  * @param state
 169:libscpi/src/lexer.c ****  * @return 
 170:libscpi/src/lexer.c ****  */
 171:libscpi/src/lexer.c **** static int skipWs(lex_state_t * state) {
ARM GAS  /tmp/ccEnAiLD.s 			page 12


 450              		.loc 1 171 40 is_stmt 1 view -0
 451              		.cfi_startproc
 452              		@ args = 0, pretend = 0, frame = 0
 453              		@ frame_needed = 0, uses_anonymous_args = 0
 454              		.loc 1 171 40 is_stmt 0 view .LVU90
 455 0000 70B5     		push	{r4, r5, r6, lr}
 456              	.LCFI0:
 457              		.cfi_def_cfa_offset 16
 458              		.cfi_offset 4, -16
 459              		.cfi_offset 5, -12
 460              		.cfi_offset 6, -8
 461              		.cfi_offset 14, -4
 462 0002 0500     		movs	r5, r0
 172:libscpi/src/lexer.c ****     int someSpace = 0;
 463              		.loc 1 172 5 is_stmt 1 view .LVU91
 464              	.LVL50:
 173:libscpi/src/lexer.c ****     while (!iseos(state) && isws(state->pos[0])) {
 465              		.loc 1 173 5 view .LVU92
 172:libscpi/src/lexer.c ****     int someSpace = 0;
 466              		.loc 1 172 9 is_stmt 0 view .LVU93
 467 0004 0026     		movs	r6, #0
 468              	.LVL51:
 469              	.L41:
 470              		.loc 1 173 11 is_stmt 1 view .LVU94
 471              		.loc 1 173 13 is_stmt 0 view .LVU95
 472 0006 2800     		movs	r0, r5
 473 0008 FFF7FEFF 		bl	iseos
 474              	.LVL52:
 475              		.loc 1 173 11 view .LVU96
 476 000c 0028     		cmp	r0, #0
 477 000e 09D1     		bne	.L40
 478              		.loc 1 173 39 discriminator 1 view .LVU97
 479 0010 6C68     		ldr	r4, [r5, #4]
 480              		.loc 1 173 44 discriminator 1 view .LVU98
 481 0012 2078     		ldrb	r0, [r4]
 482              		.loc 1 173 29 discriminator 1 view .LVU99
 483 0014 FFF7FEFF 		bl	isws
 484              	.LVL53:
 485              		.loc 1 173 26 discriminator 1 view .LVU100
 486 0018 0028     		cmp	r0, #0
 487 001a 03D0     		beq	.L40
 174:libscpi/src/lexer.c ****         state->pos++;
 488              		.loc 1 174 9 is_stmt 1 view .LVU101
 489              		.loc 1 174 19 is_stmt 0 view .LVU102
 490 001c 0134     		adds	r4, r4, #1
 491 001e 6C60     		str	r4, [r5, #4]
 175:libscpi/src/lexer.c ****         someSpace++;
 492              		.loc 1 175 9 is_stmt 1 view .LVU103
 493              		.loc 1 175 18 is_stmt 0 view .LVU104
 494 0020 0136     		adds	r6, r6, #1
 495              	.LVL54:
 496              		.loc 1 175 18 view .LVU105
 497 0022 F0E7     		b	.L41
 498              	.L40:
 176:libscpi/src/lexer.c ****     }
 177:libscpi/src/lexer.c **** 
 178:libscpi/src/lexer.c ****     return someSpace;
ARM GAS  /tmp/ccEnAiLD.s 			page 13


 179:libscpi/src/lexer.c **** }
 499              		.loc 1 179 1 view .LVU106
 500 0024 3000     		movs	r0, r6
 501              		@ sp needed
 502              	.LVL55:
 503              	.LVL56:
 504              		.loc 1 179 1 view .LVU107
 505 0026 70BD     		pop	{r4, r5, r6, pc}
 506              		.cfi_endproc
 507              	.LFE14:
 509              		.section	.text.skipDigit,"ax",%progbits
 510              		.align	1
 511              		.syntax unified
 512              		.code	16
 513              		.thumb_func
 514              		.fpu softvfp
 516              	skipDigit:
 517              	.LVL57:
 518              	.LFB15:
 180:libscpi/src/lexer.c **** 
 181:libscpi/src/lexer.c **** /* 7.4.2 <PROGRAM DATA SEPARATOR> */
 182:libscpi/src/lexer.c **** /* static int skipProgramDataSeparator(lex_state_t * state) */
 183:libscpi/src/lexer.c **** 
 184:libscpi/src/lexer.c **** /* 7.5.2 <PROGRAM MESSAGE TERMINATOR> */
 185:libscpi/src/lexer.c **** /* static int skipProgramMessageTerminator(lex_state_t * state) */
 186:libscpi/src/lexer.c **** 
 187:libscpi/src/lexer.c **** /**
 188:libscpi/src/lexer.c ****  * Skip decimal digit
 189:libscpi/src/lexer.c ****  * @param state
 190:libscpi/src/lexer.c ****  * @return 
 191:libscpi/src/lexer.c ****  */
 192:libscpi/src/lexer.c **** static int skipDigit(lex_state_t * state) {
 519              		.loc 1 192 43 is_stmt 1 view -0
 520              		.cfi_startproc
 521              		@ args = 0, pretend = 0, frame = 0
 522              		@ frame_needed = 0, uses_anonymous_args = 0
 523              		.loc 1 192 43 is_stmt 0 view .LVU109
 524 0000 10B5     		push	{r4, lr}
 525              	.LCFI1:
 526              		.cfi_def_cfa_offset 8
 527              		.cfi_offset 4, -8
 528              		.cfi_offset 14, -4
 529 0002 0400     		movs	r4, r0
 193:libscpi/src/lexer.c ****     if (!iseos(state) && isdigit((uint8_t)(state->pos[0]))) {
 530              		.loc 1 193 5 is_stmt 1 view .LVU110
 531              		.loc 1 193 10 is_stmt 0 view .LVU111
 532 0004 FFF7FEFF 		bl	iseos
 533              	.LVL58:
 534              		.loc 1 193 8 view .LVU112
 535 0008 0028     		cmp	r0, #0
 536 000a 09D1     		bne	.L46
 537              		.loc 1 193 26 discriminator 1 view .LVU113
 538 000c 6368     		ldr	r3, [r4, #4]
 539 000e 1A78     		ldrb	r2, [r3]
 540 0010 0449     		ldr	r1, .L47
 541 0012 8A5C     		ldrb	r2, [r1, r2]
 542              		.loc 1 193 23 discriminator 1 view .LVU114
ARM GAS  /tmp/ccEnAiLD.s 			page 14


 543 0014 5207     		lsls	r2, r2, #29
 544 0016 04D5     		bpl	.L44
 194:libscpi/src/lexer.c ****         state->pos++;
 545              		.loc 1 194 9 is_stmt 1 view .LVU115
 546              		.loc 1 194 19 is_stmt 0 view .LVU116
 547 0018 0133     		adds	r3, r3, #1
 548 001a 6360     		str	r3, [r4, #4]
 195:libscpi/src/lexer.c ****         return SKIP_OK;
 549              		.loc 1 195 9 is_stmt 1 view .LVU117
 550              		.loc 1 195 16 is_stmt 0 view .LVU118
 551 001c 0130     		adds	r0, r0, #1
 552 001e 00E0     		b	.L44
 553              	.L46:
 196:libscpi/src/lexer.c ****     } else {
 197:libscpi/src/lexer.c ****         return SKIP_NONE;
 554              		.loc 1 197 16 view .LVU119
 555 0020 0020     		movs	r0, #0
 556              	.L44:
 198:libscpi/src/lexer.c ****     }
 199:libscpi/src/lexer.c **** }
 557              		.loc 1 199 1 view .LVU120
 558              		@ sp needed
 559              	.LVL59:
 560              		.loc 1 199 1 view .LVU121
 561 0022 10BD     		pop	{r4, pc}
 562              	.L48:
 563              		.align	2
 564              	.L47:
 565 0024 01000000 		.word	_ctype_+1
 566              		.cfi_endproc
 567              	.LFE15:
 569              		.section	.text.skipNumbers,"ax",%progbits
 570              		.align	1
 571              		.syntax unified
 572              		.code	16
 573              		.thumb_func
 574              		.fpu softvfp
 576              	skipNumbers:
 577              	.LVL60:
 578              	.LFB16:
 200:libscpi/src/lexer.c **** 
 201:libscpi/src/lexer.c **** /**
 202:libscpi/src/lexer.c ****  * Skip multiple decimal digits
 203:libscpi/src/lexer.c ****  * @param state
 204:libscpi/src/lexer.c ****  * @return 
 205:libscpi/src/lexer.c ****  */
 206:libscpi/src/lexer.c **** static int skipNumbers(lex_state_t * state) {
 579              		.loc 1 206 45 is_stmt 1 view -0
 580              		.cfi_startproc
 581              		@ args = 0, pretend = 0, frame = 0
 582              		@ frame_needed = 0, uses_anonymous_args = 0
 583              		.loc 1 206 45 is_stmt 0 view .LVU123
 584 0000 70B5     		push	{r4, r5, r6, lr}
 585              	.LCFI2:
 586              		.cfi_def_cfa_offset 16
 587              		.cfi_offset 4, -16
 588              		.cfi_offset 5, -12
ARM GAS  /tmp/ccEnAiLD.s 			page 15


 589              		.cfi_offset 6, -8
 590              		.cfi_offset 14, -4
 591 0002 0400     		movs	r4, r0
 207:libscpi/src/lexer.c ****     int someNumbers = 0;
 592              		.loc 1 207 5 is_stmt 1 view .LVU124
 593              	.LVL61:
 208:libscpi/src/lexer.c ****     while (!iseos(state) && isdigit((uint8_t)(state->pos[0]))) {
 594              		.loc 1 208 5 view .LVU125
 207:libscpi/src/lexer.c ****     int someNumbers = 0;
 595              		.loc 1 207 9 is_stmt 0 view .LVU126
 596 0004 0025     		movs	r5, #0
 597              	.LVL62:
 598              	.L50:
 599              		.loc 1 208 11 is_stmt 1 view .LVU127
 600              		.loc 1 208 13 is_stmt 0 view .LVU128
 601 0006 2000     		movs	r0, r4
 602 0008 FFF7FEFF 		bl	iseos
 603              	.LVL63:
 604              		.loc 1 208 11 view .LVU129
 605 000c 0028     		cmp	r0, #0
 606 000e 09D1     		bne	.L49
 607              		.loc 1 208 29 discriminator 1 view .LVU130
 608 0010 6368     		ldr	r3, [r4, #4]
 609 0012 1A78     		ldrb	r2, [r3]
 610 0014 0449     		ldr	r1, .L53
 611 0016 8A5C     		ldrb	r2, [r1, r2]
 612              		.loc 1 208 26 discriminator 1 view .LVU131
 613 0018 5207     		lsls	r2, r2, #29
 614 001a 03D5     		bpl	.L49
 209:libscpi/src/lexer.c ****         state->pos++;
 615              		.loc 1 209 9 is_stmt 1 view .LVU132
 616              		.loc 1 209 19 is_stmt 0 view .LVU133
 617 001c 0133     		adds	r3, r3, #1
 618 001e 6360     		str	r3, [r4, #4]
 210:libscpi/src/lexer.c ****         someNumbers++;
 619              		.loc 1 210 9 is_stmt 1 view .LVU134
 620              		.loc 1 210 20 is_stmt 0 view .LVU135
 621 0020 0135     		adds	r5, r5, #1
 622              	.LVL64:
 623              		.loc 1 210 20 view .LVU136
 624 0022 F0E7     		b	.L50
 625              	.L49:
 211:libscpi/src/lexer.c ****     }
 212:libscpi/src/lexer.c ****     return someNumbers;
 213:libscpi/src/lexer.c **** }
 626              		.loc 1 213 1 view .LVU137
 627 0024 2800     		movs	r0, r5
 628              		@ sp needed
 629              	.LVL65:
 630              	.LVL66:
 631              		.loc 1 213 1 view .LVU138
 632 0026 70BD     		pop	{r4, r5, r6, pc}
 633              	.L54:
 634              		.align	2
 635              	.L53:
 636 0028 01000000 		.word	_ctype_+1
 637              		.cfi_endproc
ARM GAS  /tmp/ccEnAiLD.s 			page 16


 638              	.LFE16:
 640              		.section	.text.skipPlusmn,"ax",%progbits
 641              		.align	1
 642              		.syntax unified
 643              		.code	16
 644              		.thumb_func
 645              		.fpu softvfp
 647              	skipPlusmn:
 648              	.LVL67:
 649              	.LFB17:
 214:libscpi/src/lexer.c **** 
 215:libscpi/src/lexer.c **** /**
 216:libscpi/src/lexer.c ****  * Skip plus or minus
 217:libscpi/src/lexer.c ****  * @param state
 218:libscpi/src/lexer.c ****  * @return 
 219:libscpi/src/lexer.c ****  */
 220:libscpi/src/lexer.c **** static int skipPlusmn(lex_state_t * state) {
 650              		.loc 1 220 44 is_stmt 1 view -0
 651              		.cfi_startproc
 652              		@ args = 0, pretend = 0, frame = 0
 653              		@ frame_needed = 0, uses_anonymous_args = 0
 654              		.loc 1 220 44 is_stmt 0 view .LVU140
 655 0000 70B5     		push	{r4, r5, r6, lr}
 656              	.LCFI3:
 657              		.cfi_def_cfa_offset 16
 658              		.cfi_offset 4, -16
 659              		.cfi_offset 5, -12
 660              		.cfi_offset 6, -8
 661              		.cfi_offset 14, -4
 662 0002 0400     		movs	r4, r0
 221:libscpi/src/lexer.c ****     if (!iseos(state) && isplusmn(state->pos[0])) {
 663              		.loc 1 221 5 is_stmt 1 view .LVU141
 664              		.loc 1 221 10 is_stmt 0 view .LVU142
 665 0004 FFF7FEFF 		bl	iseos
 666              	.LVL68:
 667              		.loc 1 221 8 view .LVU143
 668 0008 0028     		cmp	r0, #0
 669 000a 09D1     		bne	.L57
 670              		.loc 1 221 40 discriminator 1 view .LVU144
 671 000c 6568     		ldr	r5, [r4, #4]
 672              		.loc 1 221 45 discriminator 1 view .LVU145
 673 000e 2878     		ldrb	r0, [r5]
 674              		.loc 1 221 26 discriminator 1 view .LVU146
 675 0010 FFF7FEFF 		bl	isplusmn
 676              	.LVL69:
 677              		.loc 1 221 23 discriminator 1 view .LVU147
 678 0014 0028     		cmp	r0, #0
 679 0016 04D0     		beq	.L55
 222:libscpi/src/lexer.c ****         state->pos++;
 680              		.loc 1 222 9 is_stmt 1 view .LVU148
 681              		.loc 1 222 19 is_stmt 0 view .LVU149
 682 0018 0135     		adds	r5, r5, #1
 683 001a 6560     		str	r5, [r4, #4]
 223:libscpi/src/lexer.c ****         return SKIP_OK;
 684              		.loc 1 223 9 is_stmt 1 view .LVU150
 685              		.loc 1 223 16 is_stmt 0 view .LVU151
 686 001c 0120     		movs	r0, #1
ARM GAS  /tmp/ccEnAiLD.s 			page 17


 687 001e 00E0     		b	.L55
 688              	.L57:
 224:libscpi/src/lexer.c ****     } else {
 225:libscpi/src/lexer.c ****         return SKIP_NONE;
 689              		.loc 1 225 16 view .LVU152
 690 0020 0020     		movs	r0, #0
 691              	.L55:
 226:libscpi/src/lexer.c ****     }
 227:libscpi/src/lexer.c **** }
 692              		.loc 1 227 1 view .LVU153
 693              		@ sp needed
 694              	.LVL70:
 695              		.loc 1 227 1 view .LVU154
 696 0022 70BD     		pop	{r4, r5, r6, pc}
 697              		.cfi_endproc
 698              	.LFE17:
 700              		.section	.text.skipAlpha,"ax",%progbits
 701              		.align	1
 702              		.syntax unified
 703              		.code	16
 704              		.thumb_func
 705              		.fpu softvfp
 707              	skipAlpha:
 708              	.LVL71:
 709              	.LFB18:
 228:libscpi/src/lexer.c **** 
 229:libscpi/src/lexer.c **** /**
 230:libscpi/src/lexer.c ****  * Skip any character from 'a'-'Z'
 231:libscpi/src/lexer.c ****  * @param state
 232:libscpi/src/lexer.c ****  * @return 
 233:libscpi/src/lexer.c ****  */
 234:libscpi/src/lexer.c **** static int skipAlpha(lex_state_t * state) {
 710              		.loc 1 234 43 is_stmt 1 view -0
 711              		.cfi_startproc
 712              		@ args = 0, pretend = 0, frame = 0
 713              		@ frame_needed = 0, uses_anonymous_args = 0
 714              		.loc 1 234 43 is_stmt 0 view .LVU156
 715 0000 70B5     		push	{r4, r5, r6, lr}
 716              	.LCFI4:
 717              		.cfi_def_cfa_offset 16
 718              		.cfi_offset 4, -16
 719              		.cfi_offset 5, -12
 720              		.cfi_offset 6, -8
 721              		.cfi_offset 14, -4
 722 0002 0400     		movs	r4, r0
 235:libscpi/src/lexer.c ****     int someLetters = 0;
 723              		.loc 1 235 5 is_stmt 1 view .LVU157
 724              	.LVL72:
 236:libscpi/src/lexer.c ****     while (!iseos(state) && isalpha((uint8_t)(state->pos[0]))) {
 725              		.loc 1 236 5 view .LVU158
 235:libscpi/src/lexer.c ****     int someLetters = 0;
 726              		.loc 1 235 9 is_stmt 0 view .LVU159
 727 0004 0025     		movs	r5, #0
 728              	.LVL73:
 729              	.L59:
 730              		.loc 1 236 11 is_stmt 1 view .LVU160
 731              		.loc 1 236 13 is_stmt 0 view .LVU161
ARM GAS  /tmp/ccEnAiLD.s 			page 18


 732 0006 2000     		movs	r0, r4
 733 0008 FFF7FEFF 		bl	iseos
 734              	.LVL74:
 735              		.loc 1 236 11 view .LVU162
 736 000c 0028     		cmp	r0, #0
 737 000e 09D1     		bne	.L58
 738              		.loc 1 236 29 discriminator 1 view .LVU163
 739 0010 6368     		ldr	r3, [r4, #4]
 740 0012 1A78     		ldrb	r2, [r3]
 741 0014 0449     		ldr	r1, .L62
 742 0016 8A5C     		ldrb	r2, [r1, r2]
 743              		.loc 1 236 26 discriminator 1 view .LVU164
 744 0018 9207     		lsls	r2, r2, #30
 745 001a 03D0     		beq	.L58
 237:libscpi/src/lexer.c ****         state->pos++;
 746              		.loc 1 237 9 is_stmt 1 view .LVU165
 747              		.loc 1 237 19 is_stmt 0 view .LVU166
 748 001c 0133     		adds	r3, r3, #1
 749 001e 6360     		str	r3, [r4, #4]
 238:libscpi/src/lexer.c ****         someLetters++;
 750              		.loc 1 238 9 is_stmt 1 view .LVU167
 751              		.loc 1 238 20 is_stmt 0 view .LVU168
 752 0020 0135     		adds	r5, r5, #1
 753              	.LVL75:
 754              		.loc 1 238 20 view .LVU169
 755 0022 F0E7     		b	.L59
 756              	.L58:
 239:libscpi/src/lexer.c ****     }
 240:libscpi/src/lexer.c ****     return someLetters;
 241:libscpi/src/lexer.c **** }
 757              		.loc 1 241 1 view .LVU170
 758 0024 2800     		movs	r0, r5
 759              		@ sp needed
 760              	.LVL76:
 761              	.LVL77:
 762              		.loc 1 241 1 view .LVU171
 763 0026 70BD     		pop	{r4, r5, r6, pc}
 764              	.L63:
 765              		.align	2
 766              	.L62:
 767 0028 01000000 		.word	_ctype_+1
 768              		.cfi_endproc
 769              	.LFE18:
 771              		.section	.text.skipChr,"ax",%progbits
 772              		.align	1
 773              		.syntax unified
 774              		.code	16
 775              		.thumb_func
 776              		.fpu softvfp
 778              	skipChr:
 779              	.LVL78:
 780              	.LFB19:
 242:libscpi/src/lexer.c **** 
 243:libscpi/src/lexer.c **** /**
 244:libscpi/src/lexer.c ****  * Skip exact character chr or nothing
 245:libscpi/src/lexer.c ****  * @param state
 246:libscpi/src/lexer.c ****  * @param chr
ARM GAS  /tmp/ccEnAiLD.s 			page 19


 247:libscpi/src/lexer.c ****  * @return 
 248:libscpi/src/lexer.c ****  */
 249:libscpi/src/lexer.c **** static int skipChr(lex_state_t * state, char chr) {
 781              		.loc 1 249 51 is_stmt 1 view -0
 782              		.cfi_startproc
 783              		@ args = 0, pretend = 0, frame = 0
 784              		@ frame_needed = 0, uses_anonymous_args = 0
 785              		.loc 1 249 51 is_stmt 0 view .LVU173
 786 0000 70B5     		push	{r4, r5, r6, lr}
 787              	.LCFI5:
 788              		.cfi_def_cfa_offset 16
 789              		.cfi_offset 4, -16
 790              		.cfi_offset 5, -12
 791              		.cfi_offset 6, -8
 792              		.cfi_offset 14, -4
 793 0002 0400     		movs	r4, r0
 794 0004 0D00     		movs	r5, r1
 250:libscpi/src/lexer.c ****     if (!iseos(state) && ischr(state, chr)) {
 795              		.loc 1 250 5 is_stmt 1 view .LVU174
 796              		.loc 1 250 10 is_stmt 0 view .LVU175
 797 0006 FFF7FEFF 		bl	iseos
 798              	.LVL79:
 799              		.loc 1 250 8 view .LVU176
 800 000a 0028     		cmp	r0, #0
 801 000c 0AD1     		bne	.L66
 802              		.loc 1 250 26 discriminator 1 view .LVU177
 803 000e 2900     		movs	r1, r5
 804 0010 2000     		movs	r0, r4
 805 0012 FFF7FEFF 		bl	ischr
 806              	.LVL80:
 807              		.loc 1 250 23 discriminator 1 view .LVU178
 808 0016 0028     		cmp	r0, #0
 809 0018 05D0     		beq	.L64
 251:libscpi/src/lexer.c ****         state->pos++;
 810              		.loc 1 251 9 is_stmt 1 view .LVU179
 811              		.loc 1 251 19 is_stmt 0 view .LVU180
 812 001a 6368     		ldr	r3, [r4, #4]
 813 001c 0133     		adds	r3, r3, #1
 814 001e 6360     		str	r3, [r4, #4]
 252:libscpi/src/lexer.c ****         return SKIP_OK;
 815              		.loc 1 252 9 is_stmt 1 view .LVU181
 816              		.loc 1 252 16 is_stmt 0 view .LVU182
 817 0020 0120     		movs	r0, #1
 818 0022 00E0     		b	.L64
 819              	.L66:
 253:libscpi/src/lexer.c ****     } else {
 254:libscpi/src/lexer.c ****         return SKIP_NONE;
 820              		.loc 1 254 16 view .LVU183
 821 0024 0020     		movs	r0, #0
 822              	.L64:
 255:libscpi/src/lexer.c ****     }
 256:libscpi/src/lexer.c **** }
 823              		.loc 1 256 1 view .LVU184
 824              		@ sp needed
 825              	.LVL81:
 826              		.loc 1 256 1 view .LVU185
 827 0026 70BD     		pop	{r4, r5, r6, pc}
ARM GAS  /tmp/ccEnAiLD.s 			page 20


 828              		.cfi_endproc
 829              	.LFE19:
 831              		.section	.text.skipSlashDot,"ax",%progbits
 832              		.align	1
 833              		.syntax unified
 834              		.code	16
 835              		.thumb_func
 836              		.fpu softvfp
 838              	skipSlashDot:
 839              	.LVL82:
 840              	.LFB20:
 257:libscpi/src/lexer.c **** 
 258:libscpi/src/lexer.c **** /**
 259:libscpi/src/lexer.c ****  * Skip slash or dot
 260:libscpi/src/lexer.c ****  * @param state
 261:libscpi/src/lexer.c ****  * @return 
 262:libscpi/src/lexer.c ****  */
 263:libscpi/src/lexer.c **** static int skipSlashDot(lex_state_t * state) {
 841              		.loc 1 263 46 is_stmt 1 view -0
 842              		.cfi_startproc
 843              		@ args = 0, pretend = 0, frame = 0
 844              		@ frame_needed = 0, uses_anonymous_args = 0
 845              		.loc 1 263 46 is_stmt 0 view .LVU187
 846 0000 70B5     		push	{r4, r5, r6, lr}
 847              	.LCFI6:
 848              		.cfi_def_cfa_offset 16
 849              		.cfi_offset 4, -16
 850              		.cfi_offset 5, -12
 851              		.cfi_offset 6, -8
 852              		.cfi_offset 14, -4
 853 0002 0400     		movs	r4, r0
 264:libscpi/src/lexer.c ****     if (!iseos(state) && (ischr(state, '/') | ischr(state, '.'))) {
 854              		.loc 1 264 5 is_stmt 1 view .LVU188
 855              		.loc 1 264 10 is_stmt 0 view .LVU189
 856 0004 FFF7FEFF 		bl	iseos
 857              	.LVL83:
 858              		.loc 1 264 8 view .LVU190
 859 0008 0028     		cmp	r0, #0
 860 000a 0FD1     		bne	.L69
 861              		.loc 1 264 27 discriminator 1 view .LVU191
 862 000c 2F21     		movs	r1, #47
 863 000e 2000     		movs	r0, r4
 864 0010 FFF7FEFF 		bl	ischr
 865              	.LVL84:
 866 0014 0500     		movs	r5, r0
 867              		.loc 1 264 47 discriminator 1 view .LVU192
 868 0016 2E21     		movs	r1, #46
 869 0018 2000     		movs	r0, r4
 870 001a FFF7FEFF 		bl	ischr
 871              	.LVL85:
 872              		.loc 1 264 45 discriminator 1 view .LVU193
 873 001e 2843     		orrs	r0, r5
 874              		.loc 1 264 23 discriminator 1 view .LVU194
 875 0020 05D0     		beq	.L67
 265:libscpi/src/lexer.c ****         state->pos++;
 876              		.loc 1 265 9 is_stmt 1 view .LVU195
 877              		.loc 1 265 19 is_stmt 0 view .LVU196
ARM GAS  /tmp/ccEnAiLD.s 			page 21


 878 0022 6368     		ldr	r3, [r4, #4]
 879 0024 0133     		adds	r3, r3, #1
 880 0026 6360     		str	r3, [r4, #4]
 266:libscpi/src/lexer.c ****         return SKIP_OK;
 881              		.loc 1 266 9 is_stmt 1 view .LVU197
 882              		.loc 1 266 16 is_stmt 0 view .LVU198
 883 0028 0120     		movs	r0, #1
 884 002a 00E0     		b	.L67
 885              	.L69:
 267:libscpi/src/lexer.c ****     } else {
 268:libscpi/src/lexer.c ****         return SKIP_NONE;
 886              		.loc 1 268 16 view .LVU199
 887 002c 0020     		movs	r0, #0
 888              	.L67:
 269:libscpi/src/lexer.c ****     }
 270:libscpi/src/lexer.c **** }
 889              		.loc 1 270 1 view .LVU200
 890              		@ sp needed
 891              	.LVL86:
 892              		.loc 1 270 1 view .LVU201
 893 002e 70BD     		pop	{r4, r5, r6, pc}
 894              		.cfi_endproc
 895              	.LFE20:
 897              		.section	.text.skipStar,"ax",%progbits
 898              		.align	1
 899              		.syntax unified
 900              		.code	16
 901              		.thumb_func
 902              		.fpu softvfp
 904              	skipStar:
 905              	.LVL87:
 906              	.LFB21:
 271:libscpi/src/lexer.c **** 
 272:libscpi/src/lexer.c **** /**
 273:libscpi/src/lexer.c ****  * Skip star
 274:libscpi/src/lexer.c ****  * @param state
 275:libscpi/src/lexer.c ****  * @return 
 276:libscpi/src/lexer.c ****  */
 277:libscpi/src/lexer.c **** static int skipStar(lex_state_t * state) {
 907              		.loc 1 277 42 is_stmt 1 view -0
 908              		.cfi_startproc
 909              		@ args = 0, pretend = 0, frame = 0
 910              		@ frame_needed = 0, uses_anonymous_args = 0
 911              		.loc 1 277 42 is_stmt 0 view .LVU203
 912 0000 10B5     		push	{r4, lr}
 913              	.LCFI7:
 914              		.cfi_def_cfa_offset 8
 915              		.cfi_offset 4, -8
 916              		.cfi_offset 14, -4
 917 0002 0400     		movs	r4, r0
 278:libscpi/src/lexer.c ****     if (!iseos(state) && ischr(state, '*')) {
 918              		.loc 1 278 5 is_stmt 1 view .LVU204
 919              		.loc 1 278 10 is_stmt 0 view .LVU205
 920 0004 FFF7FEFF 		bl	iseos
 921              	.LVL88:
 922              		.loc 1 278 8 view .LVU206
 923 0008 0028     		cmp	r0, #0
ARM GAS  /tmp/ccEnAiLD.s 			page 22


 924 000a 0AD1     		bne	.L72
 925              		.loc 1 278 26 discriminator 1 view .LVU207
 926 000c 2A21     		movs	r1, #42
 927 000e 2000     		movs	r0, r4
 928 0010 FFF7FEFF 		bl	ischr
 929              	.LVL89:
 930              		.loc 1 278 23 discriminator 1 view .LVU208
 931 0014 0028     		cmp	r0, #0
 932 0016 05D0     		beq	.L70
 279:libscpi/src/lexer.c ****         state->pos++;
 933              		.loc 1 279 9 is_stmt 1 view .LVU209
 934              		.loc 1 279 19 is_stmt 0 view .LVU210
 935 0018 6368     		ldr	r3, [r4, #4]
 936 001a 0133     		adds	r3, r3, #1
 937 001c 6360     		str	r3, [r4, #4]
 280:libscpi/src/lexer.c ****         return SKIP_OK;
 938              		.loc 1 280 9 is_stmt 1 view .LVU211
 939              		.loc 1 280 16 is_stmt 0 view .LVU212
 940 001e 0120     		movs	r0, #1
 941 0020 00E0     		b	.L70
 942              	.L72:
 281:libscpi/src/lexer.c ****     } else {
 282:libscpi/src/lexer.c ****         return SKIP_NONE;
 943              		.loc 1 282 16 view .LVU213
 944 0022 0020     		movs	r0, #0
 945              	.L70:
 283:libscpi/src/lexer.c ****     }
 284:libscpi/src/lexer.c **** }
 946              		.loc 1 284 1 view .LVU214
 947              		@ sp needed
 948              	.LVL90:
 949              		.loc 1 284 1 view .LVU215
 950 0024 10BD     		pop	{r4, pc}
 951              		.cfi_endproc
 952              	.LFE21:
 954              		.section	.text.skipColon,"ax",%progbits
 955              		.align	1
 956              		.syntax unified
 957              		.code	16
 958              		.thumb_func
 959              		.fpu softvfp
 961              	skipColon:
 962              	.LVL91:
 963              	.LFB22:
 285:libscpi/src/lexer.c **** 
 286:libscpi/src/lexer.c **** /**
 287:libscpi/src/lexer.c ****  * Skip colon
 288:libscpi/src/lexer.c ****  * @param state
 289:libscpi/src/lexer.c ****  * @return 
 290:libscpi/src/lexer.c ****  */
 291:libscpi/src/lexer.c **** static int skipColon(lex_state_t * state) {
 964              		.loc 1 291 43 is_stmt 1 view -0
 965              		.cfi_startproc
 966              		@ args = 0, pretend = 0, frame = 0
 967              		@ frame_needed = 0, uses_anonymous_args = 0
 968              		.loc 1 291 43 is_stmt 0 view .LVU217
 969 0000 10B5     		push	{r4, lr}
ARM GAS  /tmp/ccEnAiLD.s 			page 23


 970              	.LCFI8:
 971              		.cfi_def_cfa_offset 8
 972              		.cfi_offset 4, -8
 973              		.cfi_offset 14, -4
 974 0002 0400     		movs	r4, r0
 292:libscpi/src/lexer.c ****     if (!iseos(state) && ischr(state, ':')) {
 975              		.loc 1 292 5 is_stmt 1 view .LVU218
 976              		.loc 1 292 10 is_stmt 0 view .LVU219
 977 0004 FFF7FEFF 		bl	iseos
 978              	.LVL92:
 979              		.loc 1 292 8 view .LVU220
 980 0008 0028     		cmp	r0, #0
 981 000a 0AD1     		bne	.L75
 982              		.loc 1 292 26 discriminator 1 view .LVU221
 983 000c 3A21     		movs	r1, #58
 984 000e 2000     		movs	r0, r4
 985 0010 FFF7FEFF 		bl	ischr
 986              	.LVL93:
 987              		.loc 1 292 23 discriminator 1 view .LVU222
 988 0014 0028     		cmp	r0, #0
 989 0016 05D0     		beq	.L73
 293:libscpi/src/lexer.c ****         state->pos++;
 990              		.loc 1 293 9 is_stmt 1 view .LVU223
 991              		.loc 1 293 19 is_stmt 0 view .LVU224
 992 0018 6368     		ldr	r3, [r4, #4]
 993 001a 0133     		adds	r3, r3, #1
 994 001c 6360     		str	r3, [r4, #4]
 294:libscpi/src/lexer.c ****         return SKIP_OK;
 995              		.loc 1 294 9 is_stmt 1 view .LVU225
 996              		.loc 1 294 16 is_stmt 0 view .LVU226
 997 001e 0120     		movs	r0, #1
 998 0020 00E0     		b	.L73
 999              	.L75:
 295:libscpi/src/lexer.c ****     } else {
 296:libscpi/src/lexer.c ****         return SKIP_NONE;
 1000              		.loc 1 296 16 view .LVU227
 1001 0022 0020     		movs	r0, #0
 1002              	.L73:
 297:libscpi/src/lexer.c ****     }
 298:libscpi/src/lexer.c **** }
 1003              		.loc 1 298 1 view .LVU228
 1004              		@ sp needed
 1005              	.LVL94:
 1006              		.loc 1 298 1 view .LVU229
 1007 0024 10BD     		pop	{r4, pc}
 1008              		.cfi_endproc
 1009              	.LFE22:
 1011              		.section	.text.skipProgramMnemonic,"ax",%progbits
 1012              		.align	1
 1013              		.syntax unified
 1014              		.code	16
 1015              		.thumb_func
 1016              		.fpu softvfp
 1018              	skipProgramMnemonic:
 1019              	.LVL95:
 1020              	.LFB23:
 299:libscpi/src/lexer.c **** 
ARM GAS  /tmp/ccEnAiLD.s 			page 24


 300:libscpi/src/lexer.c **** /* 7.6.1.2 <COMMAND PROGRAM HEADER> */
 301:libscpi/src/lexer.c **** 
 302:libscpi/src/lexer.c **** /**
 303:libscpi/src/lexer.c ****  * Skip program mnemonic [a-z][a-z0-9_]*
 304:libscpi/src/lexer.c ****  * @param state
 305:libscpi/src/lexer.c ****  * @return 
 306:libscpi/src/lexer.c ****  */
 307:libscpi/src/lexer.c **** static int skipProgramMnemonic(lex_state_t * state) {
 1021              		.loc 1 307 53 is_stmt 1 view -0
 1022              		.cfi_startproc
 1023              		@ args = 0, pretend = 0, frame = 0
 1024              		@ frame_needed = 0, uses_anonymous_args = 0
 1025              		.loc 1 307 53 is_stmt 0 view .LVU231
 1026 0000 70B5     		push	{r4, r5, r6, lr}
 1027              	.LCFI9:
 1028              		.cfi_def_cfa_offset 16
 1029              		.cfi_offset 4, -16
 1030              		.cfi_offset 5, -12
 1031              		.cfi_offset 6, -8
 1032              		.cfi_offset 14, -4
 1033 0002 0400     		movs	r4, r0
 308:libscpi/src/lexer.c ****     const char * startPos = state->pos;
 1034              		.loc 1 308 5 is_stmt 1 view .LVU232
 1035              		.loc 1 308 18 is_stmt 0 view .LVU233
 1036 0004 4668     		ldr	r6, [r0, #4]
 1037              	.LVL96:
 309:libscpi/src/lexer.c ****     if (!iseos(state) && isalpha((uint8_t)(state->pos[0]))) {
 1038              		.loc 1 309 5 is_stmt 1 view .LVU234
 1039              		.loc 1 309 10 is_stmt 0 view .LVU235
 1040 0006 FFF7FEFF 		bl	iseos
 1041              	.LVL97:
 1042              		.loc 1 309 8 view .LVU236
 1043 000a 0028     		cmp	r0, #0
 1044 000c 1AD1     		bne	.L77
 1045              		.loc 1 309 26 discriminator 1 view .LVU237
 1046 000e 3378     		ldrb	r3, [r6]
 1047 0010 124A     		ldr	r2, .L82
 1048 0012 D35C     		ldrb	r3, [r2, r3]
 1049              		.loc 1 309 23 discriminator 1 view .LVU238
 1050 0014 9B07     		lsls	r3, r3, #30
 1051 0016 15D0     		beq	.L77
 310:libscpi/src/lexer.c ****         state->pos++;
 1052              		.loc 1 310 9 is_stmt 1 view .LVU239
 1053              		.loc 1 310 19 is_stmt 0 view .LVU240
 1054 0018 731C     		adds	r3, r6, #1
 1055 001a 6360     		str	r3, [r4, #4]
 311:libscpi/src/lexer.c ****         while (!iseos(state) && (isalnum((uint8_t)(state->pos[0])) || ischr(state, '_'))) {
 1056              		.loc 1 311 9 is_stmt 1 view .LVU241
 1057              		.loc 1 311 15 is_stmt 0 view .LVU242
 1058 001c 01E0     		b	.L78
 1059              	.L79:
 312:libscpi/src/lexer.c ****             state->pos++;
 1060              		.loc 1 312 13 is_stmt 1 view .LVU243
 1061              		.loc 1 312 23 is_stmt 0 view .LVU244
 1062 001e 0135     		adds	r5, r5, #1
 1063 0020 6560     		str	r5, [r4, #4]
 1064              	.L78:
ARM GAS  /tmp/ccEnAiLD.s 			page 25


 311:libscpi/src/lexer.c ****         while (!iseos(state) && (isalnum((uint8_t)(state->pos[0])) || ischr(state, '_'))) {
 1065              		.loc 1 311 15 is_stmt 1 view .LVU245
 311:libscpi/src/lexer.c ****         while (!iseos(state) && (isalnum((uint8_t)(state->pos[0])) || ischr(state, '_'))) {
 1066              		.loc 1 311 17 is_stmt 0 view .LVU246
 1067 0022 2000     		movs	r0, r4
 1068 0024 FFF7FEFF 		bl	iseos
 1069              	.LVL98:
 311:libscpi/src/lexer.c ****         while (!iseos(state) && (isalnum((uint8_t)(state->pos[0])) || ischr(state, '_'))) {
 1070              		.loc 1 311 15 view .LVU247
 1071 0028 0028     		cmp	r0, #0
 1072 002a 0BD1     		bne	.L77
 311:libscpi/src/lexer.c ****         while (!iseos(state) && (isalnum((uint8_t)(state->pos[0])) || ischr(state, '_'))) {
 1073              		.loc 1 311 34 discriminator 1 view .LVU248
 1074 002c 6568     		ldr	r5, [r4, #4]
 1075 002e 2B78     		ldrb	r3, [r5]
 1076 0030 0A4A     		ldr	r2, .L82
 1077 0032 D35C     		ldrb	r3, [r2, r3]
 311:libscpi/src/lexer.c ****         while (!iseos(state) && (isalnum((uint8_t)(state->pos[0])) || ischr(state, '_'))) {
 1078              		.loc 1 311 30 discriminator 1 view .LVU249
 1079 0034 5B07     		lsls	r3, r3, #29
 1080 0036 F2D1     		bne	.L79
 311:libscpi/src/lexer.c ****         while (!iseos(state) && (isalnum((uint8_t)(state->pos[0])) || ischr(state, '_'))) {
 1081              		.loc 1 311 71 discriminator 2 view .LVU250
 1082 0038 5F21     		movs	r1, #95
 1083 003a 2000     		movs	r0, r4
 1084 003c FFF7FEFF 		bl	ischr
 1085              	.LVL99:
 311:libscpi/src/lexer.c ****         while (!iseos(state) && (isalnum((uint8_t)(state->pos[0])) || ischr(state, '_'))) {
 1086              		.loc 1 311 68 discriminator 2 view .LVU251
 1087 0040 0028     		cmp	r0, #0
 1088 0042 ECD1     		bne	.L79
 1089              	.L77:
 313:libscpi/src/lexer.c ****         }
 314:libscpi/src/lexer.c ****     }
 315:libscpi/src/lexer.c **** 
 316:libscpi/src/lexer.c ****     if (iseos(state)) {
 1090              		.loc 1 316 5 is_stmt 1 view .LVU252
 1091              		.loc 1 316 9 is_stmt 0 view .LVU253
 1092 0044 2000     		movs	r0, r4
 1093 0046 FFF7FEFF 		bl	iseos
 1094              	.LVL100:
 1095              		.loc 1 316 8 view .LVU254
 1096 004a 0028     		cmp	r0, #0
 1097 004c 02D0     		beq	.L80
 317:libscpi/src/lexer.c ****         return (state->pos - startPos) * SKIP_INCOMPLETE;
 1098              		.loc 1 317 9 is_stmt 1 view .LVU255
 1099              		.loc 1 317 22 is_stmt 0 view .LVU256
 1100 004e 6068     		ldr	r0, [r4, #4]
 1101              		.loc 1 317 40 view .LVU257
 1102 0050 301A     		subs	r0, r6, r0
 1103              	.L76:
 318:libscpi/src/lexer.c ****     } else {
 319:libscpi/src/lexer.c ****         return (state->pos - startPos) * SKIP_OK;
 320:libscpi/src/lexer.c ****     }
 321:libscpi/src/lexer.c **** }
 1104              		.loc 1 321 1 view .LVU258
 1105              		@ sp needed
ARM GAS  /tmp/ccEnAiLD.s 			page 26


 1106              	.LVL101:
 1107              	.LVL102:
 1108              		.loc 1 321 1 view .LVU259
 1109 0052 70BD     		pop	{r4, r5, r6, pc}
 1110              	.LVL103:
 1111              	.L80:
 319:libscpi/src/lexer.c ****     }
 1112              		.loc 1 319 9 is_stmt 1 view .LVU260
 319:libscpi/src/lexer.c ****     }
 1113              		.loc 1 319 22 is_stmt 0 view .LVU261
 1114 0054 6068     		ldr	r0, [r4, #4]
 319:libscpi/src/lexer.c ****     }
 1115              		.loc 1 319 40 view .LVU262
 1116 0056 801B     		subs	r0, r0, r6
 1117 0058 FBE7     		b	.L76
 1118              	.L83:
 1119 005a C046     		.align	2
 1120              	.L82:
 1121 005c 01000000 		.word	_ctype_+1
 1122              		.cfi_endproc
 1123              	.LFE23:
 1125              		.section	.text.skipCommonProgramHeader,"ax",%progbits
 1126              		.align	1
 1127              		.syntax unified
 1128              		.code	16
 1129              		.thumb_func
 1130              		.fpu softvfp
 1132              	skipCommonProgramHeader:
 1133              	.LVL104:
 1134              	.LFB25:
 322:libscpi/src/lexer.c **** 
 323:libscpi/src/lexer.c **** /* tokens */
 324:libscpi/src/lexer.c **** 
 325:libscpi/src/lexer.c **** /**
 326:libscpi/src/lexer.c ****  * Detect token white space
 327:libscpi/src/lexer.c ****  * @param state
 328:libscpi/src/lexer.c ****  * @param token
 329:libscpi/src/lexer.c ****  * @return 
 330:libscpi/src/lexer.c ****  */
 331:libscpi/src/lexer.c **** int scpiLex_WhiteSpace(lex_state_t * state, scpi_token_t * token) {
 332:libscpi/src/lexer.c ****     token->ptr = state->pos;
 333:libscpi/src/lexer.c **** 
 334:libscpi/src/lexer.c ****     skipWs(state);
 335:libscpi/src/lexer.c **** 
 336:libscpi/src/lexer.c ****     token->len = state->pos - token->ptr;
 337:libscpi/src/lexer.c **** 
 338:libscpi/src/lexer.c ****     if (token->len > 0) {
 339:libscpi/src/lexer.c ****         token->type = SCPI_TOKEN_WS;
 340:libscpi/src/lexer.c ****     } else {
 341:libscpi/src/lexer.c ****         token->type = SCPI_TOKEN_UNKNOWN;
 342:libscpi/src/lexer.c ****     }
 343:libscpi/src/lexer.c **** 
 344:libscpi/src/lexer.c ****     return token->len;
 345:libscpi/src/lexer.c **** }
 346:libscpi/src/lexer.c **** 
 347:libscpi/src/lexer.c **** /* 7.6.1 <COMMAND PROGRAM HEADER> */
 348:libscpi/src/lexer.c **** 
ARM GAS  /tmp/ccEnAiLD.s 			page 27


 349:libscpi/src/lexer.c **** /**
 350:libscpi/src/lexer.c ****  * Skip command program header \*<PROGRAM MNEMONIC>
 351:libscpi/src/lexer.c ****  * @param state
 352:libscpi/src/lexer.c ****  * @return 
 353:libscpi/src/lexer.c ****  */
 354:libscpi/src/lexer.c **** static int skipCommonProgramHeader(lex_state_t * state) {
 1135              		.loc 1 354 57 is_stmt 1 view -0
 1136              		.cfi_startproc
 1137              		@ args = 0, pretend = 0, frame = 0
 1138              		@ frame_needed = 0, uses_anonymous_args = 0
 1139              		.loc 1 354 57 is_stmt 0 view .LVU264
 1140 0000 70B5     		push	{r4, r5, r6, lr}
 1141              	.LCFI10:
 1142              		.cfi_def_cfa_offset 16
 1143              		.cfi_offset 4, -16
 1144              		.cfi_offset 5, -12
 1145              		.cfi_offset 6, -8
 1146              		.cfi_offset 14, -4
 1147 0002 0400     		movs	r4, r0
 355:libscpi/src/lexer.c ****     int res;
 1148              		.loc 1 355 5 is_stmt 1 view .LVU265
 356:libscpi/src/lexer.c ****     if (skipStar(state)) {
 1149              		.loc 1 356 5 view .LVU266
 1150              		.loc 1 356 9 is_stmt 0 view .LVU267
 1151 0004 FFF7FEFF 		bl	skipStar
 1152              	.LVL105:
 1153              		.loc 1 356 8 view .LVU268
 1154 0008 0028     		cmp	r0, #0
 1155 000a 00D1     		bne	.L90
 1156              	.L84:
 357:libscpi/src/lexer.c ****         res = skipProgramMnemonic(state);
 358:libscpi/src/lexer.c ****         if (res == SKIP_NONE && iseos(state)) {
 359:libscpi/src/lexer.c ****             return SKIP_INCOMPLETE;
 360:libscpi/src/lexer.c ****         } else if (res <= SKIP_INCOMPLETE) {
 361:libscpi/src/lexer.c ****             return SKIP_OK;
 362:libscpi/src/lexer.c ****         } else if (res >= SKIP_OK) {
 363:libscpi/src/lexer.c ****             return SKIP_OK;
 364:libscpi/src/lexer.c ****         } else {
 365:libscpi/src/lexer.c ****             return SKIP_INCOMPLETE;
 366:libscpi/src/lexer.c ****         }
 367:libscpi/src/lexer.c ****     }
 368:libscpi/src/lexer.c ****     return SKIP_NONE;
 369:libscpi/src/lexer.c **** }
 1157              		.loc 1 369 1 view .LVU269
 1158              		@ sp needed
 1159              	.LVL106:
 1160              		.loc 1 369 1 view .LVU270
 1161 000c 70BD     		pop	{r4, r5, r6, pc}
 1162              	.LVL107:
 1163              	.L90:
 357:libscpi/src/lexer.c ****         res = skipProgramMnemonic(state);
 1164              		.loc 1 357 9 is_stmt 1 view .LVU271
 357:libscpi/src/lexer.c ****         res = skipProgramMnemonic(state);
 1165              		.loc 1 357 15 is_stmt 0 view .LVU272
 1166 000e 2000     		movs	r0, r4
 1167 0010 FFF7FEFF 		bl	skipProgramMnemonic
 1168              	.LVL108:
ARM GAS  /tmp/ccEnAiLD.s 			page 28


 1169 0014 051E     		subs	r5, r0, #0
 1170              	.LVL109:
 358:libscpi/src/lexer.c ****             return SKIP_INCOMPLETE;
 1171              		.loc 1 358 9 is_stmt 1 view .LVU273
 358:libscpi/src/lexer.c ****             return SKIP_INCOMPLETE;
 1172              		.loc 1 358 12 is_stmt 0 view .LVU274
 1173 0016 04D1     		bne	.L86
 358:libscpi/src/lexer.c ****             return SKIP_INCOMPLETE;
 1174              		.loc 1 358 33 discriminator 1 view .LVU275
 1175 0018 2000     		movs	r0, r4
 1176              	.LVL110:
 358:libscpi/src/lexer.c ****             return SKIP_INCOMPLETE;
 1177              		.loc 1 358 33 discriminator 1 view .LVU276
 1178 001a FFF7FEFF 		bl	iseos
 1179              	.LVL111:
 358:libscpi/src/lexer.c ****             return SKIP_INCOMPLETE;
 1180              		.loc 1 358 30 discriminator 1 view .LVU277
 1181 001e 0028     		cmp	r0, #0
 1182 0020 04D1     		bne	.L87
 1183              	.L86:
 360:libscpi/src/lexer.c ****             return SKIP_OK;
 1184              		.loc 1 360 16 is_stmt 1 view .LVU278
 360:libscpi/src/lexer.c ****             return SKIP_OK;
 1185              		.loc 1 360 19 is_stmt 0 view .LVU279
 1186 0022 002D     		cmp	r5, #0
 1187 0024 05DB     		blt	.L88
 362:libscpi/src/lexer.c ****             return SKIP_OK;
 1188              		.loc 1 362 16 is_stmt 1 view .LVU280
 362:libscpi/src/lexer.c ****             return SKIP_OK;
 1189              		.loc 1 362 19 is_stmt 0 view .LVU281
 1190 0026 06DD     		ble	.L89
 363:libscpi/src/lexer.c ****         } else {
 1191              		.loc 1 363 20 view .LVU282
 1192 0028 0120     		movs	r0, #1
 1193 002a EFE7     		b	.L84
 1194              	.L87:
 359:libscpi/src/lexer.c ****         } else if (res <= SKIP_INCOMPLETE) {
 1195              		.loc 1 359 20 view .LVU283
 1196 002c 0120     		movs	r0, #1
 1197 002e 4042     		rsbs	r0, r0, #0
 1198 0030 ECE7     		b	.L84
 1199              	.L88:
 361:libscpi/src/lexer.c ****         } else if (res >= SKIP_OK) {
 1200              		.loc 1 361 20 view .LVU284
 1201 0032 0120     		movs	r0, #1
 1202 0034 EAE7     		b	.L84
 1203              	.L89:
 365:libscpi/src/lexer.c ****         }
 1204              		.loc 1 365 20 view .LVU285
 1205 0036 0120     		movs	r0, #1
 1206 0038 4042     		rsbs	r0, r0, #0
 1207 003a E7E7     		b	.L84
 1208              		.cfi_endproc
 1209              	.LFE25:
 1211              		.section	.text.skipCompoundProgramHeader,"ax",%progbits
 1212              		.align	1
 1213              		.syntax unified
ARM GAS  /tmp/ccEnAiLD.s 			page 29


 1214              		.code	16
 1215              		.thumb_func
 1216              		.fpu softvfp
 1218              	skipCompoundProgramHeader:
 1219              	.LVL112:
 1220              	.LFB26:
 370:libscpi/src/lexer.c **** 
 371:libscpi/src/lexer.c **** /**
 372:libscpi/src/lexer.c ****  * Skip compound program header :<PROGRAM MNEMONIC>:<PROGRAM MNEMONIC>...
 373:libscpi/src/lexer.c ****  * @param state
 374:libscpi/src/lexer.c ****  * @return 
 375:libscpi/src/lexer.c ****  */
 376:libscpi/src/lexer.c **** static int skipCompoundProgramHeader(lex_state_t * state) {
 1221              		.loc 1 376 59 is_stmt 1 view -0
 1222              		.cfi_startproc
 1223              		@ args = 0, pretend = 0, frame = 0
 1224              		@ frame_needed = 0, uses_anonymous_args = 0
 1225              		.loc 1 376 59 is_stmt 0 view .LVU287
 1226 0000 70B5     		push	{r4, r5, r6, lr}
 1227              	.LCFI11:
 1228              		.cfi_def_cfa_offset 16
 1229              		.cfi_offset 4, -16
 1230              		.cfi_offset 5, -12
 1231              		.cfi_offset 6, -8
 1232              		.cfi_offset 14, -4
 1233 0002 0400     		movs	r4, r0
 377:libscpi/src/lexer.c ****     int res;
 1234              		.loc 1 377 5 is_stmt 1 view .LVU288
 378:libscpi/src/lexer.c ****     int firstColon = skipColon(state);
 1235              		.loc 1 378 5 view .LVU289
 1236              		.loc 1 378 22 is_stmt 0 view .LVU290
 1237 0004 FFF7FEFF 		bl	skipColon
 1238              	.LVL113:
 1239              		.loc 1 378 22 view .LVU291
 1240 0008 0500     		movs	r5, r0
 1241              	.LVL114:
 379:libscpi/src/lexer.c **** 
 380:libscpi/src/lexer.c ****     res = skipProgramMnemonic(state);
 1242              		.loc 1 380 5 is_stmt 1 view .LVU292
 1243              		.loc 1 380 11 is_stmt 0 view .LVU293
 1244 000a 2000     		movs	r0, r4
 1245              	.LVL115:
 1246              		.loc 1 380 11 view .LVU294
 1247 000c FFF7FEFF 		bl	skipProgramMnemonic
 1248              	.LVL116:
 381:libscpi/src/lexer.c ****     if (res >= SKIP_OK) {
 1249              		.loc 1 381 5 is_stmt 1 view .LVU295
 1250              		.loc 1 381 8 is_stmt 0 view .LVU296
 1251 0010 0028     		cmp	r0, #0
 1252 0012 10DD     		ble	.L100
 1253              	.L92:
 382:libscpi/src/lexer.c ****         while (skipColon(state)) {
 1254              		.loc 1 382 15 is_stmt 1 view .LVU297
 1255              		.loc 1 382 16 is_stmt 0 view .LVU298
 1256 0014 2000     		movs	r0, r4
 1257              	.LVL117:
 1258              		.loc 1 382 16 view .LVU299
ARM GAS  /tmp/ccEnAiLD.s 			page 30


 1259 0016 FFF7FEFF 		bl	skipColon
 1260              	.LVL118:
 1261              		.loc 1 382 15 view .LVU300
 1262 001a 0028     		cmp	r0, #0
 1263 001c 08D0     		beq	.L101
 383:libscpi/src/lexer.c ****             res = skipProgramMnemonic(state);
 1264              		.loc 1 383 13 is_stmt 1 view .LVU301
 1265              		.loc 1 383 19 is_stmt 0 view .LVU302
 1266 001e 2000     		movs	r0, r4
 1267 0020 FFF7FEFF 		bl	skipProgramMnemonic
 1268              	.LVL119:
 384:libscpi/src/lexer.c ****             if (res <= SKIP_INCOMPLETE) {
 1269              		.loc 1 384 13 is_stmt 1 view .LVU303
 1270              		.loc 1 384 16 is_stmt 0 view .LVU304
 1271 0024 0028     		cmp	r0, #0
 1272 0026 0DDB     		blt	.L96
 385:libscpi/src/lexer.c ****                 return SKIP_OK;
 386:libscpi/src/lexer.c ****             } else if (res == SKIP_NONE) {
 1273              		.loc 1 386 20 is_stmt 1 view .LVU305
 1274              		.loc 1 386 23 is_stmt 0 view .LVU306
 1275 0028 F4D1     		bne	.L92
 387:libscpi/src/lexer.c ****                 return SKIP_INCOMPLETE;
 1276              		.loc 1 387 24 view .LVU307
 1277 002a 0125     		movs	r5, #1
 1278              	.LVL120:
 1279              		.loc 1 387 24 view .LVU308
 1280 002c 6D42     		rsbs	r5, r5, #0
 1281 002e 00E0     		b	.L91
 1282              	.LVL121:
 1283              	.L101:
 388:libscpi/src/lexer.c ****             }
 389:libscpi/src/lexer.c ****         }
 390:libscpi/src/lexer.c ****         return SKIP_OK;
 1284              		.loc 1 390 16 view .LVU309
 1285 0030 0125     		movs	r5, #1
 1286              	.LVL122:
 1287              	.L91:
 391:libscpi/src/lexer.c ****     } else if (res <= SKIP_INCOMPLETE) {
 392:libscpi/src/lexer.c ****         return SKIP_OK;
 393:libscpi/src/lexer.c ****     } else if (firstColon) {
 394:libscpi/src/lexer.c ****         return SKIP_INCOMPLETE;
 395:libscpi/src/lexer.c ****     } else {
 396:libscpi/src/lexer.c ****         return SKIP_NONE;
 397:libscpi/src/lexer.c ****     }
 398:libscpi/src/lexer.c **** }
 1288              		.loc 1 398 1 view .LVU310
 1289 0032 2800     		movs	r0, r5
 1290              		@ sp needed
 1291              	.LVL123:
 1292              		.loc 1 398 1 view .LVU311
 1293 0034 70BD     		pop	{r4, r5, r6, pc}
 1294              	.LVL124:
 1295              	.L100:
 391:libscpi/src/lexer.c ****     } else if (res <= SKIP_INCOMPLETE) {
 1296              		.loc 1 391 12 is_stmt 1 view .LVU312
 391:libscpi/src/lexer.c ****     } else if (res <= SKIP_INCOMPLETE) {
 1297              		.loc 1 391 15 is_stmt 0 view .LVU313
ARM GAS  /tmp/ccEnAiLD.s 			page 31


 1298 0036 0028     		cmp	r0, #0
 1299 0038 06DB     		blt	.L98
 393:libscpi/src/lexer.c ****         return SKIP_INCOMPLETE;
 1300              		.loc 1 393 12 is_stmt 1 view .LVU314
 393:libscpi/src/lexer.c ****         return SKIP_INCOMPLETE;
 1301              		.loc 1 393 15 is_stmt 0 view .LVU315
 1302 003a 002D     		cmp	r5, #0
 1303 003c F9D0     		beq	.L91
 394:libscpi/src/lexer.c ****     } else {
 1304              		.loc 1 394 16 view .LVU316
 1305 003e 0125     		movs	r5, #1
 1306              	.LVL125:
 394:libscpi/src/lexer.c ****     } else {
 1307              		.loc 1 394 16 view .LVU317
 1308 0040 6D42     		rsbs	r5, r5, #0
 1309 0042 F6E7     		b	.L91
 1310              	.LVL126:
 1311              	.L96:
 385:libscpi/src/lexer.c ****             } else if (res == SKIP_NONE) {
 1312              		.loc 1 385 24 view .LVU318
 1313 0044 0125     		movs	r5, #1
 1314              	.LVL127:
 385:libscpi/src/lexer.c ****             } else if (res == SKIP_NONE) {
 1315              		.loc 1 385 24 view .LVU319
 1316 0046 F4E7     		b	.L91
 1317              	.LVL128:
 1318              	.L98:
 392:libscpi/src/lexer.c ****     } else if (firstColon) {
 1319              		.loc 1 392 16 view .LVU320
 1320 0048 0125     		movs	r5, #1
 1321              	.LVL129:
 392:libscpi/src/lexer.c ****     } else if (firstColon) {
 1322              		.loc 1 392 16 view .LVU321
 1323 004a F2E7     		b	.L91
 1324              		.cfi_endproc
 1325              	.LFE26:
 1327              		.section	.text.skipMantisa,"ax",%progbits
 1328              		.align	1
 1329              		.syntax unified
 1330              		.code	16
 1331              		.thumb_func
 1332              		.fpu softvfp
 1334              	skipMantisa:
 1335              	.LVL130:
 1336              	.LFB29:
 399:libscpi/src/lexer.c **** 
 400:libscpi/src/lexer.c **** /**
 401:libscpi/src/lexer.c ****  * Detect token command or compound program header
 402:libscpi/src/lexer.c ****  * @param state
 403:libscpi/src/lexer.c ****  * @param token
 404:libscpi/src/lexer.c ****  * @return 
 405:libscpi/src/lexer.c ****  */
 406:libscpi/src/lexer.c **** int scpiLex_ProgramHeader(lex_state_t * state, scpi_token_t * token) {
 407:libscpi/src/lexer.c ****     int res;
 408:libscpi/src/lexer.c ****     token->ptr = state->pos;
 409:libscpi/src/lexer.c ****     token->type = SCPI_TOKEN_UNKNOWN;
 410:libscpi/src/lexer.c **** 
ARM GAS  /tmp/ccEnAiLD.s 			page 32


 411:libscpi/src/lexer.c ****     res = skipCommonProgramHeader(state);
 412:libscpi/src/lexer.c ****     if (res >= SKIP_OK) {
 413:libscpi/src/lexer.c ****         if (skipChr(state, '?') >= SKIP_OK) {
 414:libscpi/src/lexer.c ****             token->type = SCPI_TOKEN_COMMON_QUERY_PROGRAM_HEADER;
 415:libscpi/src/lexer.c ****         } else {
 416:libscpi/src/lexer.c ****             token->type = SCPI_TOKEN_COMMON_PROGRAM_HEADER;
 417:libscpi/src/lexer.c ****         }
 418:libscpi/src/lexer.c ****     } else if (res <= SKIP_INCOMPLETE) {
 419:libscpi/src/lexer.c ****         token->type = SCPI_TOKEN_INCOMPLETE_COMMON_PROGRAM_HEADER;
 420:libscpi/src/lexer.c ****     } else if (res == SKIP_NONE) {
 421:libscpi/src/lexer.c ****         res = skipCompoundProgramHeader(state);
 422:libscpi/src/lexer.c **** 
 423:libscpi/src/lexer.c ****         if (res >= SKIP_OK) {
 424:libscpi/src/lexer.c ****             if (skipChr(state, '?') >= SKIP_OK) {
 425:libscpi/src/lexer.c ****                 token->type = SCPI_TOKEN_COMPOUND_QUERY_PROGRAM_HEADER;
 426:libscpi/src/lexer.c ****             } else {
 427:libscpi/src/lexer.c ****                 token->type = SCPI_TOKEN_COMPOUND_PROGRAM_HEADER;
 428:libscpi/src/lexer.c ****             }
 429:libscpi/src/lexer.c ****         } else if (res <= SKIP_INCOMPLETE) {
 430:libscpi/src/lexer.c ****             token->type = SCPI_TOKEN_INCOMPLETE_COMPOUND_PROGRAM_HEADER;
 431:libscpi/src/lexer.c ****         }
 432:libscpi/src/lexer.c ****     }
 433:libscpi/src/lexer.c **** 
 434:libscpi/src/lexer.c ****     if (token->type != SCPI_TOKEN_UNKNOWN) {
 435:libscpi/src/lexer.c ****         token->len = state->pos - token->ptr;
 436:libscpi/src/lexer.c ****     } else {
 437:libscpi/src/lexer.c ****         token->len = 0;
 438:libscpi/src/lexer.c ****         state->pos = token->ptr;
 439:libscpi/src/lexer.c ****     }
 440:libscpi/src/lexer.c **** 
 441:libscpi/src/lexer.c ****     return token->len;
 442:libscpi/src/lexer.c **** }
 443:libscpi/src/lexer.c **** 
 444:libscpi/src/lexer.c **** /* 7.7.1 <CHARACTER PROGRAM DATA> */
 445:libscpi/src/lexer.c **** 
 446:libscpi/src/lexer.c **** /**
 447:libscpi/src/lexer.c ****  * Detect token "Character program data"
 448:libscpi/src/lexer.c ****  * @param state
 449:libscpi/src/lexer.c ****  * @param token
 450:libscpi/src/lexer.c ****  * @return 
 451:libscpi/src/lexer.c ****  */
 452:libscpi/src/lexer.c **** int scpiLex_CharacterProgramData(lex_state_t * state, scpi_token_t * token) {
 453:libscpi/src/lexer.c ****     token->ptr = state->pos;
 454:libscpi/src/lexer.c **** 
 455:libscpi/src/lexer.c ****     if (!iseos(state) && isalpha((uint8_t)(state->pos[0]))) {
 456:libscpi/src/lexer.c ****         state->pos++;
 457:libscpi/src/lexer.c ****         while (!iseos(state) && (isalnum((uint8_t)(state->pos[0])) || ischr(state, '_'))) {
 458:libscpi/src/lexer.c ****             state->pos++;
 459:libscpi/src/lexer.c ****         }
 460:libscpi/src/lexer.c ****     }
 461:libscpi/src/lexer.c **** 
 462:libscpi/src/lexer.c ****     token->len = state->pos - token->ptr;
 463:libscpi/src/lexer.c ****     if (token->len > 0) {
 464:libscpi/src/lexer.c ****         token->type = SCPI_TOKEN_PROGRAM_MNEMONIC;
 465:libscpi/src/lexer.c ****     } else {
 466:libscpi/src/lexer.c ****         token->type = SCPI_TOKEN_UNKNOWN;
 467:libscpi/src/lexer.c ****     }
ARM GAS  /tmp/ccEnAiLD.s 			page 33


 468:libscpi/src/lexer.c **** 
 469:libscpi/src/lexer.c ****     return token->len;
 470:libscpi/src/lexer.c **** }
 471:libscpi/src/lexer.c **** 
 472:libscpi/src/lexer.c **** /* 7.7.2 <DECIMAL NUMERIC PROGRAM DATA> */
 473:libscpi/src/lexer.c **** static int skipMantisa(lex_state_t * state) {
 1337              		.loc 1 473 45 is_stmt 1 view -0
 1338              		.cfi_startproc
 1339              		@ args = 0, pretend = 0, frame = 0
 1340              		@ frame_needed = 0, uses_anonymous_args = 0
 1341              		.loc 1 473 45 is_stmt 0 view .LVU323
 1342 0000 70B5     		push	{r4, r5, r6, lr}
 1343              	.LCFI12:
 1344              		.cfi_def_cfa_offset 16
 1345              		.cfi_offset 4, -16
 1346              		.cfi_offset 5, -12
 1347              		.cfi_offset 6, -8
 1348              		.cfi_offset 14, -4
 1349 0002 0400     		movs	r4, r0
 474:libscpi/src/lexer.c ****     int someNumbers = 0;
 1350              		.loc 1 474 5 is_stmt 1 view .LVU324
 1351              	.LVL131:
 475:libscpi/src/lexer.c **** 
 476:libscpi/src/lexer.c ****     skipPlusmn(state);
 1352              		.loc 1 476 5 view .LVU325
 1353 0004 FFF7FEFF 		bl	skipPlusmn
 1354              	.LVL132:
 477:libscpi/src/lexer.c **** 
 478:libscpi/src/lexer.c ****     someNumbers += skipNumbers(state);
 1355              		.loc 1 478 5 view .LVU326
 1356              		.loc 1 478 20 is_stmt 0 view .LVU327
 1357 0008 2000     		movs	r0, r4
 1358 000a FFF7FEFF 		bl	skipNumbers
 1359              	.LVL133:
 1360 000e 0500     		movs	r5, r0
 1361              	.LVL134:
 479:libscpi/src/lexer.c **** 
 480:libscpi/src/lexer.c ****     if (skipChr(state, '.')) {
 1362              		.loc 1 480 5 is_stmt 1 view .LVU328
 1363              		.loc 1 480 9 is_stmt 0 view .LVU329
 1364 0010 2E21     		movs	r1, #46
 1365 0012 2000     		movs	r0, r4
 1366              	.LVL135:
 1367              		.loc 1 480 9 view .LVU330
 1368 0014 FFF7FEFF 		bl	skipChr
 1369              	.LVL136:
 1370              		.loc 1 480 8 view .LVU331
 1371 0018 0028     		cmp	r0, #0
 1372 001a 01D1     		bne	.L104
 1373              	.L102:
 481:libscpi/src/lexer.c ****         someNumbers += skipNumbers(state);
 482:libscpi/src/lexer.c ****     }
 483:libscpi/src/lexer.c **** 
 484:libscpi/src/lexer.c ****     return someNumbers;
 485:libscpi/src/lexer.c **** }
 1374              		.loc 1 485 1 view .LVU332
 1375 001c 2800     		movs	r0, r5
ARM GAS  /tmp/ccEnAiLD.s 			page 34


 1376              		@ sp needed
 1377              	.LVL137:
 1378              	.LVL138:
 1379              		.loc 1 485 1 view .LVU333
 1380 001e 70BD     		pop	{r4, r5, r6, pc}
 1381              	.LVL139:
 1382              	.L104:
 481:libscpi/src/lexer.c ****         someNumbers += skipNumbers(state);
 1383              		.loc 1 481 9 is_stmt 1 view .LVU334
 481:libscpi/src/lexer.c ****         someNumbers += skipNumbers(state);
 1384              		.loc 1 481 24 is_stmt 0 view .LVU335
 1385 0020 2000     		movs	r0, r4
 1386 0022 FFF7FEFF 		bl	skipNumbers
 1387              	.LVL140:
 481:libscpi/src/lexer.c ****         someNumbers += skipNumbers(state);
 1388              		.loc 1 481 21 view .LVU336
 1389 0026 2D18     		adds	r5, r5, r0
 1390              	.LVL141:
 484:libscpi/src/lexer.c **** }
 1391              		.loc 1 484 5 is_stmt 1 view .LVU337
 484:libscpi/src/lexer.c **** }
 1392              		.loc 1 484 12 is_stmt 0 view .LVU338
 1393 0028 F8E7     		b	.L102
 1394              		.cfi_endproc
 1395              	.LFE29:
 1397              		.section	.text.skipExponent,"ax",%progbits
 1398              		.align	1
 1399              		.syntax unified
 1400              		.code	16
 1401              		.thumb_func
 1402              		.fpu softvfp
 1404              	skipExponent:
 1405              	.LVL142:
 1406              	.LFB30:
 486:libscpi/src/lexer.c **** 
 487:libscpi/src/lexer.c **** static int skipExponent(lex_state_t * state) {
 1407              		.loc 1 487 46 is_stmt 1 view -0
 1408              		.cfi_startproc
 1409              		@ args = 0, pretend = 0, frame = 0
 1410              		@ frame_needed = 0, uses_anonymous_args = 0
 1411              		.loc 1 487 46 is_stmt 0 view .LVU340
 1412 0000 70B5     		push	{r4, r5, r6, lr}
 1413              	.LCFI13:
 1414              		.cfi_def_cfa_offset 16
 1415              		.cfi_offset 4, -16
 1416              		.cfi_offset 5, -12
 1417              		.cfi_offset 6, -8
 1418              		.cfi_offset 14, -4
 1419 0002 0400     		movs	r4, r0
 488:libscpi/src/lexer.c ****     int someNumbers = 0;
 1420              		.loc 1 488 5 is_stmt 1 view .LVU341
 1421              	.LVL143:
 489:libscpi/src/lexer.c **** 
 490:libscpi/src/lexer.c ****     if (!iseos(state) && isE(state->pos[0])) {
 1422              		.loc 1 490 5 view .LVU342
 1423              		.loc 1 490 10 is_stmt 0 view .LVU343
 1424 0004 FFF7FEFF 		bl	iseos
ARM GAS  /tmp/ccEnAiLD.s 			page 35


 1425              	.LVL144:
 1426              		.loc 1 490 8 view .LVU344
 1427 0008 0028     		cmp	r0, #0
 1428 000a 11D1     		bne	.L107
 1429              		.loc 1 490 35 discriminator 1 view .LVU345
 1430 000c 6568     		ldr	r5, [r4, #4]
 1431              		.loc 1 490 40 discriminator 1 view .LVU346
 1432 000e 2878     		ldrb	r0, [r5]
 1433              		.loc 1 490 26 discriminator 1 view .LVU347
 1434 0010 FFF7FEFF 		bl	isE
 1435              	.LVL145:
 1436              		.loc 1 490 23 discriminator 1 view .LVU348
 1437 0014 0028     		cmp	r0, #0
 1438 0016 0CD0     		beq	.L105
 491:libscpi/src/lexer.c ****         state->pos++;
 1439              		.loc 1 491 9 is_stmt 1 view .LVU349
 1440              		.loc 1 491 19 is_stmt 0 view .LVU350
 1441 0018 0135     		adds	r5, r5, #1
 1442 001a 6560     		str	r5, [r4, #4]
 492:libscpi/src/lexer.c **** 
 493:libscpi/src/lexer.c ****         skipWs(state);
 1443              		.loc 1 493 9 is_stmt 1 view .LVU351
 1444 001c 2000     		movs	r0, r4
 1445 001e FFF7FEFF 		bl	skipWs
 1446              	.LVL146:
 494:libscpi/src/lexer.c **** 
 495:libscpi/src/lexer.c ****         skipPlusmn(state);
 1447              		.loc 1 495 9 view .LVU352
 1448 0022 2000     		movs	r0, r4
 1449 0024 FFF7FEFF 		bl	skipPlusmn
 1450              	.LVL147:
 496:libscpi/src/lexer.c **** 
 497:libscpi/src/lexer.c ****         someNumbers = skipNumbers(state);
 1451              		.loc 1 497 9 view .LVU353
 1452              		.loc 1 497 23 is_stmt 0 view .LVU354
 1453 0028 2000     		movs	r0, r4
 1454 002a FFF7FEFF 		bl	skipNumbers
 1455              	.LVL148:
 1456              		.loc 1 497 23 view .LVU355
 1457 002e 00E0     		b	.L105
 1458              	.LVL149:
 1459              	.L107:
 488:libscpi/src/lexer.c **** 
 1460              		.loc 1 488 9 view .LVU356
 1461 0030 0020     		movs	r0, #0
 498:libscpi/src/lexer.c ****     }
 499:libscpi/src/lexer.c **** 
 500:libscpi/src/lexer.c ****     return someNumbers;
 1462              		.loc 1 500 5 is_stmt 1 view .LVU357
 1463              	.LVL150:
 1464              	.L105:
 501:libscpi/src/lexer.c **** }
 1465              		.loc 1 501 1 is_stmt 0 view .LVU358
 1466              		@ sp needed
 1467              	.LVL151:
 1468              		.loc 1 501 1 view .LVU359
 1469 0032 70BD     		pop	{r4, r5, r6, pc}
ARM GAS  /tmp/ccEnAiLD.s 			page 36


 1470              		.cfi_endproc
 1471              	.LFE30:
 1473              		.section	.text.skipHexNum,"ax",%progbits
 1474              		.align	1
 1475              		.syntax unified
 1476              		.code	16
 1477              		.thumb_func
 1478              		.fpu softvfp
 1480              	skipHexNum:
 1481              	.LVL152:
 1482              	.LFB33:
 502:libscpi/src/lexer.c **** 
 503:libscpi/src/lexer.c **** /**
 504:libscpi/src/lexer.c ****  * Detect token Decimal number
 505:libscpi/src/lexer.c ****  * @param state
 506:libscpi/src/lexer.c ****  * @param token
 507:libscpi/src/lexer.c ****  * @return 
 508:libscpi/src/lexer.c ****  */
 509:libscpi/src/lexer.c **** int scpiLex_DecimalNumericProgramData(lex_state_t * state, scpi_token_t * token) {
 510:libscpi/src/lexer.c ****     char * rollback;
 511:libscpi/src/lexer.c ****     token->ptr = state->pos;
 512:libscpi/src/lexer.c **** 
 513:libscpi/src/lexer.c ****     if (skipMantisa(state)) {
 514:libscpi/src/lexer.c ****         rollback = state->pos;
 515:libscpi/src/lexer.c ****         skipWs(state);
 516:libscpi/src/lexer.c ****         if (!skipExponent(state)) {
 517:libscpi/src/lexer.c ****             state->pos = rollback;
 518:libscpi/src/lexer.c ****         }
 519:libscpi/src/lexer.c ****     } else {
 520:libscpi/src/lexer.c ****         state->pos = token->ptr;
 521:libscpi/src/lexer.c ****     }
 522:libscpi/src/lexer.c **** 
 523:libscpi/src/lexer.c ****     token->len = state->pos - token->ptr;
 524:libscpi/src/lexer.c ****     if (token->len > 0) {
 525:libscpi/src/lexer.c ****         token->type = SCPI_TOKEN_DECIMAL_NUMERIC_PROGRAM_DATA;
 526:libscpi/src/lexer.c ****     } else {
 527:libscpi/src/lexer.c ****         token->type = SCPI_TOKEN_UNKNOWN;
 528:libscpi/src/lexer.c ****     }
 529:libscpi/src/lexer.c **** 
 530:libscpi/src/lexer.c ****     return token->len;
 531:libscpi/src/lexer.c **** }
 532:libscpi/src/lexer.c **** 
 533:libscpi/src/lexer.c **** /* 7.7.3 <SUFFIX PROGRAM DATA> */
 534:libscpi/src/lexer.c **** int scpiLex_SuffixProgramData(lex_state_t * state, scpi_token_t * token) {
 535:libscpi/src/lexer.c ****     token->ptr = state->pos;
 536:libscpi/src/lexer.c **** 
 537:libscpi/src/lexer.c ****     skipChr(state, '/');
 538:libscpi/src/lexer.c **** 
 539:libscpi/src/lexer.c ****     /* TODO: strict parsing  : SLASH? (ALPHA+ (MINUS? DIGIT)?) ((SLASH | DOT) (ALPHA+ (MINUS? DIGIT
 540:libscpi/src/lexer.c ****     if (skipAlpha(state)) {
 541:libscpi/src/lexer.c ****         skipChr(state, '-');
 542:libscpi/src/lexer.c ****         skipDigit(state);
 543:libscpi/src/lexer.c **** 
 544:libscpi/src/lexer.c ****         while (skipSlashDot(state)) {
 545:libscpi/src/lexer.c ****             skipAlpha(state);
 546:libscpi/src/lexer.c ****             skipChr(state, '-');
 547:libscpi/src/lexer.c ****             skipDigit(state);
ARM GAS  /tmp/ccEnAiLD.s 			page 37


 548:libscpi/src/lexer.c ****         }
 549:libscpi/src/lexer.c ****     }
 550:libscpi/src/lexer.c **** 
 551:libscpi/src/lexer.c ****     token->len = state->pos - token->ptr;
 552:libscpi/src/lexer.c ****     if ((token->len > 0)) {
 553:libscpi/src/lexer.c ****         token->type = SCPI_TOKEN_SUFFIX_PROGRAM_DATA;
 554:libscpi/src/lexer.c ****     } else {
 555:libscpi/src/lexer.c ****         token->type = SCPI_TOKEN_UNKNOWN;
 556:libscpi/src/lexer.c ****         state->pos = token->ptr;
 557:libscpi/src/lexer.c ****         token->len = 0;
 558:libscpi/src/lexer.c ****     }
 559:libscpi/src/lexer.c **** 
 560:libscpi/src/lexer.c ****     return token->len;
 561:libscpi/src/lexer.c **** }
 562:libscpi/src/lexer.c **** 
 563:libscpi/src/lexer.c **** /* 7.7.4 <NONDECIMAL NUMERIC PROGRAM DATA> */
 564:libscpi/src/lexer.c **** static int skipHexNum(lex_state_t * state) {
 1483              		.loc 1 564 44 is_stmt 1 view -0
 1484              		.cfi_startproc
 1485              		@ args = 0, pretend = 0, frame = 0
 1486              		@ frame_needed = 0, uses_anonymous_args = 0
 1487              		.loc 1 564 44 is_stmt 0 view .LVU361
 1488 0000 70B5     		push	{r4, r5, r6, lr}
 1489              	.LCFI14:
 1490              		.cfi_def_cfa_offset 16
 1491              		.cfi_offset 4, -16
 1492              		.cfi_offset 5, -12
 1493              		.cfi_offset 6, -8
 1494              		.cfi_offset 14, -4
 1495 0002 0400     		movs	r4, r0
 565:libscpi/src/lexer.c ****     int someNumbers = 0;
 1496              		.loc 1 565 5 is_stmt 1 view .LVU362
 1497              	.LVL153:
 566:libscpi/src/lexer.c ****     while (!iseos(state) && isxdigit((uint8_t)(state->pos[0]))) {
 1498              		.loc 1 566 5 view .LVU363
 565:libscpi/src/lexer.c ****     int someNumbers = 0;
 1499              		.loc 1 565 9 is_stmt 0 view .LVU364
 1500 0004 0025     		movs	r5, #0
 1501              	.LVL154:
 1502              	.L109:
 1503              		.loc 1 566 11 is_stmt 1 view .LVU365
 1504              		.loc 1 566 13 is_stmt 0 view .LVU366
 1505 0006 2000     		movs	r0, r4
 1506 0008 FFF7FEFF 		bl	iseos
 1507              	.LVL155:
 1508              		.loc 1 566 11 view .LVU367
 1509 000c 0028     		cmp	r0, #0
 1510 000e 0AD1     		bne	.L108
 1511              		.loc 1 566 29 discriminator 1 view .LVU368
 1512 0010 6368     		ldr	r3, [r4, #4]
 1513 0012 1A78     		ldrb	r2, [r3]
 1514 0014 0549     		ldr	r1, .L112
 1515 0016 8A5C     		ldrb	r2, [r1, r2]
 1516              		.loc 1 566 26 discriminator 1 view .LVU369
 1517 0018 4421     		movs	r1, #68
 1518 001a 1142     		tst	r1, r2
 1519 001c 03D0     		beq	.L108
ARM GAS  /tmp/ccEnAiLD.s 			page 38


 567:libscpi/src/lexer.c ****         state->pos++;
 1520              		.loc 1 567 9 is_stmt 1 view .LVU370
 1521              		.loc 1 567 19 is_stmt 0 view .LVU371
 1522 001e 0133     		adds	r3, r3, #1
 1523 0020 6360     		str	r3, [r4, #4]
 568:libscpi/src/lexer.c ****         someNumbers++;
 1524              		.loc 1 568 9 is_stmt 1 view .LVU372
 1525              		.loc 1 568 20 is_stmt 0 view .LVU373
 1526 0022 0135     		adds	r5, r5, #1
 1527              	.LVL156:
 1528              		.loc 1 568 20 view .LVU374
 1529 0024 EFE7     		b	.L109
 1530              	.L108:
 569:libscpi/src/lexer.c ****     }
 570:libscpi/src/lexer.c ****     return someNumbers;
 571:libscpi/src/lexer.c **** }
 1531              		.loc 1 571 1 view .LVU375
 1532 0026 2800     		movs	r0, r5
 1533              		@ sp needed
 1534              	.LVL157:
 1535              	.LVL158:
 1536              		.loc 1 571 1 view .LVU376
 1537 0028 70BD     		pop	{r4, r5, r6, pc}
 1538              	.L113:
 1539 002a C046     		.align	2
 1540              	.L112:
 1541 002c 01000000 		.word	_ctype_+1
 1542              		.cfi_endproc
 1543              	.LFE33:
 1545              		.section	.text.skipOctNum,"ax",%progbits
 1546              		.align	1
 1547              		.syntax unified
 1548              		.code	16
 1549              		.thumb_func
 1550              		.fpu softvfp
 1552              	skipOctNum:
 1553              	.LVL159:
 1554              	.LFB34:
 572:libscpi/src/lexer.c **** 
 573:libscpi/src/lexer.c **** static int skipOctNum(lex_state_t * state) {
 1555              		.loc 1 573 44 is_stmt 1 view -0
 1556              		.cfi_startproc
 1557              		@ args = 0, pretend = 0, frame = 0
 1558              		@ frame_needed = 0, uses_anonymous_args = 0
 1559              		.loc 1 573 44 is_stmt 0 view .LVU378
 1560 0000 70B5     		push	{r4, r5, r6, lr}
 1561              	.LCFI15:
 1562              		.cfi_def_cfa_offset 16
 1563              		.cfi_offset 4, -16
 1564              		.cfi_offset 5, -12
 1565              		.cfi_offset 6, -8
 1566              		.cfi_offset 14, -4
 1567 0002 0500     		movs	r5, r0
 574:libscpi/src/lexer.c ****     int someNumbers = 0;
 1568              		.loc 1 574 5 is_stmt 1 view .LVU379
 1569              	.LVL160:
 575:libscpi/src/lexer.c ****     while (!iseos(state) && isqdigit(state->pos[0])) {
ARM GAS  /tmp/ccEnAiLD.s 			page 39


 1570              		.loc 1 575 5 view .LVU380
 574:libscpi/src/lexer.c ****     int someNumbers = 0;
 1571              		.loc 1 574 9 is_stmt 0 view .LVU381
 1572 0004 0026     		movs	r6, #0
 1573              	.LVL161:
 1574              	.L115:
 1575              		.loc 1 575 11 is_stmt 1 view .LVU382
 1576              		.loc 1 575 13 is_stmt 0 view .LVU383
 1577 0006 2800     		movs	r0, r5
 1578 0008 FFF7FEFF 		bl	iseos
 1579              	.LVL162:
 1580              		.loc 1 575 11 view .LVU384
 1581 000c 0028     		cmp	r0, #0
 1582 000e 09D1     		bne	.L114
 1583              		.loc 1 575 43 discriminator 1 view .LVU385
 1584 0010 6C68     		ldr	r4, [r5, #4]
 1585              		.loc 1 575 48 discriminator 1 view .LVU386
 1586 0012 2078     		ldrb	r0, [r4]
 1587              		.loc 1 575 29 discriminator 1 view .LVU387
 1588 0014 FFF7FEFF 		bl	isqdigit
 1589              	.LVL163:
 1590              		.loc 1 575 26 discriminator 1 view .LVU388
 1591 0018 0028     		cmp	r0, #0
 1592 001a 03D0     		beq	.L114
 576:libscpi/src/lexer.c ****         state->pos++;
 1593              		.loc 1 576 9 is_stmt 1 view .LVU389
 1594              		.loc 1 576 19 is_stmt 0 view .LVU390
 1595 001c 0134     		adds	r4, r4, #1
 1596 001e 6C60     		str	r4, [r5, #4]
 577:libscpi/src/lexer.c ****         someNumbers++;
 1597              		.loc 1 577 9 is_stmt 1 view .LVU391
 1598              		.loc 1 577 20 is_stmt 0 view .LVU392
 1599 0020 0136     		adds	r6, r6, #1
 1600              	.LVL164:
 1601              		.loc 1 577 20 view .LVU393
 1602 0022 F0E7     		b	.L115
 1603              	.L114:
 578:libscpi/src/lexer.c ****     }
 579:libscpi/src/lexer.c ****     return someNumbers;
 580:libscpi/src/lexer.c **** }
 1604              		.loc 1 580 1 view .LVU394
 1605 0024 3000     		movs	r0, r6
 1606              		@ sp needed
 1607              	.LVL165:
 1608              	.LVL166:
 1609              		.loc 1 580 1 view .LVU395
 1610 0026 70BD     		pop	{r4, r5, r6, pc}
 1611              		.cfi_endproc
 1612              	.LFE34:
 1614              		.section	.text.skipBinNum,"ax",%progbits
 1615              		.align	1
 1616              		.syntax unified
 1617              		.code	16
 1618              		.thumb_func
 1619              		.fpu softvfp
 1621              	skipBinNum:
 1622              	.LVL167:
ARM GAS  /tmp/ccEnAiLD.s 			page 40


 1623              	.LFB35:
 581:libscpi/src/lexer.c **** 
 582:libscpi/src/lexer.c **** static int skipBinNum(lex_state_t * state) {
 1624              		.loc 1 582 44 is_stmt 1 view -0
 1625              		.cfi_startproc
 1626              		@ args = 0, pretend = 0, frame = 0
 1627              		@ frame_needed = 0, uses_anonymous_args = 0
 1628              		.loc 1 582 44 is_stmt 0 view .LVU397
 1629 0000 70B5     		push	{r4, r5, r6, lr}
 1630              	.LCFI16:
 1631              		.cfi_def_cfa_offset 16
 1632              		.cfi_offset 4, -16
 1633              		.cfi_offset 5, -12
 1634              		.cfi_offset 6, -8
 1635              		.cfi_offset 14, -4
 1636 0002 0500     		movs	r5, r0
 583:libscpi/src/lexer.c ****     int someNumbers = 0;
 1637              		.loc 1 583 5 is_stmt 1 view .LVU398
 1638              	.LVL168:
 584:libscpi/src/lexer.c ****     while (!iseos(state) && isbdigit(state->pos[0])) {
 1639              		.loc 1 584 5 view .LVU399
 583:libscpi/src/lexer.c ****     int someNumbers = 0;
 1640              		.loc 1 583 9 is_stmt 0 view .LVU400
 1641 0004 0026     		movs	r6, #0
 1642              	.LVL169:
 1643              	.L119:
 1644              		.loc 1 584 11 is_stmt 1 view .LVU401
 1645              		.loc 1 584 13 is_stmt 0 view .LVU402
 1646 0006 2800     		movs	r0, r5
 1647 0008 FFF7FEFF 		bl	iseos
 1648              	.LVL170:
 1649              		.loc 1 584 11 view .LVU403
 1650 000c 0028     		cmp	r0, #0
 1651 000e 09D1     		bne	.L118
 1652              		.loc 1 584 43 discriminator 1 view .LVU404
 1653 0010 6C68     		ldr	r4, [r5, #4]
 1654              		.loc 1 584 48 discriminator 1 view .LVU405
 1655 0012 2078     		ldrb	r0, [r4]
 1656              		.loc 1 584 29 discriminator 1 view .LVU406
 1657 0014 FFF7FEFF 		bl	isbdigit
 1658              	.LVL171:
 1659              		.loc 1 584 26 discriminator 1 view .LVU407
 1660 0018 0028     		cmp	r0, #0
 1661 001a 03D0     		beq	.L118
 585:libscpi/src/lexer.c ****         state->pos++;
 1662              		.loc 1 585 9 is_stmt 1 view .LVU408
 1663              		.loc 1 585 19 is_stmt 0 view .LVU409
 1664 001c 0134     		adds	r4, r4, #1
 1665 001e 6C60     		str	r4, [r5, #4]
 586:libscpi/src/lexer.c ****         someNumbers++;
 1666              		.loc 1 586 9 is_stmt 1 view .LVU410
 1667              		.loc 1 586 20 is_stmt 0 view .LVU411
 1668 0020 0136     		adds	r6, r6, #1
 1669              	.LVL172:
 1670              		.loc 1 586 20 view .LVU412
 1671 0022 F0E7     		b	.L119
 1672              	.L118:
ARM GAS  /tmp/ccEnAiLD.s 			page 41


 587:libscpi/src/lexer.c ****     }
 588:libscpi/src/lexer.c ****     return someNumbers;
 589:libscpi/src/lexer.c **** }
 1673              		.loc 1 589 1 view .LVU413
 1674 0024 3000     		movs	r0, r6
 1675              		@ sp needed
 1676              	.LVL173:
 1677              	.LVL174:
 1678              		.loc 1 589 1 view .LVU414
 1679 0026 70BD     		pop	{r4, r5, r6, pc}
 1680              		.cfi_endproc
 1681              	.LFE35:
 1683              		.section	.text.isascii7bit,"ax",%progbits
 1684              		.align	1
 1685              		.syntax unified
 1686              		.code	16
 1687              		.thumb_func
 1688              		.fpu softvfp
 1690              	isascii7bit:
 1691              	.LVL175:
 1692              	.LFB37:
 590:libscpi/src/lexer.c **** 
 591:libscpi/src/lexer.c **** /**
 592:libscpi/src/lexer.c ****  * Detect token nondecimal number
 593:libscpi/src/lexer.c ****  * @param state
 594:libscpi/src/lexer.c ****  * @param token
 595:libscpi/src/lexer.c ****  * @return 
 596:libscpi/src/lexer.c ****  */
 597:libscpi/src/lexer.c **** int scpiLex_NondecimalNumericData(lex_state_t * state, scpi_token_t * token) {
 598:libscpi/src/lexer.c ****     int someNumbers = 0;
 599:libscpi/src/lexer.c ****     token->ptr = state->pos;
 600:libscpi/src/lexer.c ****     if (skipChr(state, '#')) {
 601:libscpi/src/lexer.c ****         if (!iseos(state)) {
 602:libscpi/src/lexer.c ****             if (isH(state->pos[0])) {
 603:libscpi/src/lexer.c ****                 state->pos++;
 604:libscpi/src/lexer.c ****                 someNumbers = skipHexNum(state);
 605:libscpi/src/lexer.c ****                 token->type = SCPI_TOKEN_HEXNUM;
 606:libscpi/src/lexer.c ****             } else if (isQ(state->pos[0])) {
 607:libscpi/src/lexer.c ****                 state->pos++;
 608:libscpi/src/lexer.c ****                 someNumbers = skipOctNum(state);
 609:libscpi/src/lexer.c ****                 token->type = SCPI_TOKEN_OCTNUM;
 610:libscpi/src/lexer.c ****             } else if (isB(state->pos[0])) {
 611:libscpi/src/lexer.c ****                 state->pos++;
 612:libscpi/src/lexer.c ****                 someNumbers = skipBinNum(state);
 613:libscpi/src/lexer.c ****                 token->type = SCPI_TOKEN_BINNUM;
 614:libscpi/src/lexer.c ****             }
 615:libscpi/src/lexer.c ****         }
 616:libscpi/src/lexer.c ****     }
 617:libscpi/src/lexer.c **** 
 618:libscpi/src/lexer.c ****     if (someNumbers) {
 619:libscpi/src/lexer.c ****         token->ptr += 2; /* ignore number prefix */
 620:libscpi/src/lexer.c ****         token->len = state->pos - token->ptr;
 621:libscpi/src/lexer.c ****     } else {
 622:libscpi/src/lexer.c ****         token->type = SCPI_TOKEN_UNKNOWN;
 623:libscpi/src/lexer.c ****         state->pos = token->ptr;
 624:libscpi/src/lexer.c ****         token->len = 0;
 625:libscpi/src/lexer.c ****     }
ARM GAS  /tmp/ccEnAiLD.s 			page 42


 626:libscpi/src/lexer.c ****     return token->len > 0 ? token->len + 2 : 0;
 627:libscpi/src/lexer.c **** }
 628:libscpi/src/lexer.c **** 
 629:libscpi/src/lexer.c **** /* 7.7.5 <STRING PROGRAM DATA> */
 630:libscpi/src/lexer.c **** static int isascii7bit(int c) {
 1693              		.loc 1 630 31 is_stmt 1 view -0
 1694              		.cfi_startproc
 1695              		@ args = 0, pretend = 0, frame = 0
 1696              		@ frame_needed = 0, uses_anonymous_args = 0
 1697              		@ link register save eliminated.
 1698              		.loc 1 630 31 is_stmt 0 view .LVU416
 1699 0000 0300     		movs	r3, r0
 631:libscpi/src/lexer.c ****     return (c >= 0) && (c <= 0x7f);
 1700              		.loc 1 631 5 is_stmt 1 view .LVU417
 1701              		.loc 1 631 21 is_stmt 0 view .LVU418
 1702 0002 0020     		movs	r0, #0
 1703              	.LVL176:
 1704              		.loc 1 631 21 view .LVU419
 1705 0004 7F22     		movs	r2, #127
 1706 0006 9A42     		cmp	r2, r3
 1707 0008 4041     		adcs	r0, r0, r0
 632:libscpi/src/lexer.c **** }
 1708              		.loc 1 632 1 view .LVU420
 1709              		@ sp needed
 1710 000a 7047     		bx	lr
 1711              		.cfi_endproc
 1712              	.LFE37:
 1714              		.section	.text.skipQuoteProgramData,"ax",%progbits
 1715              		.align	1
 1716              		.syntax unified
 1717              		.code	16
 1718              		.thumb_func
 1719              		.fpu softvfp
 1721              	skipQuoteProgramData:
 1722              	.LVL177:
 1723              	.LFB38:
 633:libscpi/src/lexer.c **** 
 634:libscpi/src/lexer.c **** static void skipQuoteProgramData(lex_state_t * state, char quote) {
 1724              		.loc 1 634 67 is_stmt 1 view -0
 1725              		.cfi_startproc
 1726              		@ args = 0, pretend = 0, frame = 0
 1727              		@ frame_needed = 0, uses_anonymous_args = 0
 1728              		.loc 1 634 67 is_stmt 0 view .LVU422
 1729 0000 F8B5     		push	{r3, r4, r5, r6, r7, lr}
 1730              	.LCFI17:
 1731              		.cfi_def_cfa_offset 24
 1732              		.cfi_offset 3, -24
 1733              		.cfi_offset 4, -20
 1734              		.cfi_offset 5, -16
 1735              		.cfi_offset 6, -12
 1736              		.cfi_offset 7, -8
 1737              		.cfi_offset 14, -4
 1738 0002 0400     		movs	r4, r0
 1739 0004 0F00     		movs	r7, r1
 635:libscpi/src/lexer.c ****     while (!iseos(state)) {
 1740              		.loc 1 635 5 is_stmt 1 view .LVU423
 1741              		.loc 1 635 11 is_stmt 0 view .LVU424
ARM GAS  /tmp/ccEnAiLD.s 			page 43


 1742 0006 14E0     		b	.L124
 1743              	.LVL178:
 1744              	.L125:
 636:libscpi/src/lexer.c ****         if (isascii7bit(state->pos[0]) && !ischr(state, quote)) {
 637:libscpi/src/lexer.c ****             state->pos++;
 638:libscpi/src/lexer.c ****         } else if (ischr(state, quote)) {
 1745              		.loc 1 638 16 is_stmt 1 view .LVU425
 1746              		.loc 1 638 20 is_stmt 0 view .LVU426
 1747 0008 3900     		movs	r1, r7
 1748 000a 2000     		movs	r0, r4
 1749 000c FFF7FEFF 		bl	ischr
 1750              	.LVL179:
 1751              		.loc 1 638 19 view .LVU427
 1752 0010 0028     		cmp	r0, #0
 1753 0012 23D0     		beq	.L123
 639:libscpi/src/lexer.c ****             state->pos++;
 1754              		.loc 1 639 13 is_stmt 1 view .LVU428
 1755              		.loc 1 639 23 is_stmt 0 view .LVU429
 1756 0014 751C     		adds	r5, r6, #1
 1757 0016 6560     		str	r5, [r4, #4]
 640:libscpi/src/lexer.c ****             if (!iseos(state) && ischr(state, quote)) {
 1758              		.loc 1 640 13 is_stmt 1 view .LVU430
 1759              		.loc 1 640 18 is_stmt 0 view .LVU431
 1760 0018 2000     		movs	r0, r4
 1761 001a FFF7FEFF 		bl	iseos
 1762              	.LVL180:
 1763              		.loc 1 640 16 view .LVU432
 1764 001e 0028     		cmp	r0, #0
 1765 0020 1BD1     		bne	.L128
 1766              		.loc 1 640 34 discriminator 1 view .LVU433
 1767 0022 3900     		movs	r1, r7
 1768 0024 2000     		movs	r0, r4
 1769 0026 FFF7FEFF 		bl	ischr
 1770              	.LVL181:
 1771              		.loc 1 640 31 discriminator 1 view .LVU434
 1772 002a 0028     		cmp	r0, #0
 1773 002c 15D0     		beq	.L128
 641:libscpi/src/lexer.c ****                 state->pos++;
 1774              		.loc 1 641 17 is_stmt 1 view .LVU435
 1775              		.loc 1 641 27 is_stmt 0 view .LVU436
 1776 002e B51C     		adds	r5, r6, #2
 1777 0030 6560     		str	r5, [r4, #4]
 1778              	.L124:
 635:libscpi/src/lexer.c ****         if (isascii7bit(state->pos[0]) && !ischr(state, quote)) {
 1779              		.loc 1 635 11 is_stmt 1 view .LVU437
 635:libscpi/src/lexer.c ****         if (isascii7bit(state->pos[0]) && !ischr(state, quote)) {
 1780              		.loc 1 635 13 is_stmt 0 view .LVU438
 1781 0032 2000     		movs	r0, r4
 1782 0034 FFF7FEFF 		bl	iseos
 1783              	.LVL182:
 635:libscpi/src/lexer.c ****         if (isascii7bit(state->pos[0]) && !ischr(state, quote)) {
 1784              		.loc 1 635 11 view .LVU439
 1785 0038 0028     		cmp	r0, #0
 1786 003a 0FD1     		bne	.L123
 636:libscpi/src/lexer.c ****             state->pos++;
 1787              		.loc 1 636 9 is_stmt 1 view .LVU440
 636:libscpi/src/lexer.c ****             state->pos++;
ARM GAS  /tmp/ccEnAiLD.s 			page 44


 1788              		.loc 1 636 30 is_stmt 0 view .LVU441
 1789 003c 6668     		ldr	r6, [r4, #4]
 636:libscpi/src/lexer.c ****             state->pos++;
 1790              		.loc 1 636 35 view .LVU442
 1791 003e 3078     		ldrb	r0, [r6]
 636:libscpi/src/lexer.c ****             state->pos++;
 1792              		.loc 1 636 13 view .LVU443
 1793 0040 FFF7FEFF 		bl	isascii7bit
 1794              	.LVL183:
 636:libscpi/src/lexer.c ****             state->pos++;
 1795              		.loc 1 636 12 view .LVU444
 1796 0044 0028     		cmp	r0, #0
 1797 0046 DFD0     		beq	.L125
 636:libscpi/src/lexer.c ****             state->pos++;
 1798              		.loc 1 636 44 discriminator 1 view .LVU445
 1799 0048 3900     		movs	r1, r7
 1800 004a 2000     		movs	r0, r4
 1801 004c FFF7FEFF 		bl	ischr
 1802              	.LVL184:
 636:libscpi/src/lexer.c ****             state->pos++;
 1803              		.loc 1 636 40 discriminator 1 view .LVU446
 1804 0050 0028     		cmp	r0, #0
 1805 0052 D9D1     		bne	.L125
 637:libscpi/src/lexer.c ****         } else if (ischr(state, quote)) {
 1806              		.loc 1 637 13 is_stmt 1 view .LVU447
 637:libscpi/src/lexer.c ****         } else if (ischr(state, quote)) {
 1807              		.loc 1 637 23 is_stmt 0 view .LVU448
 1808 0054 0136     		adds	r6, r6, #1
 1809 0056 6660     		str	r6, [r4, #4]
 1810 0058 EBE7     		b	.L124
 1811              	.L128:
 642:libscpi/src/lexer.c ****             } else {
 643:libscpi/src/lexer.c ****                 state->pos--;
 1812              		.loc 1 643 17 is_stmt 1 view .LVU449
 1813              		.loc 1 643 27 is_stmt 0 view .LVU450
 1814 005a 6660     		str	r6, [r4, #4]
 644:libscpi/src/lexer.c ****                 break;
 1815              		.loc 1 644 17 is_stmt 1 view .LVU451
 1816              	.L123:
 645:libscpi/src/lexer.c ****             }
 646:libscpi/src/lexer.c ****         } else {
 647:libscpi/src/lexer.c ****             break;
 648:libscpi/src/lexer.c ****         }
 649:libscpi/src/lexer.c ****     }
 650:libscpi/src/lexer.c **** }
 1817              		.loc 1 650 1 is_stmt 0 view .LVU452
 1818              		@ sp needed
 1819              	.LVL185:
 1820              		.loc 1 650 1 view .LVU453
 1821 005c F8BD     		pop	{r3, r4, r5, r6, r7, pc}
 1822              		.cfi_endproc
 1823              	.LFE38:
 1825              		.section	.text.skipDoubleQuoteProgramData,"ax",%progbits
 1826              		.align	1
 1827              		.syntax unified
 1828              		.code	16
 1829              		.thumb_func
ARM GAS  /tmp/ccEnAiLD.s 			page 45


 1830              		.fpu softvfp
 1832              	skipDoubleQuoteProgramData:
 1833              	.LVL186:
 1834              	.LFB39:
 651:libscpi/src/lexer.c **** 
 652:libscpi/src/lexer.c **** static void skipDoubleQuoteProgramData(lex_state_t * state) {
 1835              		.loc 1 652 61 is_stmt 1 view -0
 1836              		.cfi_startproc
 1837              		@ args = 0, pretend = 0, frame = 0
 1838              		@ frame_needed = 0, uses_anonymous_args = 0
 1839              		.loc 1 652 61 is_stmt 0 view .LVU455
 1840 0000 10B5     		push	{r4, lr}
 1841              	.LCFI18:
 1842              		.cfi_def_cfa_offset 8
 1843              		.cfi_offset 4, -8
 1844              		.cfi_offset 14, -4
 653:libscpi/src/lexer.c ****     skipQuoteProgramData(state, '"');
 1845              		.loc 1 653 5 is_stmt 1 view .LVU456
 1846 0002 2221     		movs	r1, #34
 1847 0004 FFF7FEFF 		bl	skipQuoteProgramData
 1848              	.LVL187:
 654:libscpi/src/lexer.c **** }
 1849              		.loc 1 654 1 is_stmt 0 view .LVU457
 1850              		@ sp needed
 1851 0008 10BD     		pop	{r4, pc}
 1852              		.cfi_endproc
 1853              	.LFE39:
 1855              		.section	.text.skipSingleQuoteProgramData,"ax",%progbits
 1856              		.align	1
 1857              		.syntax unified
 1858              		.code	16
 1859              		.thumb_func
 1860              		.fpu softvfp
 1862              	skipSingleQuoteProgramData:
 1863              	.LVL188:
 1864              	.LFB40:
 655:libscpi/src/lexer.c **** 
 656:libscpi/src/lexer.c **** static void skipSingleQuoteProgramData(lex_state_t * state) {
 1865              		.loc 1 656 61 is_stmt 1 view -0
 1866              		.cfi_startproc
 1867              		@ args = 0, pretend = 0, frame = 0
 1868              		@ frame_needed = 0, uses_anonymous_args = 0
 1869              		.loc 1 656 61 is_stmt 0 view .LVU459
 1870 0000 10B5     		push	{r4, lr}
 1871              	.LCFI19:
 1872              		.cfi_def_cfa_offset 8
 1873              		.cfi_offset 4, -8
 1874              		.cfi_offset 14, -4
 657:libscpi/src/lexer.c ****     skipQuoteProgramData(state, '\'');
 1875              		.loc 1 657 5 is_stmt 1 view .LVU460
 1876 0002 2721     		movs	r1, #39
 1877 0004 FFF7FEFF 		bl	skipQuoteProgramData
 1878              	.LVL189:
 658:libscpi/src/lexer.c **** }
 1879              		.loc 1 658 1 is_stmt 0 view .LVU461
 1880              		@ sp needed
 1881 0008 10BD     		pop	{r4, pc}
ARM GAS  /tmp/ccEnAiLD.s 			page 46


 1882              		.cfi_endproc
 1883              	.LFE40:
 1885              		.section	.text.isNonzeroDigit,"ax",%progbits
 1886              		.align	1
 1887              		.syntax unified
 1888              		.code	16
 1889              		.thumb_func
 1890              		.fpu softvfp
 1892              	isNonzeroDigit:
 1893              	.LVL190:
 1894              	.LFB42:
 659:libscpi/src/lexer.c **** 
 660:libscpi/src/lexer.c **** /**
 661:libscpi/src/lexer.c ****  * Detect token String data
 662:libscpi/src/lexer.c ****  * @param state
 663:libscpi/src/lexer.c ****  * @param token
 664:libscpi/src/lexer.c ****  * @return 
 665:libscpi/src/lexer.c ****  */
 666:libscpi/src/lexer.c **** int scpiLex_StringProgramData(lex_state_t * state, scpi_token_t * token) {
 667:libscpi/src/lexer.c ****     token->ptr = state->pos;
 668:libscpi/src/lexer.c **** 
 669:libscpi/src/lexer.c ****     if (!iseos(state)) {
 670:libscpi/src/lexer.c ****         if (ischr(state, '"')) {
 671:libscpi/src/lexer.c ****             state->pos++;
 672:libscpi/src/lexer.c ****             token->type = SCPI_TOKEN_DOUBLE_QUOTE_PROGRAM_DATA;
 673:libscpi/src/lexer.c ****             skipDoubleQuoteProgramData(state);
 674:libscpi/src/lexer.c ****             if (!iseos(state) && ischr(state, '"')) {
 675:libscpi/src/lexer.c ****                 state->pos++;
 676:libscpi/src/lexer.c ****                 token->len = state->pos - token->ptr;
 677:libscpi/src/lexer.c ****             } else {
 678:libscpi/src/lexer.c ****                 state->pos = token->ptr;
 679:libscpi/src/lexer.c ****             }
 680:libscpi/src/lexer.c ****         } else if (ischr(state, '\'')) {
 681:libscpi/src/lexer.c ****             state->pos++;
 682:libscpi/src/lexer.c ****             token->type = SCPI_TOKEN_SINGLE_QUOTE_PROGRAM_DATA;
 683:libscpi/src/lexer.c ****             skipSingleQuoteProgramData(state);
 684:libscpi/src/lexer.c ****             if (!iseos(state) && ischr(state, '\'')) {
 685:libscpi/src/lexer.c ****                 state->pos++;
 686:libscpi/src/lexer.c ****                 token->len = state->pos - token->ptr;
 687:libscpi/src/lexer.c ****             } else {
 688:libscpi/src/lexer.c ****                 state->pos = token->ptr;
 689:libscpi/src/lexer.c ****             }
 690:libscpi/src/lexer.c ****         }
 691:libscpi/src/lexer.c ****     }
 692:libscpi/src/lexer.c **** 
 693:libscpi/src/lexer.c ****     token->len = state->pos - token->ptr;
 694:libscpi/src/lexer.c **** 
 695:libscpi/src/lexer.c ****     if ((token->len > 0)) {
 696:libscpi/src/lexer.c ****         /* token->ptr++;
 697:libscpi/src/lexer.c ****          * token->len -= 2; */
 698:libscpi/src/lexer.c ****     } else {
 699:libscpi/src/lexer.c ****         token->type = SCPI_TOKEN_UNKNOWN;
 700:libscpi/src/lexer.c ****         state->pos = token->ptr;
 701:libscpi/src/lexer.c ****         token->len = 0;
 702:libscpi/src/lexer.c ****     }
 703:libscpi/src/lexer.c **** 
 704:libscpi/src/lexer.c ****     return token->len > 0 ? token->len : 0;
ARM GAS  /tmp/ccEnAiLD.s 			page 47


 705:libscpi/src/lexer.c **** }
 706:libscpi/src/lexer.c **** 
 707:libscpi/src/lexer.c **** /* 7.7.6 <ARBITRARY BLOCK PROGRAM DATA> */
 708:libscpi/src/lexer.c **** static int isNonzeroDigit(int c) {
 1895              		.loc 1 708 34 is_stmt 1 view -0
 1896              		.cfi_startproc
 1897              		@ args = 0, pretend = 0, frame = 0
 1898              		@ frame_needed = 0, uses_anonymous_args = 0
 1899              		@ link register save eliminated.
 709:libscpi/src/lexer.c ****     return isdigit(c) && (c != '0');
 1900              		.loc 1 709 5 view .LVU463
 1901              		.loc 1 709 12 is_stmt 0 view .LVU464
 1902 0000 054B     		ldr	r3, .L137
 1903 0002 1B5C     		ldrb	r3, [r3, r0]
 1904              		.loc 1 709 23 view .LVU465
 1905 0004 5B07     		lsls	r3, r3, #29
 1906 0006 05D5     		bpl	.L134
 1907              		.loc 1 709 23 discriminator 1 view .LVU466
 1908 0008 3028     		cmp	r0, #48
 1909 000a 01D0     		beq	.L136
 1910              		.loc 1 709 23 view .LVU467
 1911 000c 0120     		movs	r0, #1
 1912              	.LVL191:
 1913              		.loc 1 709 23 view .LVU468
 1914 000e 02E0     		b	.L132
 1915              	.LVL192:
 1916              	.L136:
 1917              		.loc 1 709 23 view .LVU469
 1918 0010 0020     		movs	r0, #0
 1919              	.LVL193:
 1920              		.loc 1 709 23 view .LVU470
 1921 0012 00E0     		b	.L132
 1922              	.LVL194:
 1923              	.L134:
 1924              		.loc 1 709 23 view .LVU471
 1925 0014 0020     		movs	r0, #0
 1926              	.LVL195:
 1927              	.L132:
 710:libscpi/src/lexer.c **** }
 1928              		.loc 1 710 1 view .LVU472
 1929              		@ sp needed
 1930 0016 7047     		bx	lr
 1931              	.L138:
 1932              		.align	2
 1933              	.L137:
 1934 0018 01000000 		.word	_ctype_+1
 1935              		.cfi_endproc
 1936              	.LFE42:
 1938              		.section	.text.isProgramExpression,"ax",%progbits
 1939              		.align	1
 1940              		.syntax unified
 1941              		.code	16
 1942              		.thumb_func
 1943              		.fpu softvfp
 1945              	isProgramExpression:
 1946              	.LVL196:
 1947              	.LFB44:
ARM GAS  /tmp/ccEnAiLD.s 			page 48


 711:libscpi/src/lexer.c **** 
 712:libscpi/src/lexer.c **** /**
 713:libscpi/src/lexer.c ****  * Detect token Block Data
 714:libscpi/src/lexer.c ****  * @param state
 715:libscpi/src/lexer.c ****  * @param token
 716:libscpi/src/lexer.c ****  * @return 
 717:libscpi/src/lexer.c ****  */
 718:libscpi/src/lexer.c **** int scpiLex_ArbitraryBlockProgramData(lex_state_t * state, scpi_token_t * token) {
 719:libscpi/src/lexer.c ****     int i;
 720:libscpi/src/lexer.c ****     int arbitraryBlockLength = 0;
 721:libscpi/src/lexer.c ****     const char * ptr = state->pos;
 722:libscpi/src/lexer.c ****     int validData = -1;
 723:libscpi/src/lexer.c ****     token->ptr = state->pos;
 724:libscpi/src/lexer.c **** 
 725:libscpi/src/lexer.c ****     if (skipChr(state, '#')) {
 726:libscpi/src/lexer.c ****         if (!iseos(state) && isNonzeroDigit(state->pos[0])) {
 727:libscpi/src/lexer.c ****             /* Get number of digits */
 728:libscpi/src/lexer.c ****             i = state->pos[0] - '0';
 729:libscpi/src/lexer.c ****             state->pos++;
 730:libscpi/src/lexer.c **** 
 731:libscpi/src/lexer.c ****             for (; i > 0; i--) {
 732:libscpi/src/lexer.c ****                 if (!iseos(state) && isdigit((uint8_t)(state->pos[0]))) {
 733:libscpi/src/lexer.c ****                     arbitraryBlockLength *= 10;
 734:libscpi/src/lexer.c ****                     arbitraryBlockLength += (state->pos[0] - '0');
 735:libscpi/src/lexer.c ****                     state->pos++;
 736:libscpi/src/lexer.c ****                 } else {
 737:libscpi/src/lexer.c ****                     break;
 738:libscpi/src/lexer.c ****                 }
 739:libscpi/src/lexer.c ****             }
 740:libscpi/src/lexer.c **** 
 741:libscpi/src/lexer.c ****             if (i == 0) {
 742:libscpi/src/lexer.c ****                 state->pos += arbitraryBlockLength;
 743:libscpi/src/lexer.c ****                 if ((state->buffer + state->len) >= (state->pos)) {
 744:libscpi/src/lexer.c ****                     token->ptr = state->pos - arbitraryBlockLength;
 745:libscpi/src/lexer.c ****                     token->len = arbitraryBlockLength;
 746:libscpi/src/lexer.c ****                     validData = 1;
 747:libscpi/src/lexer.c ****                 } else {
 748:libscpi/src/lexer.c ****                     validData = 0;
 749:libscpi/src/lexer.c ****                 }
 750:libscpi/src/lexer.c ****             } else if (iseos(state)) {
 751:libscpi/src/lexer.c ****                 validData = 0;
 752:libscpi/src/lexer.c ****             }
 753:libscpi/src/lexer.c ****         } else if (iseos(state)) {
 754:libscpi/src/lexer.c ****             validData = 0;
 755:libscpi/src/lexer.c ****         }
 756:libscpi/src/lexer.c ****     }
 757:libscpi/src/lexer.c **** 
 758:libscpi/src/lexer.c ****     if (validData == 1) {
 759:libscpi/src/lexer.c ****         /* valid */
 760:libscpi/src/lexer.c ****         token->type = SCPI_TOKEN_ARBITRARY_BLOCK_PROGRAM_DATA;
 761:libscpi/src/lexer.c ****     } else if (validData == 0) {
 762:libscpi/src/lexer.c ****         /* incomplete */
 763:libscpi/src/lexer.c ****         token->type = SCPI_TOKEN_UNKNOWN;
 764:libscpi/src/lexer.c ****         token->len = 0;
 765:libscpi/src/lexer.c ****         state->pos = state->buffer + state->len;
 766:libscpi/src/lexer.c ****     } else {
 767:libscpi/src/lexer.c ****         /* invalid */
ARM GAS  /tmp/ccEnAiLD.s 			page 49


 768:libscpi/src/lexer.c ****         token->type = SCPI_TOKEN_UNKNOWN;
 769:libscpi/src/lexer.c ****         state->pos = token->ptr;
 770:libscpi/src/lexer.c ****         token->len = 0;
 771:libscpi/src/lexer.c ****     }
 772:libscpi/src/lexer.c **** 
 773:libscpi/src/lexer.c ****     return token->len + (token->ptr - ptr);
 774:libscpi/src/lexer.c **** }
 775:libscpi/src/lexer.c **** 
 776:libscpi/src/lexer.c **** /* 7.7.7 <EXPRESSION PROGRAM DATA> */
 777:libscpi/src/lexer.c **** static int isProgramExpression(int c) {
 1948              		.loc 1 777 39 is_stmt 1 view -0
 1949              		.cfi_startproc
 1950              		@ args = 0, pretend = 0, frame = 0
 1951              		@ frame_needed = 0, uses_anonymous_args = 0
 1952              		@ link register save eliminated.
 778:libscpi/src/lexer.c ****     if ((c >= 0x20) && (c <= 0x7e)) {
 1953              		.loc 1 778 5 view .LVU474
 1954              		.loc 1 778 21 is_stmt 0 view .LVU475
 1955 0000 0300     		movs	r3, r0
 1956 0002 203B     		subs	r3, r3, #32
 1957              		.loc 1 778 8 view .LVU476
 1958 0004 5E2B     		cmp	r3, #94
 1959 0006 0CD8     		bhi	.L141
 779:libscpi/src/lexer.c ****         if ((c != '"')
 1960              		.loc 1 779 9 is_stmt 1 view .LVU477
 780:libscpi/src/lexer.c ****                 && (c != '#')
 1961              		.loc 1 780 17 is_stmt 0 view .LVU478
 1962 0008 023B     		subs	r3, r3, #2
 779:libscpi/src/lexer.c ****         if ((c != '"')
 1963              		.loc 1 779 12 view .LVU479
 1964 000a 012B     		cmp	r3, #1
 1965 000c 0BD9     		bls	.L142
 781:libscpi/src/lexer.c ****                 && (c != '\'')
 1966              		.loc 1 781 17 view .LVU480
 1967 000e 2728     		cmp	r0, #39
 1968 0010 0BD0     		beq	.L143
 782:libscpi/src/lexer.c ****                 && (c != '(')
 1969              		.loc 1 782 17 view .LVU481
 1970 0012 2828     		cmp	r0, #40
 1971 0014 0BD0     		beq	.L144
 783:libscpi/src/lexer.c ****                 && (c != ')')
 1972              		.loc 1 783 17 view .LVU482
 1973 0016 2928     		cmp	r0, #41
 1974 0018 0BD0     		beq	.L145
 784:libscpi/src/lexer.c ****                 && (c != ';')) {
 1975              		.loc 1 784 17 view .LVU483
 1976 001a 3B28     		cmp	r0, #59
 1977 001c 0BD1     		bne	.L146
 785:libscpi/src/lexer.c ****             return 1;
 786:libscpi/src/lexer.c ****         }
 787:libscpi/src/lexer.c ****     }
 788:libscpi/src/lexer.c **** 
 789:libscpi/src/lexer.c ****     return 0;
 1978              		.loc 1 789 12 view .LVU484
 1979 001e 0020     		movs	r0, #0
 1980              	.LVL197:
 1981              		.loc 1 789 12 view .LVU485
ARM GAS  /tmp/ccEnAiLD.s 			page 50


 1982 0020 00E0     		b	.L139
 1983              	.LVL198:
 1984              	.L141:
 1985              		.loc 1 789 12 view .LVU486
 1986 0022 0020     		movs	r0, #0
 1987              	.LVL199:
 1988              	.L139:
 790:libscpi/src/lexer.c **** }
 1989              		.loc 1 790 1 view .LVU487
 1990              		@ sp needed
 1991 0024 7047     		bx	lr
 1992              	.LVL200:
 1993              	.L142:
 789:libscpi/src/lexer.c **** }
 1994              		.loc 1 789 12 view .LVU488
 1995 0026 0020     		movs	r0, #0
 1996              	.LVL201:
 789:libscpi/src/lexer.c **** }
 1997              		.loc 1 789 12 view .LVU489
 1998 0028 FCE7     		b	.L139
 1999              	.LVL202:
 2000              	.L143:
 789:libscpi/src/lexer.c **** }
 2001              		.loc 1 789 12 view .LVU490
 2002 002a 0020     		movs	r0, #0
 2003              	.LVL203:
 789:libscpi/src/lexer.c **** }
 2004              		.loc 1 789 12 view .LVU491
 2005 002c FAE7     		b	.L139
 2006              	.LVL204:
 2007              	.L144:
 789:libscpi/src/lexer.c **** }
 2008              		.loc 1 789 12 view .LVU492
 2009 002e 0020     		movs	r0, #0
 2010              	.LVL205:
 789:libscpi/src/lexer.c **** }
 2011              		.loc 1 789 12 view .LVU493
 2012 0030 F8E7     		b	.L139
 2013              	.LVL206:
 2014              	.L145:
 789:libscpi/src/lexer.c **** }
 2015              		.loc 1 789 12 view .LVU494
 2016 0032 0020     		movs	r0, #0
 2017              	.LVL207:
 789:libscpi/src/lexer.c **** }
 2018              		.loc 1 789 12 view .LVU495
 2019 0034 F6E7     		b	.L139
 2020              	.LVL208:
 2021              	.L146:
 785:libscpi/src/lexer.c ****             return 1;
 2022              		.loc 1 785 20 view .LVU496
 2023 0036 0120     		movs	r0, #1
 2024              	.LVL209:
 785:libscpi/src/lexer.c ****             return 1;
 2025              		.loc 1 785 20 view .LVU497
 2026 0038 F4E7     		b	.L139
 2027              		.cfi_endproc
ARM GAS  /tmp/ccEnAiLD.s 			page 51


 2028              	.LFE44:
 2030              		.section	.text.skipProgramExpression,"ax",%progbits
 2031              		.align	1
 2032              		.syntax unified
 2033              		.code	16
 2034              		.thumb_func
 2035              		.fpu softvfp
 2037              	skipProgramExpression:
 2038              	.LVL210:
 2039              	.LFB45:
 791:libscpi/src/lexer.c **** 
 792:libscpi/src/lexer.c **** static void skipProgramExpression(lex_state_t * state) {
 2040              		.loc 1 792 56 is_stmt 1 view -0
 2041              		.cfi_startproc
 2042              		@ args = 0, pretend = 0, frame = 0
 2043              		@ frame_needed = 0, uses_anonymous_args = 0
 2044              		.loc 1 792 56 is_stmt 0 view .LVU499
 2045 0000 70B5     		push	{r4, r5, r6, lr}
 2046              	.LCFI20:
 2047              		.cfi_def_cfa_offset 16
 2048              		.cfi_offset 4, -16
 2049              		.cfi_offset 5, -12
 2050              		.cfi_offset 6, -8
 2051              		.cfi_offset 14, -4
 2052 0002 0500     		movs	r5, r0
 793:libscpi/src/lexer.c ****     while (!iseos(state) && isProgramExpression(state->pos[0])) {
 2053              		.loc 1 793 5 is_stmt 1 view .LVU500
 2054              	.LVL211:
 2055              	.L148:
 2056              		.loc 1 793 11 view .LVU501
 2057              		.loc 1 793 13 is_stmt 0 view .LVU502
 2058 0004 2800     		movs	r0, r5
 2059 0006 FFF7FEFF 		bl	iseos
 2060              	.LVL212:
 2061              		.loc 1 793 11 view .LVU503
 2062 000a 0028     		cmp	r0, #0
 2063 000c 08D1     		bne	.L147
 2064              		.loc 1 793 54 discriminator 1 view .LVU504
 2065 000e 6C68     		ldr	r4, [r5, #4]
 2066              		.loc 1 793 59 discriminator 1 view .LVU505
 2067 0010 2078     		ldrb	r0, [r4]
 2068              		.loc 1 793 29 discriminator 1 view .LVU506
 2069 0012 FFF7FEFF 		bl	isProgramExpression
 2070              	.LVL213:
 2071              		.loc 1 793 26 discriminator 1 view .LVU507
 2072 0016 0028     		cmp	r0, #0
 2073 0018 02D0     		beq	.L147
 794:libscpi/src/lexer.c ****         state->pos++;
 2074              		.loc 1 794 9 is_stmt 1 view .LVU508
 2075              		.loc 1 794 19 is_stmt 0 view .LVU509
 2076 001a 0134     		adds	r4, r4, #1
 2077 001c 6C60     		str	r4, [r5, #4]
 2078 001e F1E7     		b	.L148
 2079              	.L147:
 795:libscpi/src/lexer.c ****     }
 796:libscpi/src/lexer.c **** }
 2080              		.loc 1 796 1 view .LVU510
ARM GAS  /tmp/ccEnAiLD.s 			page 52


 2081              		@ sp needed
 2082              	.LVL214:
 2083              		.loc 1 796 1 view .LVU511
 2084 0020 70BD     		pop	{r4, r5, r6, pc}
 2085              		.cfi_endproc
 2086              	.LFE45:
 2088              		.section	.text.scpiLex_IsEos,"ax",%progbits
 2089              		.align	1
 2090              		.global	scpiLex_IsEos
 2091              		.hidden	scpiLex_IsEos
 2092              		.syntax unified
 2093              		.code	16
 2094              		.thumb_func
 2095              		.fpu softvfp
 2097              	scpiLex_IsEos:
 2098              	.LVL215:
 2099              	.LFB7:
  99:libscpi/src/lexer.c ****     return iseos(state);
 2100              		.loc 1 99 40 is_stmt 1 view -0
 2101              		.cfi_startproc
 2102              		@ args = 0, pretend = 0, frame = 0
 2103              		@ frame_needed = 0, uses_anonymous_args = 0
  99:libscpi/src/lexer.c ****     return iseos(state);
 2104              		.loc 1 99 40 is_stmt 0 view .LVU513
 2105 0000 10B5     		push	{r4, lr}
 2106              	.LCFI21:
 2107              		.cfi_def_cfa_offset 8
 2108              		.cfi_offset 4, -8
 2109              		.cfi_offset 14, -4
 100:libscpi/src/lexer.c **** }
 2110              		.loc 1 100 5 is_stmt 1 view .LVU514
 100:libscpi/src/lexer.c **** }
 2111              		.loc 1 100 12 is_stmt 0 view .LVU515
 2112 0002 FFF7FEFF 		bl	iseos
 2113              	.LVL216:
 101:libscpi/src/lexer.c **** 
 2114              		.loc 1 101 1 view .LVU516
 2115              		@ sp needed
 2116 0006 10BD     		pop	{r4, pc}
 2117              		.cfi_endproc
 2118              	.LFE7:
 2120              		.section	.text.scpiLex_WhiteSpace,"ax",%progbits
 2121              		.align	1
 2122              		.global	scpiLex_WhiteSpace
 2123              		.hidden	scpiLex_WhiteSpace
 2124              		.syntax unified
 2125              		.code	16
 2126              		.thumb_func
 2127              		.fpu softvfp
 2129              	scpiLex_WhiteSpace:
 2130              	.LVL217:
 2131              	.LFB24:
 331:libscpi/src/lexer.c ****     token->ptr = state->pos;
 2132              		.loc 1 331 67 is_stmt 1 view -0
 2133              		.cfi_startproc
 2134              		@ args = 0, pretend = 0, frame = 0
 2135              		@ frame_needed = 0, uses_anonymous_args = 0
ARM GAS  /tmp/ccEnAiLD.s 			page 53


 331:libscpi/src/lexer.c ****     token->ptr = state->pos;
 2136              		.loc 1 331 67 is_stmt 0 view .LVU518
 2137 0000 70B5     		push	{r4, r5, r6, lr}
 2138              	.LCFI22:
 2139              		.cfi_def_cfa_offset 16
 2140              		.cfi_offset 4, -16
 2141              		.cfi_offset 5, -12
 2142              		.cfi_offset 6, -8
 2143              		.cfi_offset 14, -4
 2144 0002 0500     		movs	r5, r0
 2145 0004 0C00     		movs	r4, r1
 332:libscpi/src/lexer.c **** 
 2146              		.loc 1 332 5 is_stmt 1 view .LVU519
 332:libscpi/src/lexer.c **** 
 2147              		.loc 1 332 16 is_stmt 0 view .LVU520
 2148 0006 4368     		ldr	r3, [r0, #4]
 2149 0008 4B60     		str	r3, [r1, #4]
 334:libscpi/src/lexer.c **** 
 2150              		.loc 1 334 5 is_stmt 1 view .LVU521
 2151 000a FFF7FEFF 		bl	skipWs
 2152              	.LVL218:
 336:libscpi/src/lexer.c **** 
 2153              		.loc 1 336 5 view .LVU522
 336:libscpi/src/lexer.c **** 
 2154              		.loc 1 336 23 is_stmt 0 view .LVU523
 2155 000e 6868     		ldr	r0, [r5, #4]
 336:libscpi/src/lexer.c **** 
 2156              		.loc 1 336 29 view .LVU524
 2157 0010 6368     		ldr	r3, [r4, #4]
 2158 0012 C01A     		subs	r0, r0, r3
 336:libscpi/src/lexer.c **** 
 2159              		.loc 1 336 16 view .LVU525
 2160 0014 A060     		str	r0, [r4, #8]
 338:libscpi/src/lexer.c ****         token->type = SCPI_TOKEN_WS;
 2161              		.loc 1 338 5 is_stmt 1 view .LVU526
 338:libscpi/src/lexer.c ****         token->type = SCPI_TOKEN_WS;
 2162              		.loc 1 338 8 is_stmt 0 view .LVU527
 2163 0016 0028     		cmp	r0, #0
 2164 0018 02DD     		ble	.L153
 339:libscpi/src/lexer.c ****     } else {
 2165              		.loc 1 339 9 is_stmt 1 view .LVU528
 339:libscpi/src/lexer.c ****     } else {
 2166              		.loc 1 339 21 is_stmt 0 view .LVU529
 2167 001a 1723     		movs	r3, #23
 2168 001c 2370     		strb	r3, [r4]
 2169              	.L152:
 345:libscpi/src/lexer.c **** 
 2170              		.loc 1 345 1 view .LVU530
 2171              		@ sp needed
 2172              	.LVL219:
 2173              	.LVL220:
 345:libscpi/src/lexer.c **** 
 2174              		.loc 1 345 1 view .LVU531
 2175 001e 70BD     		pop	{r4, r5, r6, pc}
 2176              	.LVL221:
 2177              	.L153:
 341:libscpi/src/lexer.c ****     }
ARM GAS  /tmp/ccEnAiLD.s 			page 54


 2178              		.loc 1 341 9 is_stmt 1 view .LVU532
 341:libscpi/src/lexer.c ****     }
 2179              		.loc 1 341 21 is_stmt 0 view .LVU533
 2180 0020 1A23     		movs	r3, #26
 2181 0022 2370     		strb	r3, [r4]
 344:libscpi/src/lexer.c **** }
 2182              		.loc 1 344 5 is_stmt 1 view .LVU534
 344:libscpi/src/lexer.c **** }
 2183              		.loc 1 344 17 is_stmt 0 view .LVU535
 2184 0024 FBE7     		b	.L152
 2185              		.cfi_endproc
 2186              	.LFE24:
 2188              		.section	.text.scpiLex_ProgramHeader,"ax",%progbits
 2189              		.align	1
 2190              		.global	scpiLex_ProgramHeader
 2191              		.hidden	scpiLex_ProgramHeader
 2192              		.syntax unified
 2193              		.code	16
 2194              		.thumb_func
 2195              		.fpu softvfp
 2197              	scpiLex_ProgramHeader:
 2198              	.LVL222:
 2199              	.LFB27:
 406:libscpi/src/lexer.c ****     int res;
 2200              		.loc 1 406 70 is_stmt 1 view -0
 2201              		.cfi_startproc
 2202              		@ args = 0, pretend = 0, frame = 0
 2203              		@ frame_needed = 0, uses_anonymous_args = 0
 406:libscpi/src/lexer.c ****     int res;
 2204              		.loc 1 406 70 is_stmt 0 view .LVU537
 2205 0000 70B5     		push	{r4, r5, r6, lr}
 2206              	.LCFI23:
 2207              		.cfi_def_cfa_offset 16
 2208              		.cfi_offset 4, -16
 2209              		.cfi_offset 5, -12
 2210              		.cfi_offset 6, -8
 2211              		.cfi_offset 14, -4
 2212 0002 0500     		movs	r5, r0
 2213 0004 0C00     		movs	r4, r1
 407:libscpi/src/lexer.c ****     token->ptr = state->pos;
 2214              		.loc 1 407 5 is_stmt 1 view .LVU538
 408:libscpi/src/lexer.c ****     token->type = SCPI_TOKEN_UNKNOWN;
 2215              		.loc 1 408 5 view .LVU539
 408:libscpi/src/lexer.c ****     token->type = SCPI_TOKEN_UNKNOWN;
 2216              		.loc 1 408 16 is_stmt 0 view .LVU540
 2217 0006 4368     		ldr	r3, [r0, #4]
 2218 0008 4B60     		str	r3, [r1, #4]
 409:libscpi/src/lexer.c **** 
 2219              		.loc 1 409 5 is_stmt 1 view .LVU541
 409:libscpi/src/lexer.c **** 
 2220              		.loc 1 409 17 is_stmt 0 view .LVU542
 2221 000a 1A23     		movs	r3, #26
 2222 000c 0B70     		strb	r3, [r1]
 411:libscpi/src/lexer.c ****     if (res >= SKIP_OK) {
 2223              		.loc 1 411 5 is_stmt 1 view .LVU543
 411:libscpi/src/lexer.c ****     if (res >= SKIP_OK) {
 2224              		.loc 1 411 11 is_stmt 0 view .LVU544
ARM GAS  /tmp/ccEnAiLD.s 			page 55


 2225 000e FFF7FEFF 		bl	skipCommonProgramHeader
 2226              	.LVL223:
 412:libscpi/src/lexer.c ****         if (skipChr(state, '?') >= SKIP_OK) {
 2227              		.loc 1 412 5 is_stmt 1 view .LVU545
 412:libscpi/src/lexer.c ****         if (skipChr(state, '?') >= SKIP_OK) {
 2228              		.loc 1 412 8 is_stmt 0 view .LVU546
 2229 0012 0028     		cmp	r0, #0
 2230 0014 0ADC     		bgt	.L164
 418:libscpi/src/lexer.c ****         token->type = SCPI_TOKEN_INCOMPLETE_COMMON_PROGRAM_HEADER;
 2231              		.loc 1 418 12 is_stmt 1 view .LVU547
 418:libscpi/src/lexer.c ****         token->type = SCPI_TOKEN_INCOMPLETE_COMMON_PROGRAM_HEADER;
 2232              		.loc 1 418 15 is_stmt 0 view .LVU548
 2233 0016 1DDB     		blt	.L165
 420:libscpi/src/lexer.c ****         res = skipCompoundProgramHeader(state);
 2234              		.loc 1 420 12 is_stmt 1 view .LVU549
 420:libscpi/src/lexer.c ****         res = skipCompoundProgramHeader(state);
 2235              		.loc 1 420 15 is_stmt 0 view .LVU550
 2236 0018 10D1     		bne	.L158
 421:libscpi/src/lexer.c **** 
 2237              		.loc 1 421 9 is_stmt 1 view .LVU551
 421:libscpi/src/lexer.c **** 
 2238              		.loc 1 421 15 is_stmt 0 view .LVU552
 2239 001a 2800     		movs	r0, r5
 2240              	.LVL224:
 421:libscpi/src/lexer.c **** 
 2241              		.loc 1 421 15 view .LVU553
 2242 001c FFF7FEFF 		bl	skipCompoundProgramHeader
 2243              	.LVL225:
 423:libscpi/src/lexer.c ****             if (skipChr(state, '?') >= SKIP_OK) {
 2244              		.loc 1 423 9 is_stmt 1 view .LVU554
 423:libscpi/src/lexer.c ****             if (skipChr(state, '?') >= SKIP_OK) {
 2245              		.loc 1 423 12 is_stmt 0 view .LVU555
 2246 0020 0028     		cmp	r0, #0
 2247 0022 1ADC     		bgt	.L166
 429:libscpi/src/lexer.c ****             token->type = SCPI_TOKEN_INCOMPLETE_COMPOUND_PROGRAM_HEADER;
 2248              		.loc 1 429 16 is_stmt 1 view .LVU556
 429:libscpi/src/lexer.c ****             token->type = SCPI_TOKEN_INCOMPLETE_COMPOUND_PROGRAM_HEADER;
 2249              		.loc 1 429 19 is_stmt 0 view .LVU557
 2250 0024 0ADA     		bge	.L158
 430:libscpi/src/lexer.c ****         }
 2251              		.loc 1 430 13 is_stmt 1 view .LVU558
 430:libscpi/src/lexer.c ****         }
 2252              		.loc 1 430 25 is_stmt 0 view .LVU559
 2253 0026 1223     		movs	r3, #18
 2254 0028 2370     		strb	r3, [r4]
 2255 002a 07E0     		b	.L158
 2256              	.L164:
 413:libscpi/src/lexer.c ****             token->type = SCPI_TOKEN_COMMON_QUERY_PROGRAM_HEADER;
 2257              		.loc 1 413 9 is_stmt 1 view .LVU560
 413:libscpi/src/lexer.c ****             token->type = SCPI_TOKEN_COMMON_QUERY_PROGRAM_HEADER;
 2258              		.loc 1 413 13 is_stmt 0 view .LVU561
 2259 002c 3F21     		movs	r1, #63
 2260 002e 2800     		movs	r0, r5
 2261              	.LVL226:
 413:libscpi/src/lexer.c ****             token->type = SCPI_TOKEN_COMMON_QUERY_PROGRAM_HEADER;
 2262              		.loc 1 413 13 view .LVU562
 2263 0030 FFF7FEFF 		bl	skipChr
ARM GAS  /tmp/ccEnAiLD.s 			page 56


 2264              	.LVL227:
 413:libscpi/src/lexer.c ****             token->type = SCPI_TOKEN_COMMON_QUERY_PROGRAM_HEADER;
 2265              		.loc 1 413 12 view .LVU563
 2266 0034 0028     		cmp	r0, #0
 2267 0036 0ADD     		ble	.L157
 414:libscpi/src/lexer.c ****         } else {
 2268              		.loc 1 414 13 is_stmt 1 view .LVU564
 414:libscpi/src/lexer.c ****         } else {
 2269              		.loc 1 414 25 is_stmt 0 view .LVU565
 2270 0038 1623     		movs	r3, #22
 2271 003a 2370     		strb	r3, [r4]
 2272              	.L158:
 434:libscpi/src/lexer.c ****         token->len = state->pos - token->ptr;
 2273              		.loc 1 434 5 is_stmt 1 view .LVU566
 434:libscpi/src/lexer.c ****         token->len = state->pos - token->ptr;
 2274              		.loc 1 434 14 is_stmt 0 view .LVU567
 2275 003c 2378     		ldrb	r3, [r4]
 434:libscpi/src/lexer.c ****         token->len = state->pos - token->ptr;
 2276              		.loc 1 434 8 view .LVU568
 2277 003e 1A2B     		cmp	r3, #26
 2278 0040 17D0     		beq	.L162
 435:libscpi/src/lexer.c ****     } else {
 2279              		.loc 1 435 9 is_stmt 1 view .LVU569
 435:libscpi/src/lexer.c ****     } else {
 2280              		.loc 1 435 27 is_stmt 0 view .LVU570
 2281 0042 6B68     		ldr	r3, [r5, #4]
 435:libscpi/src/lexer.c ****     } else {
 2282              		.loc 1 435 33 view .LVU571
 2283 0044 6268     		ldr	r2, [r4, #4]
 2284 0046 9B1A     		subs	r3, r3, r2
 435:libscpi/src/lexer.c ****     } else {
 2285              		.loc 1 435 20 view .LVU572
 2286 0048 A360     		str	r3, [r4, #8]
 2287              	.L163:
 441:libscpi/src/lexer.c **** }
 2288              		.loc 1 441 5 is_stmt 1 view .LVU573
 441:libscpi/src/lexer.c **** }
 2289              		.loc 1 441 17 is_stmt 0 view .LVU574
 2290 004a A068     		ldr	r0, [r4, #8]
 442:libscpi/src/lexer.c **** 
 2291              		.loc 1 442 1 view .LVU575
 2292              		@ sp needed
 2293              	.LVL228:
 2294              	.LVL229:
 442:libscpi/src/lexer.c **** 
 2295              		.loc 1 442 1 view .LVU576
 2296 004c 70BD     		pop	{r4, r5, r6, pc}
 2297              	.LVL230:
 2298              	.L157:
 416:libscpi/src/lexer.c ****         }
 2299              		.loc 1 416 13 is_stmt 1 view .LVU577
 416:libscpi/src/lexer.c ****         }
 2300              		.loc 1 416 25 is_stmt 0 view .LVU578
 2301 004e 1323     		movs	r3, #19
 2302 0050 2370     		strb	r3, [r4]
 2303 0052 F3E7     		b	.L158
 2304              	.LVL231:
ARM GAS  /tmp/ccEnAiLD.s 			page 57


 2305              	.L165:
 419:libscpi/src/lexer.c ****     } else if (res == SKIP_NONE) {
 2306              		.loc 1 419 9 is_stmt 1 view .LVU579
 419:libscpi/src/lexer.c ****     } else if (res == SKIP_NONE) {
 2307              		.loc 1 419 21 is_stmt 0 view .LVU580
 2308 0054 1423     		movs	r3, #20
 2309 0056 2370     		strb	r3, [r4]
 2310 0058 F0E7     		b	.L158
 2311              	.L166:
 424:libscpi/src/lexer.c ****                 token->type = SCPI_TOKEN_COMPOUND_QUERY_PROGRAM_HEADER;
 2312              		.loc 1 424 13 is_stmt 1 view .LVU581
 424:libscpi/src/lexer.c ****                 token->type = SCPI_TOKEN_COMPOUND_QUERY_PROGRAM_HEADER;
 2313              		.loc 1 424 17 is_stmt 0 view .LVU582
 2314 005a 3F21     		movs	r1, #63
 2315 005c 2800     		movs	r0, r5
 2316              	.LVL232:
 424:libscpi/src/lexer.c ****                 token->type = SCPI_TOKEN_COMPOUND_QUERY_PROGRAM_HEADER;
 2317              		.loc 1 424 17 view .LVU583
 2318 005e FFF7FEFF 		bl	skipChr
 2319              	.LVL233:
 424:libscpi/src/lexer.c ****                 token->type = SCPI_TOKEN_COMPOUND_QUERY_PROGRAM_HEADER;
 2320              		.loc 1 424 16 view .LVU584
 2321 0062 0028     		cmp	r0, #0
 2322 0064 02DD     		ble	.L161
 425:libscpi/src/lexer.c ****             } else {
 2323              		.loc 1 425 17 is_stmt 1 view .LVU585
 425:libscpi/src/lexer.c ****             } else {
 2324              		.loc 1 425 29 is_stmt 0 view .LVU586
 2325 0066 1523     		movs	r3, #21
 2326 0068 2370     		strb	r3, [r4]
 2327 006a E7E7     		b	.L158
 2328              	.L161:
 427:libscpi/src/lexer.c ****             }
 2329              		.loc 1 427 17 is_stmt 1 view .LVU587
 427:libscpi/src/lexer.c ****             }
 2330              		.loc 1 427 29 is_stmt 0 view .LVU588
 2331 006c 1123     		movs	r3, #17
 2332 006e 2370     		strb	r3, [r4]
 2333 0070 E4E7     		b	.L158
 2334              	.L162:
 437:libscpi/src/lexer.c ****         state->pos = token->ptr;
 2335              		.loc 1 437 9 is_stmt 1 view .LVU589
 437:libscpi/src/lexer.c ****         state->pos = token->ptr;
 2336              		.loc 1 437 20 is_stmt 0 view .LVU590
 2337 0072 0023     		movs	r3, #0
 2338 0074 A360     		str	r3, [r4, #8]
 438:libscpi/src/lexer.c ****     }
 2339              		.loc 1 438 9 is_stmt 1 view .LVU591
 438:libscpi/src/lexer.c ****     }
 2340              		.loc 1 438 20 is_stmt 0 view .LVU592
 2341 0076 6368     		ldr	r3, [r4, #4]
 2342 0078 6B60     		str	r3, [r5, #4]
 2343 007a E6E7     		b	.L163
 2344              		.cfi_endproc
 2345              	.LFE27:
 2347              		.section	.text.scpiLex_CharacterProgramData,"ax",%progbits
 2348              		.align	1
ARM GAS  /tmp/ccEnAiLD.s 			page 58


 2349              		.global	scpiLex_CharacterProgramData
 2350              		.hidden	scpiLex_CharacterProgramData
 2351              		.syntax unified
 2352              		.code	16
 2353              		.thumb_func
 2354              		.fpu softvfp
 2356              	scpiLex_CharacterProgramData:
 2357              	.LVL234:
 2358              	.LFB28:
 452:libscpi/src/lexer.c ****     token->ptr = state->pos;
 2359              		.loc 1 452 77 is_stmt 1 view -0
 2360              		.cfi_startproc
 2361              		@ args = 0, pretend = 0, frame = 0
 2362              		@ frame_needed = 0, uses_anonymous_args = 0
 452:libscpi/src/lexer.c ****     token->ptr = state->pos;
 2363              		.loc 1 452 77 is_stmt 0 view .LVU594
 2364 0000 70B5     		push	{r4, r5, r6, lr}
 2365              	.LCFI24:
 2366              		.cfi_def_cfa_offset 16
 2367              		.cfi_offset 4, -16
 2368              		.cfi_offset 5, -12
 2369              		.cfi_offset 6, -8
 2370              		.cfi_offset 14, -4
 2371 0002 0400     		movs	r4, r0
 2372 0004 0E00     		movs	r6, r1
 453:libscpi/src/lexer.c **** 
 2373              		.loc 1 453 5 is_stmt 1 view .LVU595
 453:libscpi/src/lexer.c **** 
 2374              		.loc 1 453 23 is_stmt 0 view .LVU596
 2375 0006 4568     		ldr	r5, [r0, #4]
 453:libscpi/src/lexer.c **** 
 2376              		.loc 1 453 16 view .LVU597
 2377 0008 4D60     		str	r5, [r1, #4]
 455:libscpi/src/lexer.c ****         state->pos++;
 2378              		.loc 1 455 5 is_stmt 1 view .LVU598
 455:libscpi/src/lexer.c ****         state->pos++;
 2379              		.loc 1 455 10 is_stmt 0 view .LVU599
 2380 000a FFF7FEFF 		bl	iseos
 2381              	.LVL235:
 455:libscpi/src/lexer.c ****         state->pos++;
 2382              		.loc 1 455 8 view .LVU600
 2383 000e 0028     		cmp	r0, #0
 2384 0010 1AD1     		bne	.L168
 455:libscpi/src/lexer.c ****         state->pos++;
 2385              		.loc 1 455 26 discriminator 1 view .LVU601
 2386 0012 2B78     		ldrb	r3, [r5]
 2387 0014 124A     		ldr	r2, .L173
 2388 0016 D35C     		ldrb	r3, [r2, r3]
 455:libscpi/src/lexer.c ****         state->pos++;
 2389              		.loc 1 455 23 discriminator 1 view .LVU602
 2390 0018 9B07     		lsls	r3, r3, #30
 2391 001a 15D0     		beq	.L168
 456:libscpi/src/lexer.c ****         while (!iseos(state) && (isalnum((uint8_t)(state->pos[0])) || ischr(state, '_'))) {
 2392              		.loc 1 456 9 is_stmt 1 view .LVU603
 456:libscpi/src/lexer.c ****         while (!iseos(state) && (isalnum((uint8_t)(state->pos[0])) || ischr(state, '_'))) {
 2393              		.loc 1 456 19 is_stmt 0 view .LVU604
 2394 001c 0135     		adds	r5, r5, #1
ARM GAS  /tmp/ccEnAiLD.s 			page 59


 2395 001e 6560     		str	r5, [r4, #4]
 457:libscpi/src/lexer.c ****             state->pos++;
 2396              		.loc 1 457 9 is_stmt 1 view .LVU605
 457:libscpi/src/lexer.c ****             state->pos++;
 2397              		.loc 1 457 15 is_stmt 0 view .LVU606
 2398 0020 01E0     		b	.L169
 2399              	.L170:
 458:libscpi/src/lexer.c ****         }
 2400              		.loc 1 458 13 is_stmt 1 view .LVU607
 458:libscpi/src/lexer.c ****         }
 2401              		.loc 1 458 23 is_stmt 0 view .LVU608
 2402 0022 0135     		adds	r5, r5, #1
 2403 0024 6560     		str	r5, [r4, #4]
 2404              	.L169:
 457:libscpi/src/lexer.c ****             state->pos++;
 2405              		.loc 1 457 15 is_stmt 1 view .LVU609
 457:libscpi/src/lexer.c ****             state->pos++;
 2406              		.loc 1 457 17 is_stmt 0 view .LVU610
 2407 0026 2000     		movs	r0, r4
 2408 0028 FFF7FEFF 		bl	iseos
 2409              	.LVL236:
 457:libscpi/src/lexer.c ****             state->pos++;
 2410              		.loc 1 457 15 view .LVU611
 2411 002c 0028     		cmp	r0, #0
 2412 002e 0BD1     		bne	.L168
 457:libscpi/src/lexer.c ****             state->pos++;
 2413              		.loc 1 457 34 discriminator 1 view .LVU612
 2414 0030 6568     		ldr	r5, [r4, #4]
 2415 0032 2B78     		ldrb	r3, [r5]
 2416 0034 0A4A     		ldr	r2, .L173
 2417 0036 D35C     		ldrb	r3, [r2, r3]
 457:libscpi/src/lexer.c ****             state->pos++;
 2418              		.loc 1 457 30 discriminator 1 view .LVU613
 2419 0038 5B07     		lsls	r3, r3, #29
 2420 003a F2D1     		bne	.L170
 457:libscpi/src/lexer.c ****             state->pos++;
 2421              		.loc 1 457 71 discriminator 2 view .LVU614
 2422 003c 5F21     		movs	r1, #95
 2423 003e 2000     		movs	r0, r4
 2424 0040 FFF7FEFF 		bl	ischr
 2425              	.LVL237:
 457:libscpi/src/lexer.c ****             state->pos++;
 2426              		.loc 1 457 68 discriminator 2 view .LVU615
 2427 0044 0028     		cmp	r0, #0
 2428 0046 ECD1     		bne	.L170
 2429              	.L168:
 462:libscpi/src/lexer.c ****     if (token->len > 0) {
 2430              		.loc 1 462 5 is_stmt 1 view .LVU616
 462:libscpi/src/lexer.c ****     if (token->len > 0) {
 2431              		.loc 1 462 23 is_stmt 0 view .LVU617
 2432 0048 6068     		ldr	r0, [r4, #4]
 462:libscpi/src/lexer.c ****     if (token->len > 0) {
 2433              		.loc 1 462 29 view .LVU618
 2434 004a 7368     		ldr	r3, [r6, #4]
 2435 004c C01A     		subs	r0, r0, r3
 462:libscpi/src/lexer.c ****     if (token->len > 0) {
 2436              		.loc 1 462 16 view .LVU619
ARM GAS  /tmp/ccEnAiLD.s 			page 60


 2437 004e B060     		str	r0, [r6, #8]
 463:libscpi/src/lexer.c ****         token->type = SCPI_TOKEN_PROGRAM_MNEMONIC;
 2438              		.loc 1 463 5 is_stmt 1 view .LVU620
 463:libscpi/src/lexer.c ****         token->type = SCPI_TOKEN_PROGRAM_MNEMONIC;
 2439              		.loc 1 463 8 is_stmt 0 view .LVU621
 2440 0050 0028     		cmp	r0, #0
 2441 0052 02DD     		ble	.L171
 464:libscpi/src/lexer.c ****     } else {
 2442              		.loc 1 464 9 is_stmt 1 view .LVU622
 464:libscpi/src/lexer.c ****     } else {
 2443              		.loc 1 464 21 is_stmt 0 view .LVU623
 2444 0054 0923     		movs	r3, #9
 2445 0056 3370     		strb	r3, [r6]
 2446              	.L167:
 470:libscpi/src/lexer.c **** 
 2447              		.loc 1 470 1 view .LVU624
 2448              		@ sp needed
 2449              	.LVL238:
 2450              	.LVL239:
 470:libscpi/src/lexer.c **** 
 2451              		.loc 1 470 1 view .LVU625
 2452 0058 70BD     		pop	{r4, r5, r6, pc}
 2453              	.LVL240:
 2454              	.L171:
 466:libscpi/src/lexer.c ****     }
 2455              		.loc 1 466 9 is_stmt 1 view .LVU626
 466:libscpi/src/lexer.c ****     }
 2456              		.loc 1 466 21 is_stmt 0 view .LVU627
 2457 005a 1A23     		movs	r3, #26
 2458 005c 3370     		strb	r3, [r6]
 469:libscpi/src/lexer.c **** }
 2459              		.loc 1 469 5 is_stmt 1 view .LVU628
 469:libscpi/src/lexer.c **** }
 2460              		.loc 1 469 17 is_stmt 0 view .LVU629
 2461 005e FBE7     		b	.L167
 2462              	.L174:
 2463              		.align	2
 2464              	.L173:
 2465 0060 01000000 		.word	_ctype_+1
 2466              		.cfi_endproc
 2467              	.LFE28:
 2469              		.section	.text.scpiLex_DecimalNumericProgramData,"ax",%progbits
 2470              		.align	1
 2471              		.global	scpiLex_DecimalNumericProgramData
 2472              		.hidden	scpiLex_DecimalNumericProgramData
 2473              		.syntax unified
 2474              		.code	16
 2475              		.thumb_func
 2476              		.fpu softvfp
 2478              	scpiLex_DecimalNumericProgramData:
 2479              	.LVL241:
 2480              	.LFB31:
 509:libscpi/src/lexer.c ****     char * rollback;
 2481              		.loc 1 509 82 is_stmt 1 view -0
 2482              		.cfi_startproc
 2483              		@ args = 0, pretend = 0, frame = 0
 2484              		@ frame_needed = 0, uses_anonymous_args = 0
ARM GAS  /tmp/ccEnAiLD.s 			page 61


 509:libscpi/src/lexer.c ****     char * rollback;
 2485              		.loc 1 509 82 is_stmt 0 view .LVU631
 2486 0000 70B5     		push	{r4, r5, r6, lr}
 2487              	.LCFI25:
 2488              		.cfi_def_cfa_offset 16
 2489              		.cfi_offset 4, -16
 2490              		.cfi_offset 5, -12
 2491              		.cfi_offset 6, -8
 2492              		.cfi_offset 14, -4
 2493 0002 0400     		movs	r4, r0
 2494 0004 0D00     		movs	r5, r1
 510:libscpi/src/lexer.c ****     token->ptr = state->pos;
 2495              		.loc 1 510 5 is_stmt 1 view .LVU632
 511:libscpi/src/lexer.c **** 
 2496              		.loc 1 511 5 view .LVU633
 511:libscpi/src/lexer.c **** 
 2497              		.loc 1 511 16 is_stmt 0 view .LVU634
 2498 0006 4368     		ldr	r3, [r0, #4]
 2499 0008 4B60     		str	r3, [r1, #4]
 513:libscpi/src/lexer.c ****         rollback = state->pos;
 2500              		.loc 1 513 5 is_stmt 1 view .LVU635
 513:libscpi/src/lexer.c ****         rollback = state->pos;
 2501              		.loc 1 513 9 is_stmt 0 view .LVU636
 2502 000a FFF7FEFF 		bl	skipMantisa
 2503              	.LVL242:
 513:libscpi/src/lexer.c ****         rollback = state->pos;
 2504              		.loc 1 513 8 view .LVU637
 2505 000e 0028     		cmp	r0, #0
 2506 0010 0AD1     		bne	.L180
 520:libscpi/src/lexer.c ****     }
 2507              		.loc 1 520 9 is_stmt 1 view .LVU638
 520:libscpi/src/lexer.c ****     }
 2508              		.loc 1 520 20 is_stmt 0 view .LVU639
 2509 0012 6B68     		ldr	r3, [r5, #4]
 2510 0014 6360     		str	r3, [r4, #4]
 2511              	.L177:
 523:libscpi/src/lexer.c ****     if (token->len > 0) {
 2512              		.loc 1 523 5 is_stmt 1 view .LVU640
 523:libscpi/src/lexer.c ****     if (token->len > 0) {
 2513              		.loc 1 523 23 is_stmt 0 view .LVU641
 2514 0016 6068     		ldr	r0, [r4, #4]
 523:libscpi/src/lexer.c ****     if (token->len > 0) {
 2515              		.loc 1 523 29 view .LVU642
 2516 0018 6B68     		ldr	r3, [r5, #4]
 2517 001a C01A     		subs	r0, r0, r3
 523:libscpi/src/lexer.c ****     if (token->len > 0) {
 2518              		.loc 1 523 16 view .LVU643
 2519 001c A860     		str	r0, [r5, #8]
 524:libscpi/src/lexer.c ****         token->type = SCPI_TOKEN_DECIMAL_NUMERIC_PROGRAM_DATA;
 2520              		.loc 1 524 5 is_stmt 1 view .LVU644
 524:libscpi/src/lexer.c ****         token->type = SCPI_TOKEN_DECIMAL_NUMERIC_PROGRAM_DATA;
 2521              		.loc 1 524 8 is_stmt 0 view .LVU645
 2522 001e 0028     		cmp	r0, #0
 2523 0020 0DDD     		ble	.L178
 525:libscpi/src/lexer.c ****     } else {
 2524              		.loc 1 525 9 is_stmt 1 view .LVU646
 525:libscpi/src/lexer.c ****     } else {
ARM GAS  /tmp/ccEnAiLD.s 			page 62


 2525              		.loc 1 525 21 is_stmt 0 view .LVU647
 2526 0022 0A23     		movs	r3, #10
 2527 0024 2B70     		strb	r3, [r5]
 2528              	.L175:
 531:libscpi/src/lexer.c **** 
 2529              		.loc 1 531 1 view .LVU648
 2530              		@ sp needed
 2531              	.LVL243:
 2532              	.LVL244:
 531:libscpi/src/lexer.c **** 
 2533              		.loc 1 531 1 view .LVU649
 2534 0026 70BD     		pop	{r4, r5, r6, pc}
 2535              	.LVL245:
 2536              	.L180:
 514:libscpi/src/lexer.c ****         skipWs(state);
 2537              		.loc 1 514 9 is_stmt 1 view .LVU650
 514:libscpi/src/lexer.c ****         skipWs(state);
 2538              		.loc 1 514 18 is_stmt 0 view .LVU651
 2539 0028 6668     		ldr	r6, [r4, #4]
 2540              	.LVL246:
 515:libscpi/src/lexer.c ****         if (!skipExponent(state)) {
 2541              		.loc 1 515 9 is_stmt 1 view .LVU652
 2542 002a 2000     		movs	r0, r4
 2543 002c FFF7FEFF 		bl	skipWs
 2544              	.LVL247:
 516:libscpi/src/lexer.c ****             state->pos = rollback;
 2545              		.loc 1 516 9 view .LVU653
 516:libscpi/src/lexer.c ****             state->pos = rollback;
 2546              		.loc 1 516 14 is_stmt 0 view .LVU654
 2547 0030 2000     		movs	r0, r4
 2548 0032 FFF7FEFF 		bl	skipExponent
 2549              	.LVL248:
 516:libscpi/src/lexer.c ****             state->pos = rollback;
 2550              		.loc 1 516 12 view .LVU655
 2551 0036 0028     		cmp	r0, #0
 2552 0038 EDD1     		bne	.L177
 517:libscpi/src/lexer.c ****         }
 2553              		.loc 1 517 13 is_stmt 1 view .LVU656
 517:libscpi/src/lexer.c ****         }
 2554              		.loc 1 517 24 is_stmt 0 view .LVU657
 2555 003a 6660     		str	r6, [r4, #4]
 2556 003c EBE7     		b	.L177
 2557              	.LVL249:
 2558              	.L178:
 527:libscpi/src/lexer.c ****     }
 2559              		.loc 1 527 9 is_stmt 1 view .LVU658
 527:libscpi/src/lexer.c ****     }
 2560              		.loc 1 527 21 is_stmt 0 view .LVU659
 2561 003e 1A23     		movs	r3, #26
 2562 0040 2B70     		strb	r3, [r5]
 530:libscpi/src/lexer.c **** }
 2563              		.loc 1 530 5 is_stmt 1 view .LVU660
 530:libscpi/src/lexer.c **** }
 2564              		.loc 1 530 17 is_stmt 0 view .LVU661
 2565 0042 F0E7     		b	.L175
 2566              		.cfi_endproc
 2567              	.LFE31:
ARM GAS  /tmp/ccEnAiLD.s 			page 63


 2569              		.section	.text.scpiLex_SuffixProgramData,"ax",%progbits
 2570              		.align	1
 2571              		.global	scpiLex_SuffixProgramData
 2572              		.hidden	scpiLex_SuffixProgramData
 2573              		.syntax unified
 2574              		.code	16
 2575              		.thumb_func
 2576              		.fpu softvfp
 2578              	scpiLex_SuffixProgramData:
 2579              	.LVL250:
 2580              	.LFB32:
 534:libscpi/src/lexer.c ****     token->ptr = state->pos;
 2581              		.loc 1 534 74 is_stmt 1 view -0
 2582              		.cfi_startproc
 2583              		@ args = 0, pretend = 0, frame = 0
 2584              		@ frame_needed = 0, uses_anonymous_args = 0
 534:libscpi/src/lexer.c ****     token->ptr = state->pos;
 2585              		.loc 1 534 74 is_stmt 0 view .LVU663
 2586 0000 70B5     		push	{r4, r5, r6, lr}
 2587              	.LCFI26:
 2588              		.cfi_def_cfa_offset 16
 2589              		.cfi_offset 4, -16
 2590              		.cfi_offset 5, -12
 2591              		.cfi_offset 6, -8
 2592              		.cfi_offset 14, -4
 2593 0002 0400     		movs	r4, r0
 2594 0004 0D00     		movs	r5, r1
 535:libscpi/src/lexer.c **** 
 2595              		.loc 1 535 5 is_stmt 1 view .LVU664
 535:libscpi/src/lexer.c **** 
 2596              		.loc 1 535 16 is_stmt 0 view .LVU665
 2597 0006 4368     		ldr	r3, [r0, #4]
 2598 0008 4B60     		str	r3, [r1, #4]
 537:libscpi/src/lexer.c **** 
 2599              		.loc 1 537 5 is_stmt 1 view .LVU666
 2600 000a 2F21     		movs	r1, #47
 2601              	.LVL251:
 537:libscpi/src/lexer.c **** 
 2602              		.loc 1 537 5 is_stmt 0 view .LVU667
 2603 000c FFF7FEFF 		bl	skipChr
 2604              	.LVL252:
 540:libscpi/src/lexer.c ****         skipChr(state, '-');
 2605              		.loc 1 540 5 is_stmt 1 view .LVU668
 540:libscpi/src/lexer.c ****         skipChr(state, '-');
 2606              		.loc 1 540 9 is_stmt 0 view .LVU669
 2607 0010 2000     		movs	r0, r4
 2608 0012 FFF7FEFF 		bl	skipAlpha
 2609              	.LVL253:
 540:libscpi/src/lexer.c ****         skipChr(state, '-');
 2610              		.loc 1 540 8 view .LVU670
 2611 0016 0028     		cmp	r0, #0
 2612 0018 09D1     		bne	.L187
 2613              	.L182:
 551:libscpi/src/lexer.c ****     if ((token->len > 0)) {
 2614              		.loc 1 551 5 is_stmt 1 view .LVU671
 551:libscpi/src/lexer.c ****     if ((token->len > 0)) {
 2615              		.loc 1 551 36 is_stmt 0 view .LVU672
ARM GAS  /tmp/ccEnAiLD.s 			page 64


 2616 001a 6A68     		ldr	r2, [r5, #4]
 551:libscpi/src/lexer.c ****     if ((token->len > 0)) {
 2617              		.loc 1 551 29 view .LVU673
 2618 001c 6368     		ldr	r3, [r4, #4]
 2619 001e 9B1A     		subs	r3, r3, r2
 551:libscpi/src/lexer.c ****     if ((token->len > 0)) {
 2620              		.loc 1 551 16 view .LVU674
 2621 0020 AB60     		str	r3, [r5, #8]
 552:libscpi/src/lexer.c ****         token->type = SCPI_TOKEN_SUFFIX_PROGRAM_DATA;
 2622              		.loc 1 552 5 is_stmt 1 view .LVU675
 552:libscpi/src/lexer.c ****         token->type = SCPI_TOKEN_SUFFIX_PROGRAM_DATA;
 2623              		.loc 1 552 8 is_stmt 0 view .LVU676
 2624 0022 002B     		cmp	r3, #0
 2625 0024 1ADD     		ble	.L185
 553:libscpi/src/lexer.c ****     } else {
 2626              		.loc 1 553 9 is_stmt 1 view .LVU677
 553:libscpi/src/lexer.c ****     } else {
 2627              		.loc 1 553 21 is_stmt 0 view .LVU678
 2628 0026 0C23     		movs	r3, #12
 2629 0028 2B70     		strb	r3, [r5]
 2630              	.L186:
 560:libscpi/src/lexer.c **** }
 2631              		.loc 1 560 5 is_stmt 1 view .LVU679
 560:libscpi/src/lexer.c **** }
 2632              		.loc 1 560 17 is_stmt 0 view .LVU680
 2633 002a A868     		ldr	r0, [r5, #8]
 561:libscpi/src/lexer.c **** 
 2634              		.loc 1 561 1 view .LVU681
 2635              		@ sp needed
 2636              	.LVL254:
 2637              	.LVL255:
 561:libscpi/src/lexer.c **** 
 2638              		.loc 1 561 1 view .LVU682
 2639 002c 70BD     		pop	{r4, r5, r6, pc}
 2640              	.LVL256:
 2641              	.L187:
 541:libscpi/src/lexer.c ****         skipDigit(state);
 2642              		.loc 1 541 9 is_stmt 1 view .LVU683
 2643 002e 2D21     		movs	r1, #45
 2644 0030 2000     		movs	r0, r4
 2645 0032 FFF7FEFF 		bl	skipChr
 2646              	.LVL257:
 542:libscpi/src/lexer.c **** 
 2647              		.loc 1 542 9 view .LVU684
 2648 0036 2000     		movs	r0, r4
 2649 0038 FFF7FEFF 		bl	skipDigit
 2650              	.LVL258:
 544:libscpi/src/lexer.c ****             skipAlpha(state);
 2651              		.loc 1 544 9 view .LVU685
 2652              	.L183:
 544:libscpi/src/lexer.c ****             skipAlpha(state);
 2653              		.loc 1 544 15 view .LVU686
 544:libscpi/src/lexer.c ****             skipAlpha(state);
 2654              		.loc 1 544 16 is_stmt 0 view .LVU687
 2655 003c 2000     		movs	r0, r4
 2656 003e FFF7FEFF 		bl	skipSlashDot
 2657              	.LVL259:
ARM GAS  /tmp/ccEnAiLD.s 			page 65


 544:libscpi/src/lexer.c ****             skipAlpha(state);
 2658              		.loc 1 544 15 view .LVU688
 2659 0042 0028     		cmp	r0, #0
 2660 0044 E9D0     		beq	.L182
 545:libscpi/src/lexer.c ****             skipChr(state, '-');
 2661              		.loc 1 545 13 is_stmt 1 view .LVU689
 2662 0046 2000     		movs	r0, r4
 2663 0048 FFF7FEFF 		bl	skipAlpha
 2664              	.LVL260:
 546:libscpi/src/lexer.c ****             skipDigit(state);
 2665              		.loc 1 546 13 view .LVU690
 2666 004c 2D21     		movs	r1, #45
 2667 004e 2000     		movs	r0, r4
 2668 0050 FFF7FEFF 		bl	skipChr
 2669              	.LVL261:
 547:libscpi/src/lexer.c ****         }
 2670              		.loc 1 547 13 view .LVU691
 2671 0054 2000     		movs	r0, r4
 2672 0056 FFF7FEFF 		bl	skipDigit
 2673              	.LVL262:
 2674 005a EFE7     		b	.L183
 2675              	.L185:
 555:libscpi/src/lexer.c ****         state->pos = token->ptr;
 2676              		.loc 1 555 9 view .LVU692
 555:libscpi/src/lexer.c ****         state->pos = token->ptr;
 2677              		.loc 1 555 21 is_stmt 0 view .LVU693
 2678 005c 1A23     		movs	r3, #26
 2679 005e 2B70     		strb	r3, [r5]
 556:libscpi/src/lexer.c ****         token->len = 0;
 2680              		.loc 1 556 9 is_stmt 1 view .LVU694
 556:libscpi/src/lexer.c ****         token->len = 0;
 2681              		.loc 1 556 20 is_stmt 0 view .LVU695
 2682 0060 6260     		str	r2, [r4, #4]
 557:libscpi/src/lexer.c ****     }
 2683              		.loc 1 557 9 is_stmt 1 view .LVU696
 557:libscpi/src/lexer.c ****     }
 2684              		.loc 1 557 20 is_stmt 0 view .LVU697
 2685 0062 0023     		movs	r3, #0
 2686 0064 AB60     		str	r3, [r5, #8]
 2687 0066 E0E7     		b	.L186
 2688              		.cfi_endproc
 2689              	.LFE32:
 2691              		.section	.text.scpiLex_NondecimalNumericData,"ax",%progbits
 2692              		.align	1
 2693              		.global	scpiLex_NondecimalNumericData
 2694              		.hidden	scpiLex_NondecimalNumericData
 2695              		.syntax unified
 2696              		.code	16
 2697              		.thumb_func
 2698              		.fpu softvfp
 2700              	scpiLex_NondecimalNumericData:
 2701              	.LVL263:
 2702              	.LFB36:
 597:libscpi/src/lexer.c ****     int someNumbers = 0;
 2703              		.loc 1 597 78 is_stmt 1 view -0
 2704              		.cfi_startproc
 2705              		@ args = 0, pretend = 0, frame = 0
ARM GAS  /tmp/ccEnAiLD.s 			page 66


 2706              		@ frame_needed = 0, uses_anonymous_args = 0
 597:libscpi/src/lexer.c ****     int someNumbers = 0;
 2707              		.loc 1 597 78 is_stmt 0 view .LVU699
 2708 0000 F8B5     		push	{r3, r4, r5, r6, r7, lr}
 2709              	.LCFI27:
 2710              		.cfi_def_cfa_offset 24
 2711              		.cfi_offset 3, -24
 2712              		.cfi_offset 4, -20
 2713              		.cfi_offset 5, -16
 2714              		.cfi_offset 6, -12
 2715              		.cfi_offset 7, -8
 2716              		.cfi_offset 14, -4
 2717 0002 0500     		movs	r5, r0
 2718 0004 0C00     		movs	r4, r1
 598:libscpi/src/lexer.c ****     token->ptr = state->pos;
 2719              		.loc 1 598 5 is_stmt 1 view .LVU700
 2720              	.LVL264:
 599:libscpi/src/lexer.c ****     if (skipChr(state, '#')) {
 2721              		.loc 1 599 5 view .LVU701
 599:libscpi/src/lexer.c ****     if (skipChr(state, '#')) {
 2722              		.loc 1 599 16 is_stmt 0 view .LVU702
 2723 0006 4368     		ldr	r3, [r0, #4]
 2724 0008 4B60     		str	r3, [r1, #4]
 600:libscpi/src/lexer.c ****         if (!iseos(state)) {
 2725              		.loc 1 600 5 is_stmt 1 view .LVU703
 600:libscpi/src/lexer.c ****         if (!iseos(state)) {
 2726              		.loc 1 600 9 is_stmt 0 view .LVU704
 2727 000a 2321     		movs	r1, #35
 2728              	.LVL265:
 600:libscpi/src/lexer.c ****         if (!iseos(state)) {
 2729              		.loc 1 600 9 view .LVU705
 2730 000c FFF7FEFF 		bl	skipChr
 2731              	.LVL266:
 600:libscpi/src/lexer.c ****         if (!iseos(state)) {
 2732              		.loc 1 600 8 view .LVU706
 2733 0010 0028     		cmp	r0, #0
 2734 0012 15D0     		beq	.L189
 601:libscpi/src/lexer.c ****             if (isH(state->pos[0])) {
 2735              		.loc 1 601 9 is_stmt 1 view .LVU707
 601:libscpi/src/lexer.c ****             if (isH(state->pos[0])) {
 2736              		.loc 1 601 14 is_stmt 0 view .LVU708
 2737 0014 2800     		movs	r0, r5
 2738 0016 FFF7FEFF 		bl	iseos
 2739              	.LVL267:
 601:libscpi/src/lexer.c ****             if (isH(state->pos[0])) {
 2740              		.loc 1 601 12 view .LVU709
 2741 001a 0028     		cmp	r0, #0
 2742 001c 10D1     		bne	.L189
 602:libscpi/src/lexer.c ****                 state->pos++;
 2743              		.loc 1 602 13 is_stmt 1 view .LVU710
 602:libscpi/src/lexer.c ****                 state->pos++;
 2744              		.loc 1 602 26 is_stmt 0 view .LVU711
 2745 001e 6E68     		ldr	r6, [r5, #4]
 602:libscpi/src/lexer.c ****                 state->pos++;
 2746              		.loc 1 602 31 view .LVU712
 2747 0020 3778     		ldrb	r7, [r6]
 602:libscpi/src/lexer.c ****                 state->pos++;
ARM GAS  /tmp/ccEnAiLD.s 			page 67


 2748              		.loc 1 602 17 view .LVU713
 2749 0022 3800     		movs	r0, r7
 2750 0024 FFF7FEFF 		bl	isH
 2751              	.LVL268:
 602:libscpi/src/lexer.c ****                 state->pos++;
 2752              		.loc 1 602 16 view .LVU714
 2753 0028 0028     		cmp	r0, #0
 2754 002a 14D1     		bne	.L196
 606:libscpi/src/lexer.c ****                 state->pos++;
 2755              		.loc 1 606 20 is_stmt 1 view .LVU715
 606:libscpi/src/lexer.c ****                 state->pos++;
 2756              		.loc 1 606 24 is_stmt 0 view .LVU716
 2757 002c 3800     		movs	r0, r7
 2758 002e FFF7FEFF 		bl	isQ
 2759              	.LVL269:
 606:libscpi/src/lexer.c ****                 state->pos++;
 2760              		.loc 1 606 23 view .LVU717
 2761 0032 0028     		cmp	r0, #0
 2762 0034 1FD1     		bne	.L197
 610:libscpi/src/lexer.c ****                 state->pos++;
 2763              		.loc 1 610 20 is_stmt 1 view .LVU718
 610:libscpi/src/lexer.c ****                 state->pos++;
 2764              		.loc 1 610 24 is_stmt 0 view .LVU719
 2765 0036 3800     		movs	r0, r7
 2766 0038 FFF7FEFF 		bl	isB
 2767              	.LVL270:
 610:libscpi/src/lexer.c ****                 state->pos++;
 2768              		.loc 1 610 23 view .LVU720
 2769 003c 0028     		cmp	r0, #0
 2770 003e 22D1     		bne	.L198
 2771              	.LVL271:
 2772              	.L189:
 622:libscpi/src/lexer.c ****         state->pos = token->ptr;
 2773              		.loc 1 622 9 is_stmt 1 view .LVU721
 622:libscpi/src/lexer.c ****         state->pos = token->ptr;
 2774              		.loc 1 622 21 is_stmt 0 view .LVU722
 2775 0040 1A23     		movs	r3, #26
 2776 0042 2370     		strb	r3, [r4]
 623:libscpi/src/lexer.c ****         token->len = 0;
 2777              		.loc 1 623 9 is_stmt 1 view .LVU723
 623:libscpi/src/lexer.c ****         token->len = 0;
 2778              		.loc 1 623 20 is_stmt 0 view .LVU724
 2779 0044 6368     		ldr	r3, [r4, #4]
 2780 0046 6B60     		str	r3, [r5, #4]
 624:libscpi/src/lexer.c ****     }
 2781              		.loc 1 624 9 is_stmt 1 view .LVU725
 624:libscpi/src/lexer.c ****     }
 2782              		.loc 1 624 20 is_stmt 0 view .LVU726
 2783 0048 0023     		movs	r3, #0
 2784 004a A360     		str	r3, [r4, #8]
 2785              	.L193:
 626:libscpi/src/lexer.c **** }
 2786              		.loc 1 626 5 is_stmt 1 view .LVU727
 626:libscpi/src/lexer.c **** }
 2787              		.loc 1 626 17 is_stmt 0 view .LVU728
 2788 004c A068     		ldr	r0, [r4, #8]
 626:libscpi/src/lexer.c **** }
ARM GAS  /tmp/ccEnAiLD.s 			page 68


 2789              		.loc 1 626 44 view .LVU729
 2790 004e 0028     		cmp	r0, #0
 2791 0050 21DD     		ble	.L195
 626:libscpi/src/lexer.c **** }
 2792              		.loc 1 626 44 discriminator 1 view .LVU730
 2793 0052 0230     		adds	r0, r0, #2
 2794              	.L188:
 627:libscpi/src/lexer.c **** 
 2795              		.loc 1 627 1 view .LVU731
 2796              		@ sp needed
 2797              	.LVL272:
 2798              	.LVL273:
 627:libscpi/src/lexer.c **** 
 2799              		.loc 1 627 1 view .LVU732
 2800 0054 F8BD     		pop	{r3, r4, r5, r6, r7, pc}
 2801              	.LVL274:
 2802              	.L196:
 603:libscpi/src/lexer.c ****                 someNumbers = skipHexNum(state);
 2803              		.loc 1 603 17 is_stmt 1 view .LVU733
 603:libscpi/src/lexer.c ****                 someNumbers = skipHexNum(state);
 2804              		.loc 1 603 27 is_stmt 0 view .LVU734
 2805 0056 0136     		adds	r6, r6, #1
 2806 0058 6E60     		str	r6, [r5, #4]
 604:libscpi/src/lexer.c ****                 token->type = SCPI_TOKEN_HEXNUM;
 2807              		.loc 1 604 17 is_stmt 1 view .LVU735
 604:libscpi/src/lexer.c ****                 token->type = SCPI_TOKEN_HEXNUM;
 2808              		.loc 1 604 31 is_stmt 0 view .LVU736
 2809 005a 2800     		movs	r0, r5
 2810 005c FFF7FEFF 		bl	skipHexNum
 2811              	.LVL275:
 605:libscpi/src/lexer.c ****             } else if (isQ(state->pos[0])) {
 2812              		.loc 1 605 17 is_stmt 1 view .LVU737
 605:libscpi/src/lexer.c ****             } else if (isQ(state->pos[0])) {
 2813              		.loc 1 605 29 is_stmt 0 view .LVU738
 2814 0060 0623     		movs	r3, #6
 2815 0062 2370     		strb	r3, [r4]
 2816              	.L191:
 618:libscpi/src/lexer.c ****         token->ptr += 2; /* ignore number prefix */
 2817              		.loc 1 618 5 is_stmt 1 view .LVU739
 618:libscpi/src/lexer.c ****         token->ptr += 2; /* ignore number prefix */
 2818              		.loc 1 618 8 is_stmt 0 view .LVU740
 2819 0064 0028     		cmp	r0, #0
 2820 0066 EBD0     		beq	.L189
 619:libscpi/src/lexer.c ****         token->len = state->pos - token->ptr;
 2821              		.loc 1 619 9 is_stmt 1 view .LVU741
 619:libscpi/src/lexer.c ****         token->len = state->pos - token->ptr;
 2822              		.loc 1 619 20 is_stmt 0 view .LVU742
 2823 0068 6368     		ldr	r3, [r4, #4]
 2824 006a 0233     		adds	r3, r3, #2
 2825 006c 6360     		str	r3, [r4, #4]
 620:libscpi/src/lexer.c ****     } else {
 2826              		.loc 1 620 9 is_stmt 1 view .LVU743
 620:libscpi/src/lexer.c ****     } else {
 2827              		.loc 1 620 27 is_stmt 0 view .LVU744
 2828 006e 6A68     		ldr	r2, [r5, #4]
 620:libscpi/src/lexer.c ****     } else {
 2829              		.loc 1 620 33 view .LVU745
ARM GAS  /tmp/ccEnAiLD.s 			page 69


 2830 0070 D31A     		subs	r3, r2, r3
 620:libscpi/src/lexer.c ****     } else {
 2831              		.loc 1 620 20 view .LVU746
 2832 0072 A360     		str	r3, [r4, #8]
 2833 0074 EAE7     		b	.L193
 2834              	.LVL276:
 2835              	.L197:
 607:libscpi/src/lexer.c ****                 someNumbers = skipOctNum(state);
 2836              		.loc 1 607 17 is_stmt 1 view .LVU747
 607:libscpi/src/lexer.c ****                 someNumbers = skipOctNum(state);
 2837              		.loc 1 607 27 is_stmt 0 view .LVU748
 2838 0076 0136     		adds	r6, r6, #1
 2839 0078 6E60     		str	r6, [r5, #4]
 608:libscpi/src/lexer.c ****                 token->type = SCPI_TOKEN_OCTNUM;
 2840              		.loc 1 608 17 is_stmt 1 view .LVU749
 608:libscpi/src/lexer.c ****                 token->type = SCPI_TOKEN_OCTNUM;
 2841              		.loc 1 608 31 is_stmt 0 view .LVU750
 2842 007a 2800     		movs	r0, r5
 2843 007c FFF7FEFF 		bl	skipOctNum
 2844              	.LVL277:
 609:libscpi/src/lexer.c ****             } else if (isB(state->pos[0])) {
 2845              		.loc 1 609 17 is_stmt 1 view .LVU751
 609:libscpi/src/lexer.c ****             } else if (isB(state->pos[0])) {
 2846              		.loc 1 609 29 is_stmt 0 view .LVU752
 2847 0080 0723     		movs	r3, #7
 2848 0082 2370     		strb	r3, [r4]
 2849 0084 EEE7     		b	.L191
 2850              	.LVL278:
 2851              	.L198:
 611:libscpi/src/lexer.c ****                 someNumbers = skipBinNum(state);
 2852              		.loc 1 611 17 is_stmt 1 view .LVU753
 611:libscpi/src/lexer.c ****                 someNumbers = skipBinNum(state);
 2853              		.loc 1 611 27 is_stmt 0 view .LVU754
 2854 0086 0136     		adds	r6, r6, #1
 2855 0088 6E60     		str	r6, [r5, #4]
 612:libscpi/src/lexer.c ****                 token->type = SCPI_TOKEN_BINNUM;
 2856              		.loc 1 612 17 is_stmt 1 view .LVU755
 612:libscpi/src/lexer.c ****                 token->type = SCPI_TOKEN_BINNUM;
 2857              		.loc 1 612 31 is_stmt 0 view .LVU756
 2858 008a 2800     		movs	r0, r5
 2859 008c FFF7FEFF 		bl	skipBinNum
 2860              	.LVL279:
 613:libscpi/src/lexer.c ****             }
 2861              		.loc 1 613 17 is_stmt 1 view .LVU757
 613:libscpi/src/lexer.c ****             }
 2862              		.loc 1 613 29 is_stmt 0 view .LVU758
 2863 0090 0823     		movs	r3, #8
 2864 0092 2370     		strb	r3, [r4]
 2865 0094 E6E7     		b	.L191
 2866              	.LVL280:
 2867              	.L195:
 626:libscpi/src/lexer.c **** }
 2868              		.loc 1 626 44 view .LVU759
 2869 0096 0020     		movs	r0, #0
 2870 0098 DCE7     		b	.L188
 2871              		.cfi_endproc
 2872              	.LFE36:
ARM GAS  /tmp/ccEnAiLD.s 			page 70


 2874              		.section	.text.scpiLex_StringProgramData,"ax",%progbits
 2875              		.align	1
 2876              		.global	scpiLex_StringProgramData
 2877              		.hidden	scpiLex_StringProgramData
 2878              		.syntax unified
 2879              		.code	16
 2880              		.thumb_func
 2881              		.fpu softvfp
 2883              	scpiLex_StringProgramData:
 2884              	.LVL281:
 2885              	.LFB41:
 666:libscpi/src/lexer.c ****     token->ptr = state->pos;
 2886              		.loc 1 666 74 is_stmt 1 view -0
 2887              		.cfi_startproc
 2888              		@ args = 0, pretend = 0, frame = 0
 2889              		@ frame_needed = 0, uses_anonymous_args = 0
 666:libscpi/src/lexer.c ****     token->ptr = state->pos;
 2890              		.loc 1 666 74 is_stmt 0 view .LVU761
 2891 0000 70B5     		push	{r4, r5, r6, lr}
 2892              	.LCFI28:
 2893              		.cfi_def_cfa_offset 16
 2894              		.cfi_offset 4, -16
 2895              		.cfi_offset 5, -12
 2896              		.cfi_offset 6, -8
 2897              		.cfi_offset 14, -4
 2898 0002 0400     		movs	r4, r0
 2899 0004 0D00     		movs	r5, r1
 667:libscpi/src/lexer.c **** 
 2900              		.loc 1 667 5 is_stmt 1 view .LVU762
 667:libscpi/src/lexer.c **** 
 2901              		.loc 1 667 23 is_stmt 0 view .LVU763
 2902 0006 4668     		ldr	r6, [r0, #4]
 667:libscpi/src/lexer.c **** 
 2903              		.loc 1 667 16 view .LVU764
 2904 0008 4E60     		str	r6, [r1, #4]
 669:libscpi/src/lexer.c ****         if (ischr(state, '"')) {
 2905              		.loc 1 669 5 is_stmt 1 view .LVU765
 669:libscpi/src/lexer.c ****         if (ischr(state, '"')) {
 2906              		.loc 1 669 10 is_stmt 0 view .LVU766
 2907 000a FFF7FEFF 		bl	iseos
 2908              	.LVL282:
 669:libscpi/src/lexer.c ****         if (ischr(state, '"')) {
 2909              		.loc 1 669 8 view .LVU767
 2910 000e 0028     		cmp	r0, #0
 2911 0010 0BD1     		bne	.L200
 670:libscpi/src/lexer.c ****             state->pos++;
 2912              		.loc 1 670 9 is_stmt 1 view .LVU768
 670:libscpi/src/lexer.c ****             state->pos++;
 2913              		.loc 1 670 13 is_stmt 0 view .LVU769
 2914 0012 2221     		movs	r1, #34
 2915 0014 2000     		movs	r0, r4
 2916 0016 FFF7FEFF 		bl	ischr
 2917              	.LVL283:
 670:libscpi/src/lexer.c ****             state->pos++;
 2918              		.loc 1 670 12 view .LVU770
 2919 001a 0028     		cmp	r0, #0
 2920 001c 0FD1     		bne	.L206
ARM GAS  /tmp/ccEnAiLD.s 			page 71


 680:libscpi/src/lexer.c ****             state->pos++;
 2921              		.loc 1 680 16 is_stmt 1 view .LVU771
 680:libscpi/src/lexer.c ****             state->pos++;
 2922              		.loc 1 680 20 is_stmt 0 view .LVU772
 2923 001e 2721     		movs	r1, #39
 2924 0020 2000     		movs	r0, r4
 2925 0022 FFF7FEFF 		bl	ischr
 2926              	.LVL284:
 680:libscpi/src/lexer.c ****             state->pos++;
 2927              		.loc 1 680 19 view .LVU773
 2928 0026 0028     		cmp	r0, #0
 2929 0028 25D1     		bne	.L207
 2930              	.L200:
 693:libscpi/src/lexer.c **** 
 2931              		.loc 1 693 5 is_stmt 1 view .LVU774
 693:libscpi/src/lexer.c **** 
 2932              		.loc 1 693 36 is_stmt 0 view .LVU775
 2933 002a 6A68     		ldr	r2, [r5, #4]
 693:libscpi/src/lexer.c **** 
 2934              		.loc 1 693 29 view .LVU776
 2935 002c 6368     		ldr	r3, [r4, #4]
 2936 002e 9B1A     		subs	r3, r3, r2
 693:libscpi/src/lexer.c **** 
 2937              		.loc 1 693 16 view .LVU777
 2938 0030 AB60     		str	r3, [r5, #8]
 695:libscpi/src/lexer.c ****         /* token->ptr++;
 2939              		.loc 1 695 5 is_stmt 1 view .LVU778
 695:libscpi/src/lexer.c ****         /* token->ptr++;
 2940              		.loc 1 695 8 is_stmt 0 view .LVU779
 2941 0032 002B     		cmp	r3, #0
 2942 0034 3BDD     		ble	.L208
 2943              	.L204:
 704:libscpi/src/lexer.c **** }
 2944              		.loc 1 704 5 is_stmt 1 view .LVU780
 704:libscpi/src/lexer.c **** }
 2945              		.loc 1 704 17 is_stmt 0 view .LVU781
 2946 0036 A868     		ldr	r0, [r5, #8]
 704:libscpi/src/lexer.c **** }
 2947              		.loc 1 704 40 view .LVU782
 2948 0038 0028     		cmp	r0, #0
 2949 003a 3EDB     		blt	.L209
 2950              	.L205:
 705:libscpi/src/lexer.c **** 
 2951              		.loc 1 705 1 view .LVU783
 2952              		@ sp needed
 2953              	.LVL285:
 2954              	.LVL286:
 705:libscpi/src/lexer.c **** 
 2955              		.loc 1 705 1 view .LVU784
 2956 003c 70BD     		pop	{r4, r5, r6, pc}
 2957              	.LVL287:
 2958              	.L206:
 671:libscpi/src/lexer.c ****             token->type = SCPI_TOKEN_DOUBLE_QUOTE_PROGRAM_DATA;
 2959              		.loc 1 671 13 is_stmt 1 view .LVU785
 671:libscpi/src/lexer.c ****             token->type = SCPI_TOKEN_DOUBLE_QUOTE_PROGRAM_DATA;
 2960              		.loc 1 671 23 is_stmt 0 view .LVU786
 2961 003e 0136     		adds	r6, r6, #1
ARM GAS  /tmp/ccEnAiLD.s 			page 72


 2962 0040 6660     		str	r6, [r4, #4]
 672:libscpi/src/lexer.c ****             skipDoubleQuoteProgramData(state);
 2963              		.loc 1 672 13 is_stmt 1 view .LVU787
 672:libscpi/src/lexer.c ****             skipDoubleQuoteProgramData(state);
 2964              		.loc 1 672 25 is_stmt 0 view .LVU788
 2965 0042 0F23     		movs	r3, #15
 2966 0044 2B70     		strb	r3, [r5]
 673:libscpi/src/lexer.c ****             if (!iseos(state) && ischr(state, '"')) {
 2967              		.loc 1 673 13 is_stmt 1 view .LVU789
 2968 0046 2000     		movs	r0, r4
 2969 0048 FFF7FEFF 		bl	skipDoubleQuoteProgramData
 2970              	.LVL288:
 674:libscpi/src/lexer.c ****                 state->pos++;
 2971              		.loc 1 674 13 view .LVU790
 674:libscpi/src/lexer.c ****                 state->pos++;
 2972              		.loc 1 674 18 is_stmt 0 view .LVU791
 2973 004c 2000     		movs	r0, r4
 2974 004e FFF7FEFF 		bl	iseos
 2975              	.LVL289:
 674:libscpi/src/lexer.c ****                 state->pos++;
 2976              		.loc 1 674 16 view .LVU792
 2977 0052 0028     		cmp	r0, #0
 2978 0054 0CD1     		bne	.L202
 674:libscpi/src/lexer.c ****                 state->pos++;
 2979              		.loc 1 674 34 discriminator 1 view .LVU793
 2980 0056 2221     		movs	r1, #34
 2981 0058 2000     		movs	r0, r4
 2982 005a FFF7FEFF 		bl	ischr
 2983              	.LVL290:
 674:libscpi/src/lexer.c ****                 state->pos++;
 2984              		.loc 1 674 31 discriminator 1 view .LVU794
 2985 005e 0028     		cmp	r0, #0
 2986 0060 06D0     		beq	.L202
 675:libscpi/src/lexer.c ****                 token->len = state->pos - token->ptr;
 2987              		.loc 1 675 17 is_stmt 1 view .LVU795
 675:libscpi/src/lexer.c ****                 token->len = state->pos - token->ptr;
 2988              		.loc 1 675 27 is_stmt 0 view .LVU796
 2989 0062 6368     		ldr	r3, [r4, #4]
 2990 0064 0133     		adds	r3, r3, #1
 2991 0066 6360     		str	r3, [r4, #4]
 676:libscpi/src/lexer.c ****             } else {
 2992              		.loc 1 676 17 is_stmt 1 view .LVU797
 676:libscpi/src/lexer.c ****             } else {
 2993              		.loc 1 676 41 is_stmt 0 view .LVU798
 2994 0068 6A68     		ldr	r2, [r5, #4]
 2995 006a 9B1A     		subs	r3, r3, r2
 676:libscpi/src/lexer.c ****             } else {
 2996              		.loc 1 676 28 view .LVU799
 2997 006c AB60     		str	r3, [r5, #8]
 2998 006e DCE7     		b	.L200
 2999              	.L202:
 678:libscpi/src/lexer.c ****             }
 3000              		.loc 1 678 17 is_stmt 1 view .LVU800
 678:libscpi/src/lexer.c ****             }
 3001              		.loc 1 678 28 is_stmt 0 view .LVU801
 3002 0070 6B68     		ldr	r3, [r5, #4]
 3003 0072 6360     		str	r3, [r4, #4]
ARM GAS  /tmp/ccEnAiLD.s 			page 73


 3004 0074 D9E7     		b	.L200
 3005              	.L207:
 681:libscpi/src/lexer.c ****             token->type = SCPI_TOKEN_SINGLE_QUOTE_PROGRAM_DATA;
 3006              		.loc 1 681 13 is_stmt 1 view .LVU802
 681:libscpi/src/lexer.c ****             token->type = SCPI_TOKEN_SINGLE_QUOTE_PROGRAM_DATA;
 3007              		.loc 1 681 23 is_stmt 0 view .LVU803
 3008 0076 0136     		adds	r6, r6, #1
 3009 0078 6660     		str	r6, [r4, #4]
 682:libscpi/src/lexer.c ****             skipSingleQuoteProgramData(state);
 3010              		.loc 1 682 13 is_stmt 1 view .LVU804
 682:libscpi/src/lexer.c ****             skipSingleQuoteProgramData(state);
 3011              		.loc 1 682 25 is_stmt 0 view .LVU805
 3012 007a 0E23     		movs	r3, #14
 3013 007c 2B70     		strb	r3, [r5]
 683:libscpi/src/lexer.c ****             if (!iseos(state) && ischr(state, '\'')) {
 3014              		.loc 1 683 13 is_stmt 1 view .LVU806
 3015 007e 2000     		movs	r0, r4
 3016 0080 FFF7FEFF 		bl	skipSingleQuoteProgramData
 3017              	.LVL291:
 684:libscpi/src/lexer.c ****                 state->pos++;
 3018              		.loc 1 684 13 view .LVU807
 684:libscpi/src/lexer.c ****                 state->pos++;
 3019              		.loc 1 684 18 is_stmt 0 view .LVU808
 3020 0084 2000     		movs	r0, r4
 3021 0086 FFF7FEFF 		bl	iseos
 3022              	.LVL292:
 684:libscpi/src/lexer.c ****                 state->pos++;
 3023              		.loc 1 684 16 view .LVU809
 3024 008a 0028     		cmp	r0, #0
 3025 008c 0CD1     		bne	.L203
 684:libscpi/src/lexer.c ****                 state->pos++;
 3026              		.loc 1 684 34 discriminator 1 view .LVU810
 3027 008e 2721     		movs	r1, #39
 3028 0090 2000     		movs	r0, r4
 3029 0092 FFF7FEFF 		bl	ischr
 3030              	.LVL293:
 684:libscpi/src/lexer.c ****                 state->pos++;
 3031              		.loc 1 684 31 discriminator 1 view .LVU811
 3032 0096 0028     		cmp	r0, #0
 3033 0098 06D0     		beq	.L203
 685:libscpi/src/lexer.c ****                 token->len = state->pos - token->ptr;
 3034              		.loc 1 685 17 is_stmt 1 view .LVU812
 685:libscpi/src/lexer.c ****                 token->len = state->pos - token->ptr;
 3035              		.loc 1 685 27 is_stmt 0 view .LVU813
 3036 009a 6368     		ldr	r3, [r4, #4]
 3037 009c 0133     		adds	r3, r3, #1
 3038 009e 6360     		str	r3, [r4, #4]
 686:libscpi/src/lexer.c ****             } else {
 3039              		.loc 1 686 17 is_stmt 1 view .LVU814
 686:libscpi/src/lexer.c ****             } else {
 3040              		.loc 1 686 41 is_stmt 0 view .LVU815
 3041 00a0 6A68     		ldr	r2, [r5, #4]
 3042 00a2 9B1A     		subs	r3, r3, r2
 686:libscpi/src/lexer.c ****             } else {
 3043              		.loc 1 686 28 view .LVU816
 3044 00a4 AB60     		str	r3, [r5, #8]
 3045 00a6 C0E7     		b	.L200
ARM GAS  /tmp/ccEnAiLD.s 			page 74


 3046              	.L203:
 688:libscpi/src/lexer.c ****             }
 3047              		.loc 1 688 17 is_stmt 1 view .LVU817
 688:libscpi/src/lexer.c ****             }
 3048              		.loc 1 688 28 is_stmt 0 view .LVU818
 3049 00a8 6B68     		ldr	r3, [r5, #4]
 3050 00aa 6360     		str	r3, [r4, #4]
 3051 00ac BDE7     		b	.L200
 3052              	.L208:
 699:libscpi/src/lexer.c ****         state->pos = token->ptr;
 3053              		.loc 1 699 9 is_stmt 1 view .LVU819
 699:libscpi/src/lexer.c ****         state->pos = token->ptr;
 3054              		.loc 1 699 21 is_stmt 0 view .LVU820
 3055 00ae 1A23     		movs	r3, #26
 3056 00b0 2B70     		strb	r3, [r5]
 700:libscpi/src/lexer.c ****         token->len = 0;
 3057              		.loc 1 700 9 is_stmt 1 view .LVU821
 700:libscpi/src/lexer.c ****         token->len = 0;
 3058              		.loc 1 700 20 is_stmt 0 view .LVU822
 3059 00b2 6260     		str	r2, [r4, #4]
 701:libscpi/src/lexer.c ****     }
 3060              		.loc 1 701 9 is_stmt 1 view .LVU823
 701:libscpi/src/lexer.c ****     }
 3061              		.loc 1 701 20 is_stmt 0 view .LVU824
 3062 00b4 0023     		movs	r3, #0
 3063 00b6 AB60     		str	r3, [r5, #8]
 3064 00b8 BDE7     		b	.L204
 3065              	.L209:
 704:libscpi/src/lexer.c **** }
 3066              		.loc 1 704 40 view .LVU825
 3067 00ba 0020     		movs	r0, #0
 3068 00bc BEE7     		b	.L205
 3069              		.cfi_endproc
 3070              	.LFE41:
 3072              		.section	.text.scpiLex_ArbitraryBlockProgramData,"ax",%progbits
 3073              		.align	1
 3074              		.global	scpiLex_ArbitraryBlockProgramData
 3075              		.hidden	scpiLex_ArbitraryBlockProgramData
 3076              		.syntax unified
 3077              		.code	16
 3078              		.thumb_func
 3079              		.fpu softvfp
 3081              	scpiLex_ArbitraryBlockProgramData:
 3082              	.LVL294:
 3083              	.LFB43:
 718:libscpi/src/lexer.c ****     int i;
 3084              		.loc 1 718 82 is_stmt 1 view -0
 3085              		.cfi_startproc
 3086              		@ args = 0, pretend = 0, frame = 0
 3087              		@ frame_needed = 0, uses_anonymous_args = 0
 718:libscpi/src/lexer.c ****     int i;
 3088              		.loc 1 718 82 is_stmt 0 view .LVU827
 3089 0000 F8B5     		push	{r3, r4, r5, r6, r7, lr}
 3090              	.LCFI29:
 3091              		.cfi_def_cfa_offset 24
 3092              		.cfi_offset 3, -24
 3093              		.cfi_offset 4, -20
ARM GAS  /tmp/ccEnAiLD.s 			page 75


 3094              		.cfi_offset 5, -16
 3095              		.cfi_offset 6, -12
 3096              		.cfi_offset 7, -8
 3097              		.cfi_offset 14, -4
 3098 0002 CE46     		mov	lr, r9
 3099 0004 4746     		mov	r7, r8
 3100 0006 80B5     		push	{r7, lr}
 3101              	.LCFI30:
 3102              		.cfi_def_cfa_offset 32
 3103              		.cfi_offset 8, -32
 3104              		.cfi_offset 9, -28
 3105 0008 0400     		movs	r4, r0
 3106 000a 0D00     		movs	r5, r1
 719:libscpi/src/lexer.c ****     int arbitraryBlockLength = 0;
 3107              		.loc 1 719 5 is_stmt 1 view .LVU828
 720:libscpi/src/lexer.c ****     const char * ptr = state->pos;
 3108              		.loc 1 720 5 view .LVU829
 3109              	.LVL295:
 721:libscpi/src/lexer.c ****     int validData = -1;
 3110              		.loc 1 721 5 view .LVU830
 721:libscpi/src/lexer.c ****     int validData = -1;
 3111              		.loc 1 721 18 is_stmt 0 view .LVU831
 3112 000c 4768     		ldr	r7, [r0, #4]
 3113              	.LVL296:
 722:libscpi/src/lexer.c ****     token->ptr = state->pos;
 3114              		.loc 1 722 5 is_stmt 1 view .LVU832
 723:libscpi/src/lexer.c **** 
 3115              		.loc 1 723 5 view .LVU833
 723:libscpi/src/lexer.c **** 
 3116              		.loc 1 723 16 is_stmt 0 view .LVU834
 3117 000e 4F60     		str	r7, [r1, #4]
 725:libscpi/src/lexer.c ****         if (!iseos(state) && isNonzeroDigit(state->pos[0])) {
 3118              		.loc 1 725 5 is_stmt 1 view .LVU835
 725:libscpi/src/lexer.c ****         if (!iseos(state) && isNonzeroDigit(state->pos[0])) {
 3119              		.loc 1 725 9 is_stmt 0 view .LVU836
 3120 0010 2321     		movs	r1, #35
 3121              	.LVL297:
 725:libscpi/src/lexer.c ****         if (!iseos(state) && isNonzeroDigit(state->pos[0])) {
 3122              		.loc 1 725 9 view .LVU837
 3123 0012 FFF7FEFF 		bl	skipChr
 3124              	.LVL298:
 725:libscpi/src/lexer.c ****         if (!iseos(state) && isNonzeroDigit(state->pos[0])) {
 3125              		.loc 1 725 8 view .LVU838
 3126 0016 0028     		cmp	r0, #0
 3127 0018 4AD0     		beq	.L219
 726:libscpi/src/lexer.c ****             /* Get number of digits */
 3128              		.loc 1 726 9 is_stmt 1 view .LVU839
 726:libscpi/src/lexer.c ****             /* Get number of digits */
 3129              		.loc 1 726 14 is_stmt 0 view .LVU840
 3130 001a 2000     		movs	r0, r4
 3131 001c FFF7FEFF 		bl	iseos
 3132              	.LVL299:
 3133 0020 8046     		mov	r8, r0
 726:libscpi/src/lexer.c ****             /* Get number of digits */
 3134              		.loc 1 726 12 view .LVU841
 3135 0022 0028     		cmp	r0, #0
 3136 0024 3ED1     		bne	.L212
ARM GAS  /tmp/ccEnAiLD.s 			page 76


 726:libscpi/src/lexer.c ****             /* Get number of digits */
 3137              		.loc 1 726 50 discriminator 1 view .LVU842
 3138 0026 6368     		ldr	r3, [r4, #4]
 3139 0028 9946     		mov	r9, r3
 726:libscpi/src/lexer.c ****             /* Get number of digits */
 3140              		.loc 1 726 55 discriminator 1 view .LVU843
 3141 002a 1E78     		ldrb	r6, [r3]
 726:libscpi/src/lexer.c ****             /* Get number of digits */
 3142              		.loc 1 726 30 discriminator 1 view .LVU844
 3143 002c 3000     		movs	r0, r6
 3144 002e FFF7FEFF 		bl	isNonzeroDigit
 3145              	.LVL300:
 726:libscpi/src/lexer.c ****             /* Get number of digits */
 3146              		.loc 1 726 27 discriminator 1 view .LVU845
 3147 0032 0028     		cmp	r0, #0
 3148 0034 36D0     		beq	.L212
 728:libscpi/src/lexer.c ****             state->pos++;
 3149              		.loc 1 728 13 is_stmt 1 view .LVU846
 728:libscpi/src/lexer.c ****             state->pos++;
 3150              		.loc 1 728 15 is_stmt 0 view .LVU847
 3151 0036 303E     		subs	r6, r6, #48
 3152              	.LVL301:
 729:libscpi/src/lexer.c **** 
 3153              		.loc 1 729 13 is_stmt 1 view .LVU848
 729:libscpi/src/lexer.c **** 
 3154              		.loc 1 729 23 is_stmt 0 view .LVU849
 3155 0038 4B46     		mov	r3, r9
 3156 003a 0133     		adds	r3, r3, #1
 3157 003c 6360     		str	r3, [r4, #4]
 731:libscpi/src/lexer.c ****                 if (!iseos(state) && isdigit((uint8_t)(state->pos[0]))) {
 3158              		.loc 1 731 13 is_stmt 1 view .LVU850
 720:libscpi/src/lexer.c ****     const char * ptr = state->pos;
 3159              		.loc 1 720 9 is_stmt 0 view .LVU851
 3160 003e C146     		mov	r9, r8
 731:libscpi/src/lexer.c ****                 if (!iseos(state) && isdigit((uint8_t)(state->pos[0]))) {
 3161              		.loc 1 731 13 view .LVU852
 3162 0040 09E0     		b	.L213
 3163              	.LVL302:
 3164              	.L222:
 733:libscpi/src/lexer.c ****                     arbitraryBlockLength += (state->pos[0] - '0');
 3165              		.loc 1 733 21 is_stmt 1 view .LVU853
 733:libscpi/src/lexer.c ****                     arbitraryBlockLength += (state->pos[0] - '0');
 3166              		.loc 1 733 42 is_stmt 0 view .LVU854
 3167 0042 4B46     		mov	r3, r9
 3168 0044 9B00     		lsls	r3, r3, #2
 3169 0046 4B44     		add	r3, r3, r9
 3170 0048 5B00     		lsls	r3, r3, #1
 3171              	.LVL303:
 734:libscpi/src/lexer.c ****                     state->pos++;
 3172              		.loc 1 734 21 is_stmt 1 view .LVU855
 734:libscpi/src/lexer.c ****                     state->pos++;
 3173              		.loc 1 734 60 is_stmt 0 view .LVU856
 3174 004a 3039     		subs	r1, r1, #48
 734:libscpi/src/lexer.c ****                     state->pos++;
 3175              		.loc 1 734 42 view .LVU857
 3176 004c 8946     		mov	r9, r1
 3177 004e 9944     		add	r9, r9, r3
ARM GAS  /tmp/ccEnAiLD.s 			page 77


 3178              	.LVL304:
 735:libscpi/src/lexer.c ****                 } else {
 3179              		.loc 1 735 21 is_stmt 1 view .LVU858
 735:libscpi/src/lexer.c ****                 } else {
 3180              		.loc 1 735 31 is_stmt 0 view .LVU859
 3181 0050 0132     		adds	r2, r2, #1
 3182 0052 6260     		str	r2, [r4, #4]
 731:libscpi/src/lexer.c ****                 if (!iseos(state) && isdigit((uint8_t)(state->pos[0]))) {
 3183              		.loc 1 731 27 is_stmt 1 view .LVU860
 731:libscpi/src/lexer.c ****                 if (!iseos(state) && isdigit((uint8_t)(state->pos[0]))) {
 3184              		.loc 1 731 28 is_stmt 0 view .LVU861
 3185 0054 013E     		subs	r6, r6, #1
 3186              	.LVL305:
 3187              	.L213:
 731:libscpi/src/lexer.c ****                 if (!iseos(state) && isdigit((uint8_t)(state->pos[0]))) {
 3188              		.loc 1 731 20 is_stmt 1 discriminator 1 view .LVU862
 731:libscpi/src/lexer.c ****                 if (!iseos(state) && isdigit((uint8_t)(state->pos[0]))) {
 3189              		.loc 1 731 13 is_stmt 0 discriminator 1 view .LVU863
 3190 0056 002E     		cmp	r6, #0
 3191 0058 0ADD     		ble	.L214
 732:libscpi/src/lexer.c ****                     arbitraryBlockLength *= 10;
 3192              		.loc 1 732 17 is_stmt 1 view .LVU864
 732:libscpi/src/lexer.c ****                     arbitraryBlockLength *= 10;
 3193              		.loc 1 732 22 is_stmt 0 view .LVU865
 3194 005a 2000     		movs	r0, r4
 3195 005c FFF7FEFF 		bl	iseos
 3196              	.LVL306:
 732:libscpi/src/lexer.c ****                     arbitraryBlockLength *= 10;
 3197              		.loc 1 732 20 view .LVU866
 3198 0060 0028     		cmp	r0, #0
 3199 0062 05D1     		bne	.L214
 732:libscpi/src/lexer.c ****                     arbitraryBlockLength *= 10;
 3200              		.loc 1 732 38 discriminator 1 view .LVU867
 3201 0064 6268     		ldr	r2, [r4, #4]
 3202 0066 1178     		ldrb	r1, [r2]
 3203 0068 214B     		ldr	r3, .L223
 3204 006a 5B5C     		ldrb	r3, [r3, r1]
 732:libscpi/src/lexer.c ****                     arbitraryBlockLength *= 10;
 3205              		.loc 1 732 35 discriminator 1 view .LVU868
 3206 006c 5B07     		lsls	r3, r3, #29
 3207 006e E8D4     		bmi	.L222
 3208              	.L214:
 741:libscpi/src/lexer.c ****                 state->pos += arbitraryBlockLength;
 3209              		.loc 1 741 13 is_stmt 1 view .LVU869
 741:libscpi/src/lexer.c ****                 state->pos += arbitraryBlockLength;
 3210              		.loc 1 741 16 is_stmt 0 view .LVU870
 3211 0070 002E     		cmp	r6, #0
 3212 0072 0FD1     		bne	.L216
 742:libscpi/src/lexer.c ****                 if ((state->buffer + state->len) >= (state->pos)) {
 3213              		.loc 1 742 17 is_stmt 1 view .LVU871
 742:libscpi/src/lexer.c ****                 if ((state->buffer + state->len) >= (state->pos)) {
 3214              		.loc 1 742 28 is_stmt 0 view .LVU872
 3215 0074 6168     		ldr	r1, [r4, #4]
 3216 0076 4B46     		mov	r3, r9
 3217 0078 CA18     		adds	r2, r1, r3
 3218 007a 6260     		str	r2, [r4, #4]
 743:libscpi/src/lexer.c ****                     token->ptr = state->pos - arbitraryBlockLength;
ARM GAS  /tmp/ccEnAiLD.s 			page 78


 3219              		.loc 1 743 17 is_stmt 1 view .LVU873
 743:libscpi/src/lexer.c ****                     token->ptr = state->pos - arbitraryBlockLength;
 3220              		.loc 1 743 36 is_stmt 0 view .LVU874
 3221 007c 2368     		ldr	r3, [r4]
 3222 007e A068     		ldr	r0, [r4, #8]
 3223 0080 8446     		mov	ip, r0
 3224 0082 6344     		add	r3, r3, ip
 743:libscpi/src/lexer.c ****                     token->ptr = state->pos - arbitraryBlockLength;
 3225              		.loc 1 743 20 view .LVU875
 3226 0084 9A42     		cmp	r2, r3
 3227 0086 15D8     		bhi	.L211
 744:libscpi/src/lexer.c ****                     token->len = arbitraryBlockLength;
 3228              		.loc 1 744 21 is_stmt 1 view .LVU876
 744:libscpi/src/lexer.c ****                     token->len = arbitraryBlockLength;
 3229              		.loc 1 744 32 is_stmt 0 view .LVU877
 3230 0088 6960     		str	r1, [r5, #4]
 745:libscpi/src/lexer.c ****                     validData = 1;
 3231              		.loc 1 745 21 is_stmt 1 view .LVU878
 745:libscpi/src/lexer.c ****                     validData = 1;
 3232              		.loc 1 745 32 is_stmt 0 view .LVU879
 3233 008a 4B46     		mov	r3, r9
 3234 008c AB60     		str	r3, [r5, #8]
 746:libscpi/src/lexer.c ****                 } else {
 3235              		.loc 1 746 21 is_stmt 1 view .LVU880
 3236              	.LVL307:
 758:libscpi/src/lexer.c ****         /* valid */
 3237              		.loc 1 758 5 view .LVU881
 760:libscpi/src/lexer.c ****     } else if (validData == 0) {
 3238              		.loc 1 760 9 view .LVU882
 760:libscpi/src/lexer.c ****     } else if (validData == 0) {
 3239              		.loc 1 760 21 is_stmt 0 view .LVU883
 3240 008e 0D23     		movs	r3, #13
 3241 0090 2B70     		strb	r3, [r5]
 3242 0092 1AE0     		b	.L217
 3243              	.LVL308:
 3244              	.L216:
 750:libscpi/src/lexer.c ****                 validData = 0;
 3245              		.loc 1 750 20 is_stmt 1 view .LVU884
 750:libscpi/src/lexer.c ****                 validData = 0;
 3246              		.loc 1 750 24 is_stmt 0 view .LVU885
 3247 0094 2000     		movs	r0, r4
 3248 0096 FFF7FEFF 		bl	iseos
 3249              	.LVL309:
 750:libscpi/src/lexer.c ****                 validData = 0;
 3250              		.loc 1 750 23 view .LVU886
 3251 009a 0028     		cmp	r0, #0
 3252 009c 1DD1     		bne	.L220
 722:libscpi/src/lexer.c ****     token->ptr = state->pos;
 3253              		.loc 1 722 9 view .LVU887
 3254 009e 0126     		movs	r6, #1
 3255              	.LVL310:
 722:libscpi/src/lexer.c ****     token->ptr = state->pos;
 3256              		.loc 1 722 9 view .LVU888
 3257 00a0 7642     		rsbs	r6, r6, #0
 3258 00a2 07E0     		b	.L211
 3259              	.LVL311:
 3260              	.L212:
ARM GAS  /tmp/ccEnAiLD.s 			page 79


 753:libscpi/src/lexer.c ****             validData = 0;
 3261              		.loc 1 753 16 is_stmt 1 view .LVU889
 753:libscpi/src/lexer.c ****             validData = 0;
 3262              		.loc 1 753 19 is_stmt 0 view .LVU890
 3263 00a4 4346     		mov	r3, r8
 3264 00a6 002B     		cmp	r3, #0
 3265 00a8 19D1     		bne	.L221
 722:libscpi/src/lexer.c ****     token->ptr = state->pos;
 3266              		.loc 1 722 9 view .LVU891
 3267 00aa 0126     		movs	r6, #1
 3268 00ac 7642     		rsbs	r6, r6, #0
 3269 00ae 01E0     		b	.L211
 3270              	.L219:
 3271 00b0 0126     		movs	r6, #1
 3272 00b2 7642     		rsbs	r6, r6, #0
 3273              	.LVL312:
 3274              	.L211:
 761:libscpi/src/lexer.c ****         /* incomplete */
 3275              		.loc 1 761 12 is_stmt 1 view .LVU892
 761:libscpi/src/lexer.c ****         /* incomplete */
 3276              		.loc 1 761 15 is_stmt 0 view .LVU893
 3277 00b4 002E     		cmp	r6, #0
 3278 00b6 14D1     		bne	.L218
 763:libscpi/src/lexer.c ****         token->len = 0;
 3279              		.loc 1 763 9 is_stmt 1 view .LVU894
 763:libscpi/src/lexer.c ****         token->len = 0;
 3280              		.loc 1 763 21 is_stmt 0 view .LVU895
 3281 00b8 1A23     		movs	r3, #26
 3282 00ba 2B70     		strb	r3, [r5]
 764:libscpi/src/lexer.c ****         state->pos = state->buffer + state->len;
 3283              		.loc 1 764 9 is_stmt 1 view .LVU896
 764:libscpi/src/lexer.c ****         state->pos = state->buffer + state->len;
 3284              		.loc 1 764 20 is_stmt 0 view .LVU897
 3285 00bc 0023     		movs	r3, #0
 3286 00be AB60     		str	r3, [r5, #8]
 765:libscpi/src/lexer.c ****     } else {
 3287              		.loc 1 765 9 is_stmt 1 view .LVU898
 765:libscpi/src/lexer.c ****     } else {
 3288              		.loc 1 765 36 is_stmt 0 view .LVU899
 3289 00c0 2368     		ldr	r3, [r4]
 3290 00c2 A268     		ldr	r2, [r4, #8]
 3291 00c4 9446     		mov	ip, r2
 3292 00c6 6344     		add	r3, r3, ip
 765:libscpi/src/lexer.c ****     } else {
 3293              		.loc 1 765 20 view .LVU900
 3294 00c8 6360     		str	r3, [r4, #4]
 3295              	.L217:
 773:libscpi/src/lexer.c **** }
 3296              		.loc 1 773 5 is_stmt 1 view .LVU901
 773:libscpi/src/lexer.c **** }
 3297              		.loc 1 773 17 is_stmt 0 view .LVU902
 3298 00ca A868     		ldr	r0, [r5, #8]
 773:libscpi/src/lexer.c **** }
 3299              		.loc 1 773 31 view .LVU903
 3300 00cc 6B68     		ldr	r3, [r5, #4]
 773:libscpi/src/lexer.c **** }
 3301              		.loc 1 773 37 view .LVU904
ARM GAS  /tmp/ccEnAiLD.s 			page 80


 3302 00ce DF1B     		subs	r7, r3, r7
 3303              	.LVL313:
 773:libscpi/src/lexer.c **** }
 3304              		.loc 1 773 23 view .LVU905
 3305 00d0 C019     		adds	r0, r0, r7
 774:libscpi/src/lexer.c **** 
 3306              		.loc 1 774 1 view .LVU906
 3307              		@ sp needed
 3308              	.LVL314:
 3309              	.LVL315:
 774:libscpi/src/lexer.c **** 
 3310              		.loc 1 774 1 view .LVU907
 3311 00d2 0CBC     		pop	{r2, r3}
 3312 00d4 9046     		mov	r8, r2
 3313 00d6 9946     		mov	r9, r3
 3314 00d8 F8BD     		pop	{r3, r4, r5, r6, r7, pc}
 3315              	.LVL316:
 3316              	.L220:
 751:libscpi/src/lexer.c ****             }
 3317              		.loc 1 751 27 view .LVU908
 3318 00da 4646     		mov	r6, r8
 3319              	.LVL317:
 751:libscpi/src/lexer.c ****             }
 3320              		.loc 1 751 27 view .LVU909
 3321 00dc EAE7     		b	.L211
 3322              	.LVL318:
 3323              	.L221:
 754:libscpi/src/lexer.c ****         }
 3324              		.loc 1 754 23 view .LVU910
 3325 00de 0026     		movs	r6, #0
 3326 00e0 E8E7     		b	.L211
 3327              	.LVL319:
 3328              	.L218:
 768:libscpi/src/lexer.c ****         state->pos = token->ptr;
 3329              		.loc 1 768 9 is_stmt 1 view .LVU911
 768:libscpi/src/lexer.c ****         state->pos = token->ptr;
 3330              		.loc 1 768 21 is_stmt 0 view .LVU912
 3331 00e2 1A23     		movs	r3, #26
 3332 00e4 2B70     		strb	r3, [r5]
 769:libscpi/src/lexer.c ****         token->len = 0;
 3333              		.loc 1 769 9 is_stmt 1 view .LVU913
 769:libscpi/src/lexer.c ****         token->len = 0;
 3334              		.loc 1 769 20 is_stmt 0 view .LVU914
 3335 00e6 6B68     		ldr	r3, [r5, #4]
 3336 00e8 6360     		str	r3, [r4, #4]
 770:libscpi/src/lexer.c ****     }
 3337              		.loc 1 770 9 is_stmt 1 view .LVU915
 770:libscpi/src/lexer.c ****     }
 3338              		.loc 1 770 20 is_stmt 0 view .LVU916
 3339 00ea 0023     		movs	r3, #0
 3340 00ec AB60     		str	r3, [r5, #8]
 3341 00ee ECE7     		b	.L217
 3342              	.L224:
 3343              		.align	2
 3344              	.L223:
 3345 00f0 01000000 		.word	_ctype_+1
 3346              		.cfi_endproc
ARM GAS  /tmp/ccEnAiLD.s 			page 81


 3347              	.LFE43:
 3349              		.section	.text.scpiLex_ProgramExpression,"ax",%progbits
 3350              		.align	1
 3351              		.global	scpiLex_ProgramExpression
 3352              		.hidden	scpiLex_ProgramExpression
 3353              		.syntax unified
 3354              		.code	16
 3355              		.thumb_func
 3356              		.fpu softvfp
 3358              	scpiLex_ProgramExpression:
 3359              	.LVL320:
 3360              	.LFB46:
 797:libscpi/src/lexer.c **** 
 798:libscpi/src/lexer.c **** /* TODO: 7.7.7.2-2 recursive - any program data */
 799:libscpi/src/lexer.c **** 
 800:libscpi/src/lexer.c **** /**
 801:libscpi/src/lexer.c ****  * Detect token Expression
 802:libscpi/src/lexer.c ****  * @param state
 803:libscpi/src/lexer.c ****  * @param token
 804:libscpi/src/lexer.c ****  * @return 
 805:libscpi/src/lexer.c ****  */
 806:libscpi/src/lexer.c **** int scpiLex_ProgramExpression(lex_state_t * state, scpi_token_t * token) {
 3361              		.loc 1 806 74 is_stmt 1 view -0
 3362              		.cfi_startproc
 3363              		@ args = 0, pretend = 0, frame = 0
 3364              		@ frame_needed = 0, uses_anonymous_args = 0
 3365              		.loc 1 806 74 is_stmt 0 view .LVU918
 3366 0000 70B5     		push	{r4, r5, r6, lr}
 3367              	.LCFI31:
 3368              		.cfi_def_cfa_offset 16
 3369              		.cfi_offset 4, -16
 3370              		.cfi_offset 5, -12
 3371              		.cfi_offset 6, -8
 3372              		.cfi_offset 14, -4
 3373 0002 0500     		movs	r5, r0
 3374 0004 0C00     		movs	r4, r1
 807:libscpi/src/lexer.c ****     token->ptr = state->pos;
 3375              		.loc 1 807 5 is_stmt 1 view .LVU919
 3376              		.loc 1 807 23 is_stmt 0 view .LVU920
 3377 0006 4668     		ldr	r6, [r0, #4]
 3378              		.loc 1 807 16 view .LVU921
 3379 0008 4E60     		str	r6, [r1, #4]
 808:libscpi/src/lexer.c **** 
 809:libscpi/src/lexer.c ****     if (!iseos(state) && ischr(state, '(')) {
 3380              		.loc 1 809 5 is_stmt 1 view .LVU922
 3381              		.loc 1 809 10 is_stmt 0 view .LVU923
 3382 000a FFF7FEFF 		bl	iseos
 3383              	.LVL321:
 3384              		.loc 1 809 8 view .LVU924
 3385 000e 0028     		cmp	r0, #0
 3386 0010 05D1     		bne	.L226
 3387              		.loc 1 809 26 discriminator 1 view .LVU925
 3388 0012 2821     		movs	r1, #40
 3389 0014 2800     		movs	r0, r5
 3390 0016 FFF7FEFF 		bl	ischr
 3391              	.LVL322:
 3392              		.loc 1 809 23 discriminator 1 view .LVU926
ARM GAS  /tmp/ccEnAiLD.s 			page 82


 3393 001a 0028     		cmp	r0, #0
 3394 001c 06D1     		bne	.L230
 3395              	.L226:
 810:libscpi/src/lexer.c ****         state->pos++;
 811:libscpi/src/lexer.c ****         skipProgramExpression(state);
 812:libscpi/src/lexer.c **** 
 813:libscpi/src/lexer.c ****         if (!iseos(state) && ischr(state, ')')) {
 814:libscpi/src/lexer.c ****             state->pos++;
 815:libscpi/src/lexer.c ****             token->len = state->pos - token->ptr;
 816:libscpi/src/lexer.c ****         } else {
 817:libscpi/src/lexer.c ****             token->len = 0;
 818:libscpi/src/lexer.c ****         }
 819:libscpi/src/lexer.c ****     }
 820:libscpi/src/lexer.c **** 
 821:libscpi/src/lexer.c ****     if ((token->len > 0)) {
 3396              		.loc 1 821 5 is_stmt 1 view .LVU927
 3397              		.loc 1 821 8 is_stmt 0 view .LVU928
 3398 001e A368     		ldr	r3, [r4, #8]
 3399 0020 002B     		cmp	r3, #0
 3400 0022 1DDD     		ble	.L228
 822:libscpi/src/lexer.c ****         token->type = SCPI_TOKEN_PROGRAM_EXPRESSION;
 3401              		.loc 1 822 9 is_stmt 1 view .LVU929
 3402              		.loc 1 822 21 is_stmt 0 view .LVU930
 3403 0024 1023     		movs	r3, #16
 3404 0026 2370     		strb	r3, [r4]
 3405              	.L229:
 823:libscpi/src/lexer.c ****     } else {
 824:libscpi/src/lexer.c ****         token->type = SCPI_TOKEN_UNKNOWN;
 825:libscpi/src/lexer.c ****         state->pos = token->ptr;
 826:libscpi/src/lexer.c ****         token->len = 0;
 827:libscpi/src/lexer.c ****     }
 828:libscpi/src/lexer.c **** 
 829:libscpi/src/lexer.c ****     return token->len;
 3406              		.loc 1 829 5 is_stmt 1 view .LVU931
 3407              		.loc 1 829 17 is_stmt 0 view .LVU932
 3408 0028 A068     		ldr	r0, [r4, #8]
 830:libscpi/src/lexer.c **** }
 3409              		.loc 1 830 1 view .LVU933
 3410              		@ sp needed
 3411              	.LVL323:
 3412              	.LVL324:
 3413              		.loc 1 830 1 view .LVU934
 3414 002a 70BD     		pop	{r4, r5, r6, pc}
 3415              	.LVL325:
 3416              	.L230:
 810:libscpi/src/lexer.c ****         skipProgramExpression(state);
 3417              		.loc 1 810 9 is_stmt 1 view .LVU935
 810:libscpi/src/lexer.c ****         skipProgramExpression(state);
 3418              		.loc 1 810 19 is_stmt 0 view .LVU936
 3419 002c 0136     		adds	r6, r6, #1
 3420 002e 6E60     		str	r6, [r5, #4]
 811:libscpi/src/lexer.c **** 
 3421              		.loc 1 811 9 is_stmt 1 view .LVU937
 3422 0030 2800     		movs	r0, r5
 3423 0032 FFF7FEFF 		bl	skipProgramExpression
 3424              	.LVL326:
 813:libscpi/src/lexer.c ****             state->pos++;
ARM GAS  /tmp/ccEnAiLD.s 			page 83


 3425              		.loc 1 813 9 view .LVU938
 813:libscpi/src/lexer.c ****             state->pos++;
 3426              		.loc 1 813 14 is_stmt 0 view .LVU939
 3427 0036 2800     		movs	r0, r5
 3428 0038 FFF7FEFF 		bl	iseos
 3429              	.LVL327:
 813:libscpi/src/lexer.c ****             state->pos++;
 3430              		.loc 1 813 12 view .LVU940
 3431 003c 0028     		cmp	r0, #0
 3432 003e 0CD1     		bne	.L227
 813:libscpi/src/lexer.c ****             state->pos++;
 3433              		.loc 1 813 30 discriminator 1 view .LVU941
 3434 0040 2921     		movs	r1, #41
 3435 0042 2800     		movs	r0, r5
 3436 0044 FFF7FEFF 		bl	ischr
 3437              	.LVL328:
 813:libscpi/src/lexer.c ****             state->pos++;
 3438              		.loc 1 813 27 discriminator 1 view .LVU942
 3439 0048 0028     		cmp	r0, #0
 3440 004a 06D0     		beq	.L227
 814:libscpi/src/lexer.c ****             token->len = state->pos - token->ptr;
 3441              		.loc 1 814 13 is_stmt 1 view .LVU943
 814:libscpi/src/lexer.c ****             token->len = state->pos - token->ptr;
 3442              		.loc 1 814 23 is_stmt 0 view .LVU944
 3443 004c 6B68     		ldr	r3, [r5, #4]
 3444 004e 0133     		adds	r3, r3, #1
 3445 0050 6B60     		str	r3, [r5, #4]
 815:libscpi/src/lexer.c ****         } else {
 3446              		.loc 1 815 13 is_stmt 1 view .LVU945
 815:libscpi/src/lexer.c ****         } else {
 3447              		.loc 1 815 37 is_stmt 0 view .LVU946
 3448 0052 6268     		ldr	r2, [r4, #4]
 3449 0054 9B1A     		subs	r3, r3, r2
 815:libscpi/src/lexer.c ****         } else {
 3450              		.loc 1 815 24 view .LVU947
 3451 0056 A360     		str	r3, [r4, #8]
 3452 0058 E1E7     		b	.L226
 3453              	.L227:
 817:libscpi/src/lexer.c ****         }
 3454              		.loc 1 817 13 is_stmt 1 view .LVU948
 817:libscpi/src/lexer.c ****         }
 3455              		.loc 1 817 24 is_stmt 0 view .LVU949
 3456 005a 0023     		movs	r3, #0
 3457 005c A360     		str	r3, [r4, #8]
 3458 005e DEE7     		b	.L226
 3459              	.L228:
 824:libscpi/src/lexer.c ****         state->pos = token->ptr;
 3460              		.loc 1 824 9 is_stmt 1 view .LVU950
 824:libscpi/src/lexer.c ****         state->pos = token->ptr;
 3461              		.loc 1 824 21 is_stmt 0 view .LVU951
 3462 0060 1A23     		movs	r3, #26
 3463 0062 2370     		strb	r3, [r4]
 825:libscpi/src/lexer.c ****         token->len = 0;
 3464              		.loc 1 825 9 is_stmt 1 view .LVU952
 825:libscpi/src/lexer.c ****         token->len = 0;
 3465              		.loc 1 825 20 is_stmt 0 view .LVU953
 3466 0064 6368     		ldr	r3, [r4, #4]
ARM GAS  /tmp/ccEnAiLD.s 			page 84


 3467 0066 6B60     		str	r3, [r5, #4]
 826:libscpi/src/lexer.c ****     }
 3468              		.loc 1 826 9 is_stmt 1 view .LVU954
 826:libscpi/src/lexer.c ****     }
 3469              		.loc 1 826 20 is_stmt 0 view .LVU955
 3470 0068 0023     		movs	r3, #0
 3471 006a A360     		str	r3, [r4, #8]
 3472 006c DCE7     		b	.L229
 3473              		.cfi_endproc
 3474              	.LFE46:
 3476              		.section	.text.scpiLex_Comma,"ax",%progbits
 3477              		.align	1
 3478              		.global	scpiLex_Comma
 3479              		.hidden	scpiLex_Comma
 3480              		.syntax unified
 3481              		.code	16
 3482              		.thumb_func
 3483              		.fpu softvfp
 3485              	scpiLex_Comma:
 3486              	.LVL329:
 3487              	.LFB47:
 831:libscpi/src/lexer.c **** 
 832:libscpi/src/lexer.c **** /**
 833:libscpi/src/lexer.c ****  * Detect token comma
 834:libscpi/src/lexer.c ****  * @param state
 835:libscpi/src/lexer.c ****  * @param token
 836:libscpi/src/lexer.c ****  * @return 
 837:libscpi/src/lexer.c ****  */
 838:libscpi/src/lexer.c **** int scpiLex_Comma(lex_state_t * state, scpi_token_t * token) {
 3488              		.loc 1 838 62 is_stmt 1 view -0
 3489              		.cfi_startproc
 3490              		@ args = 0, pretend = 0, frame = 0
 3491              		@ frame_needed = 0, uses_anonymous_args = 0
 3492              		.loc 1 838 62 is_stmt 0 view .LVU957
 3493 0000 10B5     		push	{r4, lr}
 3494              	.LCFI32:
 3495              		.cfi_def_cfa_offset 8
 3496              		.cfi_offset 4, -8
 3497              		.cfi_offset 14, -4
 3498 0002 0C00     		movs	r4, r1
 839:libscpi/src/lexer.c ****     token->ptr = state->pos;
 3499              		.loc 1 839 5 is_stmt 1 view .LVU958
 3500              		.loc 1 839 16 is_stmt 0 view .LVU959
 3501 0004 4368     		ldr	r3, [r0, #4]
 3502 0006 4B60     		str	r3, [r1, #4]
 840:libscpi/src/lexer.c **** 
 841:libscpi/src/lexer.c ****     if (skipChr(state, ',')) {
 3503              		.loc 1 841 5 is_stmt 1 view .LVU960
 3504              		.loc 1 841 9 is_stmt 0 view .LVU961
 3505 0008 2C21     		movs	r1, #44
 3506              	.LVL330:
 3507              		.loc 1 841 9 view .LVU962
 3508 000a FFF7FEFF 		bl	skipChr
 3509              	.LVL331:
 3510              		.loc 1 841 8 view .LVU963
 3511 000e 0028     		cmp	r0, #0
 3512 0010 05D0     		beq	.L232
ARM GAS  /tmp/ccEnAiLD.s 			page 85


 842:libscpi/src/lexer.c ****         token->len = 1;
 3513              		.loc 1 842 9 is_stmt 1 view .LVU964
 3514              		.loc 1 842 20 is_stmt 0 view .LVU965
 3515 0012 0123     		movs	r3, #1
 3516 0014 A360     		str	r3, [r4, #8]
 843:libscpi/src/lexer.c ****         token->type = SCPI_TOKEN_COMMA;
 3517              		.loc 1 843 9 is_stmt 1 view .LVU966
 3518              		.loc 1 843 21 is_stmt 0 view .LVU967
 3519 0016 0023     		movs	r3, #0
 3520 0018 2370     		strb	r3, [r4]
 3521              	.L233:
 844:libscpi/src/lexer.c ****     } else {
 845:libscpi/src/lexer.c ****         token->len = 0;
 846:libscpi/src/lexer.c ****         token->type = SCPI_TOKEN_UNKNOWN;
 847:libscpi/src/lexer.c ****     }
 848:libscpi/src/lexer.c **** 
 849:libscpi/src/lexer.c ****     return token->len;
 3522              		.loc 1 849 5 is_stmt 1 view .LVU968
 3523              		.loc 1 849 17 is_stmt 0 view .LVU969
 3524 001a A068     		ldr	r0, [r4, #8]
 850:libscpi/src/lexer.c **** }
 3525              		.loc 1 850 1 view .LVU970
 3526              		@ sp needed
 3527              	.LVL332:
 3528              		.loc 1 850 1 view .LVU971
 3529 001c 10BD     		pop	{r4, pc}
 3530              	.LVL333:
 3531              	.L232:
 845:libscpi/src/lexer.c ****         token->type = SCPI_TOKEN_UNKNOWN;
 3532              		.loc 1 845 9 is_stmt 1 view .LVU972
 845:libscpi/src/lexer.c ****         token->type = SCPI_TOKEN_UNKNOWN;
 3533              		.loc 1 845 20 is_stmt 0 view .LVU973
 3534 001e 0023     		movs	r3, #0
 3535 0020 A360     		str	r3, [r4, #8]
 846:libscpi/src/lexer.c ****     }
 3536              		.loc 1 846 9 is_stmt 1 view .LVU974
 846:libscpi/src/lexer.c ****     }
 3537              		.loc 1 846 21 is_stmt 0 view .LVU975
 3538 0022 1A33     		adds	r3, r3, #26
 3539 0024 2370     		strb	r3, [r4]
 3540 0026 F8E7     		b	.L233
 3541              		.cfi_endproc
 3542              	.LFE47:
 3544              		.section	.text.scpiLex_Semicolon,"ax",%progbits
 3545              		.align	1
 3546              		.global	scpiLex_Semicolon
 3547              		.hidden	scpiLex_Semicolon
 3548              		.syntax unified
 3549              		.code	16
 3550              		.thumb_func
 3551              		.fpu softvfp
 3553              	scpiLex_Semicolon:
 3554              	.LVL334:
 3555              	.LFB48:
 851:libscpi/src/lexer.c **** 
 852:libscpi/src/lexer.c **** /**
 853:libscpi/src/lexer.c ****  * Detect token semicolon
ARM GAS  /tmp/ccEnAiLD.s 			page 86


 854:libscpi/src/lexer.c ****  * @param state
 855:libscpi/src/lexer.c ****  * @param token
 856:libscpi/src/lexer.c ****  * @return 
 857:libscpi/src/lexer.c ****  */
 858:libscpi/src/lexer.c **** int scpiLex_Semicolon(lex_state_t * state, scpi_token_t * token) {
 3556              		.loc 1 858 66 is_stmt 1 view -0
 3557              		.cfi_startproc
 3558              		@ args = 0, pretend = 0, frame = 0
 3559              		@ frame_needed = 0, uses_anonymous_args = 0
 3560              		.loc 1 858 66 is_stmt 0 view .LVU977
 3561 0000 10B5     		push	{r4, lr}
 3562              	.LCFI33:
 3563              		.cfi_def_cfa_offset 8
 3564              		.cfi_offset 4, -8
 3565              		.cfi_offset 14, -4
 3566 0002 0C00     		movs	r4, r1
 859:libscpi/src/lexer.c ****     token->ptr = state->pos;
 3567              		.loc 1 859 5 is_stmt 1 view .LVU978
 3568              		.loc 1 859 16 is_stmt 0 view .LVU979
 3569 0004 4368     		ldr	r3, [r0, #4]
 3570 0006 4B60     		str	r3, [r1, #4]
 860:libscpi/src/lexer.c **** 
 861:libscpi/src/lexer.c ****     if (skipChr(state, ';')) {
 3571              		.loc 1 861 5 is_stmt 1 view .LVU980
 3572              		.loc 1 861 9 is_stmt 0 view .LVU981
 3573 0008 3B21     		movs	r1, #59
 3574              	.LVL335:
 3575              		.loc 1 861 9 view .LVU982
 3576 000a FFF7FEFF 		bl	skipChr
 3577              	.LVL336:
 3578              		.loc 1 861 8 view .LVU983
 3579 000e 0028     		cmp	r0, #0
 3580 0010 04D0     		beq	.L235
 862:libscpi/src/lexer.c ****         token->len = 1;
 3581              		.loc 1 862 9 is_stmt 1 view .LVU984
 3582              		.loc 1 862 20 is_stmt 0 view .LVU985
 3583 0012 0123     		movs	r3, #1
 3584 0014 A360     		str	r3, [r4, #8]
 863:libscpi/src/lexer.c ****         token->type = SCPI_TOKEN_SEMICOLON;
 3585              		.loc 1 863 9 is_stmt 1 view .LVU986
 3586              		.loc 1 863 21 is_stmt 0 view .LVU987
 3587 0016 2370     		strb	r3, [r4]
 3588              	.L236:
 864:libscpi/src/lexer.c ****     } else {
 865:libscpi/src/lexer.c ****         token->len = 0;
 866:libscpi/src/lexer.c ****         token->type = SCPI_TOKEN_UNKNOWN;
 867:libscpi/src/lexer.c ****     }
 868:libscpi/src/lexer.c **** 
 869:libscpi/src/lexer.c ****     return token->len;
 3589              		.loc 1 869 5 is_stmt 1 view .LVU988
 3590              		.loc 1 869 17 is_stmt 0 view .LVU989
 3591 0018 A068     		ldr	r0, [r4, #8]
 870:libscpi/src/lexer.c **** }
 3592              		.loc 1 870 1 view .LVU990
 3593              		@ sp needed
 3594              	.LVL337:
 3595              		.loc 1 870 1 view .LVU991
ARM GAS  /tmp/ccEnAiLD.s 			page 87


 3596 001a 10BD     		pop	{r4, pc}
 3597              	.LVL338:
 3598              	.L235:
 865:libscpi/src/lexer.c ****         token->type = SCPI_TOKEN_UNKNOWN;
 3599              		.loc 1 865 9 is_stmt 1 view .LVU992
 865:libscpi/src/lexer.c ****         token->type = SCPI_TOKEN_UNKNOWN;
 3600              		.loc 1 865 20 is_stmt 0 view .LVU993
 3601 001c 0023     		movs	r3, #0
 3602 001e A360     		str	r3, [r4, #8]
 866:libscpi/src/lexer.c ****     }
 3603              		.loc 1 866 9 is_stmt 1 view .LVU994
 866:libscpi/src/lexer.c ****     }
 3604              		.loc 1 866 21 is_stmt 0 view .LVU995
 3605 0020 1A33     		adds	r3, r3, #26
 3606 0022 2370     		strb	r3, [r4]
 3607 0024 F8E7     		b	.L236
 3608              		.cfi_endproc
 3609              	.LFE48:
 3611              		.section	.text.scpiLex_Colon,"ax",%progbits
 3612              		.align	1
 3613              		.global	scpiLex_Colon
 3614              		.hidden	scpiLex_Colon
 3615              		.syntax unified
 3616              		.code	16
 3617              		.thumb_func
 3618              		.fpu softvfp
 3620              	scpiLex_Colon:
 3621              	.LVL339:
 3622              	.LFB49:
 871:libscpi/src/lexer.c **** 
 872:libscpi/src/lexer.c **** /**
 873:libscpi/src/lexer.c ****  * Detect token colon
 874:libscpi/src/lexer.c ****  * @param state
 875:libscpi/src/lexer.c ****  * @param token
 876:libscpi/src/lexer.c ****  * @return 
 877:libscpi/src/lexer.c ****  */
 878:libscpi/src/lexer.c **** int scpiLex_Colon(lex_state_t * state, scpi_token_t * token) {
 3623              		.loc 1 878 62 is_stmt 1 view -0
 3624              		.cfi_startproc
 3625              		@ args = 0, pretend = 0, frame = 0
 3626              		@ frame_needed = 0, uses_anonymous_args = 0
 3627              		.loc 1 878 62 is_stmt 0 view .LVU997
 3628 0000 10B5     		push	{r4, lr}
 3629              	.LCFI34:
 3630              		.cfi_def_cfa_offset 8
 3631              		.cfi_offset 4, -8
 3632              		.cfi_offset 14, -4
 3633 0002 0C00     		movs	r4, r1
 879:libscpi/src/lexer.c ****     token->ptr = state->pos;
 3634              		.loc 1 879 5 is_stmt 1 view .LVU998
 3635              		.loc 1 879 16 is_stmt 0 view .LVU999
 3636 0004 4368     		ldr	r3, [r0, #4]
 3637 0006 4B60     		str	r3, [r1, #4]
 880:libscpi/src/lexer.c **** 
 881:libscpi/src/lexer.c ****     if (skipChr(state, ':')) {
 3638              		.loc 1 881 5 is_stmt 1 view .LVU1000
 3639              		.loc 1 881 9 is_stmt 0 view .LVU1001
ARM GAS  /tmp/ccEnAiLD.s 			page 88


 3640 0008 3A21     		movs	r1, #58
 3641              	.LVL340:
 3642              		.loc 1 881 9 view .LVU1002
 3643 000a FFF7FEFF 		bl	skipChr
 3644              	.LVL341:
 3645              		.loc 1 881 8 view .LVU1003
 3646 000e 0028     		cmp	r0, #0
 3647 0010 05D0     		beq	.L238
 882:libscpi/src/lexer.c ****         token->len = 1;
 3648              		.loc 1 882 9 is_stmt 1 view .LVU1004
 3649              		.loc 1 882 20 is_stmt 0 view .LVU1005
 3650 0012 0123     		movs	r3, #1
 3651 0014 A360     		str	r3, [r4, #8]
 883:libscpi/src/lexer.c ****         token->type = SCPI_TOKEN_COLON;
 3652              		.loc 1 883 9 is_stmt 1 view .LVU1006
 3653              		.loc 1 883 21 is_stmt 0 view .LVU1007
 3654 0016 0133     		adds	r3, r3, #1
 3655 0018 2370     		strb	r3, [r4]
 3656              	.L239:
 884:libscpi/src/lexer.c ****     } else {
 885:libscpi/src/lexer.c ****         token->len = 0;
 886:libscpi/src/lexer.c ****         token->type = SCPI_TOKEN_UNKNOWN;
 887:libscpi/src/lexer.c ****     }
 888:libscpi/src/lexer.c **** 
 889:libscpi/src/lexer.c ****     return token->len;
 3657              		.loc 1 889 5 is_stmt 1 view .LVU1008
 3658              		.loc 1 889 17 is_stmt 0 view .LVU1009
 3659 001a A068     		ldr	r0, [r4, #8]
 890:libscpi/src/lexer.c **** }
 3660              		.loc 1 890 1 view .LVU1010
 3661              		@ sp needed
 3662              	.LVL342:
 3663              		.loc 1 890 1 view .LVU1011
 3664 001c 10BD     		pop	{r4, pc}
 3665              	.LVL343:
 3666              	.L238:
 885:libscpi/src/lexer.c ****         token->type = SCPI_TOKEN_UNKNOWN;
 3667              		.loc 1 885 9 is_stmt 1 view .LVU1012
 885:libscpi/src/lexer.c ****         token->type = SCPI_TOKEN_UNKNOWN;
 3668              		.loc 1 885 20 is_stmt 0 view .LVU1013
 3669 001e 0023     		movs	r3, #0
 3670 0020 A360     		str	r3, [r4, #8]
 886:libscpi/src/lexer.c ****     }
 3671              		.loc 1 886 9 is_stmt 1 view .LVU1014
 886:libscpi/src/lexer.c ****     }
 3672              		.loc 1 886 21 is_stmt 0 view .LVU1015
 3673 0022 1A33     		adds	r3, r3, #26
 3674 0024 2370     		strb	r3, [r4]
 3675 0026 F8E7     		b	.L239
 3676              		.cfi_endproc
 3677              	.LFE49:
 3679              		.section	.text.scpiLex_SpecificCharacter,"ax",%progbits
 3680              		.align	1
 3681              		.global	scpiLex_SpecificCharacter
 3682              		.hidden	scpiLex_SpecificCharacter
 3683              		.syntax unified
 3684              		.code	16
ARM GAS  /tmp/ccEnAiLD.s 			page 89


 3685              		.thumb_func
 3686              		.fpu softvfp
 3688              	scpiLex_SpecificCharacter:
 3689              	.LVL344:
 3690              	.LFB50:
 891:libscpi/src/lexer.c **** 
 892:libscpi/src/lexer.c **** /**
 893:libscpi/src/lexer.c ****  * Detect specified character
 894:libscpi/src/lexer.c ****  * @param state
 895:libscpi/src/lexer.c ****  * @param token
 896:libscpi/src/lexer.c ****  * @return 
 897:libscpi/src/lexer.c ****  */
 898:libscpi/src/lexer.c **** int scpiLex_SpecificCharacter(lex_state_t * state, scpi_token_t * token, char chr) {
 3691              		.loc 1 898 84 is_stmt 1 view -0
 3692              		.cfi_startproc
 3693              		@ args = 0, pretend = 0, frame = 0
 3694              		@ frame_needed = 0, uses_anonymous_args = 0
 3695              		.loc 1 898 84 is_stmt 0 view .LVU1017
 3696 0000 10B5     		push	{r4, lr}
 3697              	.LCFI35:
 3698              		.cfi_def_cfa_offset 8
 3699              		.cfi_offset 4, -8
 3700              		.cfi_offset 14, -4
 3701 0002 0C00     		movs	r4, r1
 3702 0004 1100     		movs	r1, r2
 3703              	.LVL345:
 899:libscpi/src/lexer.c ****     token->ptr = state->pos;
 3704              		.loc 1 899 5 is_stmt 1 view .LVU1018
 3705              		.loc 1 899 16 is_stmt 0 view .LVU1019
 3706 0006 4368     		ldr	r3, [r0, #4]
 3707 0008 6360     		str	r3, [r4, #4]
 900:libscpi/src/lexer.c **** 
 901:libscpi/src/lexer.c ****     if (skipChr(state, chr)) {
 3708              		.loc 1 901 5 is_stmt 1 view .LVU1020
 3709              		.loc 1 901 9 is_stmt 0 view .LVU1021
 3710 000a FFF7FEFF 		bl	skipChr
 3711              	.LVL346:
 3712              		.loc 1 901 8 view .LVU1022
 3713 000e 0028     		cmp	r0, #0
 3714 0010 05D0     		beq	.L241
 902:libscpi/src/lexer.c ****         token->len = 1;
 3715              		.loc 1 902 9 is_stmt 1 view .LVU1023
 3716              		.loc 1 902 20 is_stmt 0 view .LVU1024
 3717 0012 0123     		movs	r3, #1
 3718 0014 A360     		str	r3, [r4, #8]
 903:libscpi/src/lexer.c ****         token->type = SCPI_TOKEN_SPECIFIC_CHARACTER;
 3719              		.loc 1 903 9 is_stmt 1 view .LVU1025
 3720              		.loc 1 903 21 is_stmt 0 view .LVU1026
 3721 0016 0233     		adds	r3, r3, #2
 3722 0018 2370     		strb	r3, [r4]
 3723              	.L242:
 904:libscpi/src/lexer.c ****     } else {
 905:libscpi/src/lexer.c ****         token->len = 0;
 906:libscpi/src/lexer.c ****         token->type = SCPI_TOKEN_UNKNOWN;
 907:libscpi/src/lexer.c ****     }
 908:libscpi/src/lexer.c **** 
 909:libscpi/src/lexer.c ****     return token->len;
ARM GAS  /tmp/ccEnAiLD.s 			page 90


 3724              		.loc 1 909 5 is_stmt 1 view .LVU1027
 3725              		.loc 1 909 17 is_stmt 0 view .LVU1028
 3726 001a A068     		ldr	r0, [r4, #8]
 910:libscpi/src/lexer.c **** }
 3727              		.loc 1 910 1 view .LVU1029
 3728              		@ sp needed
 3729              	.LVL347:
 3730              		.loc 1 910 1 view .LVU1030
 3731 001c 10BD     		pop	{r4, pc}
 3732              	.LVL348:
 3733              	.L241:
 905:libscpi/src/lexer.c ****         token->type = SCPI_TOKEN_UNKNOWN;
 3734              		.loc 1 905 9 is_stmt 1 view .LVU1031
 905:libscpi/src/lexer.c ****         token->type = SCPI_TOKEN_UNKNOWN;
 3735              		.loc 1 905 20 is_stmt 0 view .LVU1032
 3736 001e 0023     		movs	r3, #0
 3737 0020 A360     		str	r3, [r4, #8]
 906:libscpi/src/lexer.c ****     }
 3738              		.loc 1 906 9 is_stmt 1 view .LVU1033
 906:libscpi/src/lexer.c ****     }
 3739              		.loc 1 906 21 is_stmt 0 view .LVU1034
 3740 0022 1A33     		adds	r3, r3, #26
 3741 0024 2370     		strb	r3, [r4]
 3742 0026 F8E7     		b	.L242
 3743              		.cfi_endproc
 3744              	.LFE50:
 3746              		.section	.text.scpiLex_NewLine,"ax",%progbits
 3747              		.align	1
 3748              		.global	scpiLex_NewLine
 3749              		.hidden	scpiLex_NewLine
 3750              		.syntax unified
 3751              		.code	16
 3752              		.thumb_func
 3753              		.fpu softvfp
 3755              	scpiLex_NewLine:
 3756              	.LVL349:
 3757              	.LFB51:
 911:libscpi/src/lexer.c **** 
 912:libscpi/src/lexer.c **** /**
 913:libscpi/src/lexer.c ****  * Detect token New line
 914:libscpi/src/lexer.c ****  * @param state
 915:libscpi/src/lexer.c ****  * @param token
 916:libscpi/src/lexer.c ****  * @return 
 917:libscpi/src/lexer.c ****  */
 918:libscpi/src/lexer.c **** int scpiLex_NewLine(lex_state_t * state, scpi_token_t * token) {
 3758              		.loc 1 918 64 is_stmt 1 view -0
 3759              		.cfi_startproc
 3760              		@ args = 0, pretend = 0, frame = 0
 3761              		@ frame_needed = 0, uses_anonymous_args = 0
 3762              		.loc 1 918 64 is_stmt 0 view .LVU1036
 3763 0000 70B5     		push	{r4, r5, r6, lr}
 3764              	.LCFI36:
 3765              		.cfi_def_cfa_offset 16
 3766              		.cfi_offset 4, -16
 3767              		.cfi_offset 5, -12
 3768              		.cfi_offset 6, -8
 3769              		.cfi_offset 14, -4
ARM GAS  /tmp/ccEnAiLD.s 			page 91


 3770 0002 0500     		movs	r5, r0
 3771 0004 0C00     		movs	r4, r1
 919:libscpi/src/lexer.c ****     token->ptr = state->pos;
 3772              		.loc 1 919 5 is_stmt 1 view .LVU1037
 3773              		.loc 1 919 16 is_stmt 0 view .LVU1038
 3774 0006 4368     		ldr	r3, [r0, #4]
 3775 0008 4B60     		str	r3, [r1, #4]
 920:libscpi/src/lexer.c **** 
 921:libscpi/src/lexer.c ****     skipChr(state, '\r');
 3776              		.loc 1 921 5 is_stmt 1 view .LVU1039
 3777 000a 0D21     		movs	r1, #13
 3778              	.LVL350:
 3779              		.loc 1 921 5 is_stmt 0 view .LVU1040
 3780 000c FFF7FEFF 		bl	skipChr
 3781              	.LVL351:
 922:libscpi/src/lexer.c ****     skipChr(state, '\n');
 3782              		.loc 1 922 5 is_stmt 1 view .LVU1041
 3783 0010 0A21     		movs	r1, #10
 3784 0012 2800     		movs	r0, r5
 3785 0014 FFF7FEFF 		bl	skipChr
 3786              	.LVL352:
 923:libscpi/src/lexer.c **** 
 924:libscpi/src/lexer.c ****     token->len = state->pos - token->ptr;
 3787              		.loc 1 924 5 view .LVU1042
 3788              		.loc 1 924 36 is_stmt 0 view .LVU1043
 3789 0018 6268     		ldr	r2, [r4, #4]
 3790              		.loc 1 924 29 view .LVU1044
 3791 001a 6B68     		ldr	r3, [r5, #4]
 3792 001c 9B1A     		subs	r3, r3, r2
 3793              		.loc 1 924 16 view .LVU1045
 3794 001e A360     		str	r3, [r4, #8]
 925:libscpi/src/lexer.c **** 
 926:libscpi/src/lexer.c ****     if ((token->len > 0)) {
 3795              		.loc 1 926 5 is_stmt 1 view .LVU1046
 3796              		.loc 1 926 8 is_stmt 0 view .LVU1047
 3797 0020 002B     		cmp	r3, #0
 3798 0022 03DD     		ble	.L244
 927:libscpi/src/lexer.c ****         token->type = SCPI_TOKEN_NL;
 3799              		.loc 1 927 9 is_stmt 1 view .LVU1048
 3800              		.loc 1 927 21 is_stmt 0 view .LVU1049
 3801 0024 0523     		movs	r3, #5
 3802 0026 2370     		strb	r3, [r4]
 3803              	.L245:
 928:libscpi/src/lexer.c ****     } else {
 929:libscpi/src/lexer.c ****         token->type = SCPI_TOKEN_UNKNOWN;
 930:libscpi/src/lexer.c ****         state->pos = token->ptr;
 931:libscpi/src/lexer.c ****         token->len = 0;
 932:libscpi/src/lexer.c ****     }
 933:libscpi/src/lexer.c **** 
 934:libscpi/src/lexer.c ****     return token->len;
 3804              		.loc 1 934 5 is_stmt 1 view .LVU1050
 3805              		.loc 1 934 17 is_stmt 0 view .LVU1051
 3806 0028 A068     		ldr	r0, [r4, #8]
 935:libscpi/src/lexer.c **** }
 3807              		.loc 1 935 1 view .LVU1052
 3808              		@ sp needed
 3809              	.LVL353:
ARM GAS  /tmp/ccEnAiLD.s 			page 92


 3810              	.LVL354:
 3811              		.loc 1 935 1 view .LVU1053
 3812 002a 70BD     		pop	{r4, r5, r6, pc}
 3813              	.LVL355:
 3814              	.L244:
 929:libscpi/src/lexer.c ****         state->pos = token->ptr;
 3815              		.loc 1 929 9 is_stmt 1 view .LVU1054
 929:libscpi/src/lexer.c ****         state->pos = token->ptr;
 3816              		.loc 1 929 21 is_stmt 0 view .LVU1055
 3817 002c 1A23     		movs	r3, #26
 3818 002e 2370     		strb	r3, [r4]
 930:libscpi/src/lexer.c ****         token->len = 0;
 3819              		.loc 1 930 9 is_stmt 1 view .LVU1056
 930:libscpi/src/lexer.c ****         token->len = 0;
 3820              		.loc 1 930 20 is_stmt 0 view .LVU1057
 3821 0030 6A60     		str	r2, [r5, #4]
 931:libscpi/src/lexer.c ****     }
 3822              		.loc 1 931 9 is_stmt 1 view .LVU1058
 931:libscpi/src/lexer.c ****     }
 3823              		.loc 1 931 20 is_stmt 0 view .LVU1059
 3824 0032 0023     		movs	r3, #0
 3825 0034 A360     		str	r3, [r4, #8]
 3826 0036 F7E7     		b	.L245
 3827              		.cfi_endproc
 3828              	.LFE51:
 3830              		.text
 3831              	.Letext0:
 3832              		.file 2 "/usr/include/newlib/machine/_default_types.h"
 3833              		.file 3 "/usr/lib/gcc/arm-none-eabi/9.2.1/include/stddef.h"
 3834              		.file 4 "/usr/include/newlib/sys/_types.h"
 3835              		.file 5 "/usr/include/newlib/sys/reent.h"
 3836              		.file 6 "/usr/include/newlib/sys/lock.h"
 3837              		.file 7 "/usr/include/newlib/ctype.h"
 3838              		.file 8 "/usr/include/newlib/sys/_stdint.h"
 3839              		.file 9 "libscpi/inc/scpi/types.h"
ARM GAS  /tmp/ccEnAiLD.s 			page 93

