ARM GAS  /tmp/ccJs7hvj.s 			page 1


   1              		.cpu cortex-m0
   2              		.eabi_attribute 20, 1
   3              		.eabi_attribute 21, 1
   4              		.eabi_attribute 23, 3
   5              		.eabi_attribute 24, 1
   6              		.eabi_attribute 25, 1
   7              		.eabi_attribute 26, 1
   8              		.eabi_attribute 30, 1
   9              		.eabi_attribute 34, 0
  10              		.eabi_attribute 18, 4
  11              		.file	"parser.c"
  12              		.text
  13              	.Ltext0:
  14              		.cfi_sections	.debug_frame
  15              		.section	.text.writeData,"ax",%progbits
  16              		.align	1
  17              		.arch armv6s-m
  18              		.syntax unified
  19              		.code	16
  20              		.thumb_func
  21              		.fpu softvfp
  23              	writeData:
  24              	.LVL0:
  25              	.LFB0:
  26              		.file 1 "libscpi/src/parser.c"
   1:libscpi/src/parser.c **** /*-
   2:libscpi/src/parser.c ****  * BSD 2-Clause License
   3:libscpi/src/parser.c ****  *
   4:libscpi/src/parser.c ****  * Copyright (c) 2012-2018, Jan Breuer
   5:libscpi/src/parser.c ****  * All rights reserved.
   6:libscpi/src/parser.c ****  *
   7:libscpi/src/parser.c ****  * Redistribution and use in source and binary forms, with or without
   8:libscpi/src/parser.c ****  * modification, are permitted provided that the following conditions are met:
   9:libscpi/src/parser.c ****  *
  10:libscpi/src/parser.c ****  * * Redistributions of source code must retain the above copyright notice, this
  11:libscpi/src/parser.c ****  *   list of conditions and the following disclaimer.
  12:libscpi/src/parser.c ****  *
  13:libscpi/src/parser.c ****  * * Redistributions in binary form must reproduce the above copyright notice,
  14:libscpi/src/parser.c ****  *   this list of conditions and the following disclaimer in the documentation
  15:libscpi/src/parser.c ****  *   and/or other materials provided with the distribution.
  16:libscpi/src/parser.c ****  *
  17:libscpi/src/parser.c ****  * THIS SOFTWARE IS PROVIDED BY THE COPYRIGHT HOLDERS AND CONTRIBUTORS "AS IS"
  18:libscpi/src/parser.c ****  * AND ANY EXPRESS OR IMPLIED WARRANTIES, INCLUDING, BUT NOT LIMITED TO, THE
  19:libscpi/src/parser.c ****  * IMPLIED WARRANTIES OF MERCHANTABILITY AND FITNESS FOR A PARTICULAR PURPOSE ARE
  20:libscpi/src/parser.c ****  * DISCLAIMED. IN NO EVENT SHALL THE COPYRIGHT HOLDER OR CONTRIBUTORS BE LIABLE
  21:libscpi/src/parser.c ****  * FOR ANY DIRECT, INDIRECT, INCIDENTAL, SPECIAL, EXEMPLARY, OR CONSEQUENTIAL
  22:libscpi/src/parser.c ****  * DAMAGES (INCLUDING, BUT NOT LIMITED TO, PROCUREMENT OF SUBSTITUTE GOODS OR
  23:libscpi/src/parser.c ****  * SERVICES; LOSS OF USE, DATA, OR PROFITS; OR BUSINESS INTERRUPTION) HOWEVER
  24:libscpi/src/parser.c ****  * CAUSED AND ON ANY THEORY OF LIABILITY, WHETHER IN CONTRACT, STRICT LIABILITY,
  25:libscpi/src/parser.c ****  * OR TORT (INCLUDING NEGLIGENCE OR OTHERWISE) ARISING IN ANY WAY OUT OF THE USE
  26:libscpi/src/parser.c ****  * OF THIS SOFTWARE, EVEN IF ADVISED OF THE POSSIBILITY OF SUCH DAMAGE.
  27:libscpi/src/parser.c ****  */
  28:libscpi/src/parser.c **** 
  29:libscpi/src/parser.c **** /**
  30:libscpi/src/parser.c ****  * @file   scpi_parser.c
  31:libscpi/src/parser.c ****  * @date   Thu Nov 15 10:58:45 UTC 2012
  32:libscpi/src/parser.c ****  *
ARM GAS  /tmp/ccJs7hvj.s 			page 2


  33:libscpi/src/parser.c ****  * @brief  SCPI parser implementation
  34:libscpi/src/parser.c ****  *
  35:libscpi/src/parser.c ****  *
  36:libscpi/src/parser.c ****  */
  37:libscpi/src/parser.c **** 
  38:libscpi/src/parser.c **** #include <ctype.h>
  39:libscpi/src/parser.c **** #include <string.h>
  40:libscpi/src/parser.c **** 
  41:libscpi/src/parser.c **** #include "scpi/config.h"
  42:libscpi/src/parser.c **** #include "scpi/parser.h"
  43:libscpi/src/parser.c **** #include "parser_private.h"
  44:libscpi/src/parser.c **** #include "lexer_private.h"
  45:libscpi/src/parser.c **** #include "scpi/error.h"
  46:libscpi/src/parser.c **** #include "scpi/constants.h"
  47:libscpi/src/parser.c **** #include "scpi/utils.h"
  48:libscpi/src/parser.c **** 
  49:libscpi/src/parser.c **** /**
  50:libscpi/src/parser.c ****  * Write data to SCPI output
  51:libscpi/src/parser.c ****  * @param context
  52:libscpi/src/parser.c ****  * @param data
  53:libscpi/src/parser.c ****  * @param len - lenght of data to be written
  54:libscpi/src/parser.c ****  * @return number of bytes written
  55:libscpi/src/parser.c ****  */
  56:libscpi/src/parser.c **** static size_t writeData(scpi_t * context, const char * data, size_t len) {
  27              		.loc 1 56 74 view -0
  28              		.cfi_startproc
  29              		@ args = 0, pretend = 0, frame = 0
  30              		@ frame_needed = 0, uses_anonymous_args = 0
  31              		.loc 1 56 74 is_stmt 0 view .LVU1
  32 0000 10B5     		push	{r4, lr}
  33              	.LCFI0:
  34              		.cfi_def_cfa_offset 8
  35              		.cfi_offset 4, -8
  36              		.cfi_offset 14, -4
  57:libscpi/src/parser.c ****     if (len > 0) {
  37              		.loc 1 57 5 is_stmt 1 view .LVU2
  38              		.loc 1 57 8 is_stmt 0 view .LVU3
  39 0002 002A     		cmp	r2, #0
  40 0004 03D0     		beq	.L2
  58:libscpi/src/parser.c ****         return context->interface->write(context, data, len);
  41              		.loc 1 58 9 is_stmt 1 view .LVU4
  42              		.loc 1 58 23 is_stmt 0 view .LVU5
  43 0006 C36A     		ldr	r3, [r0, #44]
  44              		.loc 1 58 34 view .LVU6
  45 0008 5B68     		ldr	r3, [r3, #4]
  46              		.loc 1 58 16 view .LVU7
  47 000a 9847     		blx	r3
  48              	.LVL1:
  49              		.loc 1 58 16 view .LVU8
  50 000c 0200     		movs	r2, r0
  51              	.L2:
  59:libscpi/src/parser.c ****     } else {
  60:libscpi/src/parser.c ****         return 0;
  61:libscpi/src/parser.c ****     }
  62:libscpi/src/parser.c **** }
  52              		.loc 1 62 1 view .LVU9
  53 000e 1000     		movs	r0, r2
ARM GAS  /tmp/ccJs7hvj.s 			page 3


  54              		@ sp needed
  55 0010 10BD     		pop	{r4, pc}
  56              		.cfi_endproc
  57              	.LFE0:
  59              		.section	.text.flushData,"ax",%progbits
  60              		.align	1
  61              		.syntax unified
  62              		.code	16
  63              		.thumb_func
  64              		.fpu softvfp
  66              	flushData:
  67              	.LVL2:
  68              	.LFB1:
  63:libscpi/src/parser.c **** 
  64:libscpi/src/parser.c **** /**
  65:libscpi/src/parser.c ****  * Flush data to SCPI output
  66:libscpi/src/parser.c ****  * @param context
  67:libscpi/src/parser.c ****  * @return
  68:libscpi/src/parser.c ****  */
  69:libscpi/src/parser.c **** static int flushData(scpi_t * context) {
  69              		.loc 1 69 40 is_stmt 1 view -0
  70              		.cfi_startproc
  71              		@ args = 0, pretend = 0, frame = 0
  72              		@ frame_needed = 0, uses_anonymous_args = 0
  73              		.loc 1 69 40 is_stmt 0 view .LVU11
  74 0000 10B5     		push	{r4, lr}
  75              	.LCFI1:
  76              		.cfi_def_cfa_offset 8
  77              		.cfi_offset 4, -8
  78              		.cfi_offset 14, -4
  70:libscpi/src/parser.c ****     if (context && context->interface && context->interface->flush) {
  79              		.loc 1 70 5 is_stmt 1 view .LVU12
  80              		.loc 1 70 8 is_stmt 0 view .LVU13
  81 0002 0028     		cmp	r0, #0
  82 0004 07D0     		beq	.L5
  83              		.loc 1 70 27 discriminator 1 view .LVU14
  84 0006 C36A     		ldr	r3, [r0, #44]
  85              		.loc 1 70 17 discriminator 1 view .LVU15
  86 0008 002B     		cmp	r3, #0
  87 000a 06D0     		beq	.L6
  88              		.loc 1 70 60 discriminator 2 view .LVU16
  89 000c DB68     		ldr	r3, [r3, #12]
  90              		.loc 1 70 39 discriminator 2 view .LVU17
  91 000e 002B     		cmp	r3, #0
  92 0010 05D0     		beq	.L7
  71:libscpi/src/parser.c ****         return context->interface->flush(context);
  93              		.loc 1 71 9 is_stmt 1 view .LVU18
  94              		.loc 1 71 16 is_stmt 0 view .LVU19
  95 0012 9847     		blx	r3
  96              	.LVL3:
  97              	.L3:
  72:libscpi/src/parser.c ****     } else {
  73:libscpi/src/parser.c ****         return SCPI_RES_OK;
  74:libscpi/src/parser.c ****     }
  75:libscpi/src/parser.c **** }
  98              		.loc 1 75 1 view .LVU20
  99              		@ sp needed
ARM GAS  /tmp/ccJs7hvj.s 			page 4


 100 0014 10BD     		pop	{r4, pc}
 101              	.LVL4:
 102              	.L5:
  73:libscpi/src/parser.c ****     }
 103              		.loc 1 73 16 view .LVU21
 104 0016 0120     		movs	r0, #1
 105              	.LVL5:
  73:libscpi/src/parser.c ****     }
 106              		.loc 1 73 16 view .LVU22
 107 0018 FCE7     		b	.L3
 108              	.LVL6:
 109              	.L6:
  73:libscpi/src/parser.c ****     }
 110              		.loc 1 73 16 view .LVU23
 111 001a 0120     		movs	r0, #1
 112              	.LVL7:
  73:libscpi/src/parser.c ****     }
 113              		.loc 1 73 16 view .LVU24
 114 001c FAE7     		b	.L3
 115              	.LVL8:
 116              	.L7:
  73:libscpi/src/parser.c ****     }
 117              		.loc 1 73 16 view .LVU25
 118 001e 0120     		movs	r0, #1
 119              	.LVL9:
  73:libscpi/src/parser.c ****     }
 120              		.loc 1 73 16 view .LVU26
 121 0020 F8E7     		b	.L3
 122              		.cfi_endproc
 123              	.LFE1:
 125              		.section	.rodata.writeDelimiter.str1.4,"aMS",%progbits,1
 126              		.align	2
 127              	.LC0:
 128 0000 2C00     		.ascii	",\000"
 129              		.section	.text.writeDelimiter,"ax",%progbits
 130              		.align	1
 131              		.syntax unified
 132              		.code	16
 133              		.thumb_func
 134              		.fpu softvfp
 136              	writeDelimiter:
 137              	.LVL10:
 138              	.LFB2:
  76:libscpi/src/parser.c **** 
  77:libscpi/src/parser.c **** /**
  78:libscpi/src/parser.c ****  * Write result delimiter to output
  79:libscpi/src/parser.c ****  * @param context
  80:libscpi/src/parser.c ****  * @return number of bytes written
  81:libscpi/src/parser.c ****  */
  82:libscpi/src/parser.c **** static size_t writeDelimiter(scpi_t * context) {
 139              		.loc 1 82 48 is_stmt 1 view -0
 140              		.cfi_startproc
 141              		@ args = 0, pretend = 0, frame = 0
 142              		@ frame_needed = 0, uses_anonymous_args = 0
 143              		.loc 1 82 48 is_stmt 0 view .LVU28
 144 0000 10B5     		push	{r4, lr}
 145              	.LCFI2:
ARM GAS  /tmp/ccJs7hvj.s 			page 5


 146              		.cfi_def_cfa_offset 8
 147              		.cfi_offset 4, -8
 148              		.cfi_offset 14, -4
  83:libscpi/src/parser.c ****     if (context->output_count > 0) {
 149              		.loc 1 83 5 is_stmt 1 view .LVU29
 150              		.loc 1 83 8 is_stmt 0 view .LVU30
 151 0002 036B     		ldr	r3, [r0, #48]
 152 0004 002B     		cmp	r3, #0
 153 0006 01DC     		bgt	.L11
  84:libscpi/src/parser.c ****         return writeData(context, ",", 1);
  85:libscpi/src/parser.c ****     } else {
  86:libscpi/src/parser.c ****         return 0;
 154              		.loc 1 86 16 view .LVU31
 155 0008 0020     		movs	r0, #0
 156              	.LVL11:
 157              	.L8:
  87:libscpi/src/parser.c ****     }
  88:libscpi/src/parser.c **** }
 158              		.loc 1 88 1 view .LVU32
 159              		@ sp needed
 160 000a 10BD     		pop	{r4, pc}
 161              	.LVL12:
 162              	.L11:
  84:libscpi/src/parser.c ****         return writeData(context, ",", 1);
 163              		.loc 1 84 9 is_stmt 1 view .LVU33
  84:libscpi/src/parser.c ****         return writeData(context, ",", 1);
 164              		.loc 1 84 16 is_stmt 0 view .LVU34
 165 000c 0122     		movs	r2, #1
 166 000e 0249     		ldr	r1, .L12
 167 0010 FFF7FEFF 		bl	writeData
 168              	.LVL13:
  84:libscpi/src/parser.c ****         return writeData(context, ",", 1);
 169              		.loc 1 84 16 view .LVU35
 170 0014 F9E7     		b	.L8
 171              	.L13:
 172 0016 C046     		.align	2
 173              	.L12:
 174 0018 00000000 		.word	.LC0
 175              		.cfi_endproc
 176              	.LFE2:
 178              		.section	.rodata.writeNewLine.str1.4,"aMS",%progbits,1
 179              		.align	2
 180              	.LC2:
 181 0000 0D0A00   		.ascii	"\015\012\000"
 182              		.section	.text.writeNewLine,"ax",%progbits
 183              		.align	1
 184              		.syntax unified
 185              		.code	16
 186              		.thumb_func
 187              		.fpu softvfp
 189              	writeNewLine:
 190              	.LVL14:
 191              	.LFB3:
  89:libscpi/src/parser.c **** 
  90:libscpi/src/parser.c **** /**
  91:libscpi/src/parser.c ****  * Conditionaly write "New Line"
  92:libscpi/src/parser.c ****  * @param context
ARM GAS  /tmp/ccJs7hvj.s 			page 6


  93:libscpi/src/parser.c ****  * @return number of characters written
  94:libscpi/src/parser.c ****  */
  95:libscpi/src/parser.c **** static size_t writeNewLine(scpi_t * context) {
 192              		.loc 1 95 46 is_stmt 1 view -0
 193              		.cfi_startproc
 194              		@ args = 0, pretend = 0, frame = 0
 195              		@ frame_needed = 0, uses_anonymous_args = 0
 196              		.loc 1 95 46 is_stmt 0 view .LVU37
 197 0000 70B5     		push	{r4, r5, r6, lr}
 198              	.LCFI3:
 199              		.cfi_def_cfa_offset 16
 200              		.cfi_offset 4, -16
 201              		.cfi_offset 5, -12
 202              		.cfi_offset 6, -8
 203              		.cfi_offset 14, -4
 204 0002 0400     		movs	r4, r0
  96:libscpi/src/parser.c ****     if (context->output_count > 0) {
 205              		.loc 1 96 5 is_stmt 1 view .LVU38
 206              		.loc 1 96 8 is_stmt 0 view .LVU39
 207 0004 036B     		ldr	r3, [r0, #48]
 208 0006 002B     		cmp	r3, #0
 209 0008 02DC     		bgt	.L17
  97:libscpi/src/parser.c ****         size_t len;
  98:libscpi/src/parser.c **** #ifndef SCPI_LINE_ENDING
  99:libscpi/src/parser.c **** #error no termination character defined
 100:libscpi/src/parser.c **** #endif
 101:libscpi/src/parser.c ****         len = writeData(context, SCPI_LINE_ENDING, strlen(SCPI_LINE_ENDING));
 102:libscpi/src/parser.c ****         flushData(context);
 103:libscpi/src/parser.c ****         return len;
 104:libscpi/src/parser.c ****     } else {
 105:libscpi/src/parser.c ****         return 0;
 210              		.loc 1 105 16 view .LVU40
 211 000a 0025     		movs	r5, #0
 212              	.LVL15:
 213              	.L14:
 106:libscpi/src/parser.c ****     }
 107:libscpi/src/parser.c **** }
 214              		.loc 1 107 1 view .LVU41
 215 000c 2800     		movs	r0, r5
 216              		@ sp needed
 217              	.LVL16:
 218              		.loc 1 107 1 view .LVU42
 219 000e 70BD     		pop	{r4, r5, r6, pc}
 220              	.LVL17:
 221              	.L17:
 222              	.LBB2:
  97:libscpi/src/parser.c ****         size_t len;
 223              		.loc 1 97 9 is_stmt 1 view .LVU43
 101:libscpi/src/parser.c ****         flushData(context);
 224              		.loc 1 101 9 view .LVU44
 101:libscpi/src/parser.c ****         flushData(context);
 225              		.loc 1 101 15 is_stmt 0 view .LVU45
 226 0010 0222     		movs	r2, #2
 227 0012 0449     		ldr	r1, .L18
 228 0014 FFF7FEFF 		bl	writeData
 229              	.LVL18:
 101:libscpi/src/parser.c ****         flushData(context);
ARM GAS  /tmp/ccJs7hvj.s 			page 7


 230              		.loc 1 101 15 view .LVU46
 231 0018 0500     		movs	r5, r0
 232              	.LVL19:
 102:libscpi/src/parser.c ****         return len;
 233              		.loc 1 102 9 is_stmt 1 view .LVU47
 234 001a 2000     		movs	r0, r4
 235              	.LVL20:
 102:libscpi/src/parser.c ****         return len;
 236              		.loc 1 102 9 is_stmt 0 view .LVU48
 237 001c FFF7FEFF 		bl	flushData
 238              	.LVL21:
 103:libscpi/src/parser.c ****     } else {
 239              		.loc 1 103 9 is_stmt 1 view .LVU49
 103:libscpi/src/parser.c ****     } else {
 240              		.loc 1 103 16 is_stmt 0 view .LVU50
 241 0020 F4E7     		b	.L14
 242              	.L19:
 243 0022 C046     		.align	2
 244              	.L18:
 245 0024 00000000 		.word	.LC2
 246              	.LBE2:
 247              		.cfi_endproc
 248              	.LFE3:
 250              		.section	.rodata.writeSemicolon.str1.4,"aMS",%progbits,1
 251              		.align	2
 252              	.LC4:
 253 0000 3B00     		.ascii	";\000"
 254              		.section	.text.writeSemicolon,"ax",%progbits
 255              		.align	1
 256              		.syntax unified
 257              		.code	16
 258              		.thumb_func
 259              		.fpu softvfp
 261              	writeSemicolon:
 262              	.LVL22:
 263              	.LFB4:
 108:libscpi/src/parser.c **** 
 109:libscpi/src/parser.c **** /**
 110:libscpi/src/parser.c ****  * Conditionaly write ";"
 111:libscpi/src/parser.c ****  * @param context
 112:libscpi/src/parser.c ****  * @return number of characters written
 113:libscpi/src/parser.c ****  */
 114:libscpi/src/parser.c **** static size_t writeSemicolon(scpi_t * context) {
 264              		.loc 1 114 48 is_stmt 1 view -0
 265              		.cfi_startproc
 266              		@ args = 0, pretend = 0, frame = 0
 267              		@ frame_needed = 0, uses_anonymous_args = 0
 268              		.loc 1 114 48 is_stmt 0 view .LVU52
 269 0000 10B5     		push	{r4, lr}
 270              	.LCFI4:
 271              		.cfi_def_cfa_offset 8
 272              		.cfi_offset 4, -8
 273              		.cfi_offset 14, -4
 115:libscpi/src/parser.c ****     if (context->output_count > 0) {
 274              		.loc 1 115 5 is_stmt 1 view .LVU53
 275              		.loc 1 115 8 is_stmt 0 view .LVU54
 276 0002 036B     		ldr	r3, [r0, #48]
ARM GAS  /tmp/ccJs7hvj.s 			page 8


 277 0004 002B     		cmp	r3, #0
 278 0006 01DC     		bgt	.L23
 116:libscpi/src/parser.c ****         return writeData(context, ";", 1);
 117:libscpi/src/parser.c ****     } else {
 118:libscpi/src/parser.c ****         return 0;
 279              		.loc 1 118 16 view .LVU55
 280 0008 0020     		movs	r0, #0
 281              	.LVL23:
 282              	.L20:
 119:libscpi/src/parser.c ****     }
 120:libscpi/src/parser.c **** }
 283              		.loc 1 120 1 view .LVU56
 284              		@ sp needed
 285 000a 10BD     		pop	{r4, pc}
 286              	.LVL24:
 287              	.L23:
 116:libscpi/src/parser.c ****         return writeData(context, ";", 1);
 288              		.loc 1 116 9 is_stmt 1 view .LVU57
 116:libscpi/src/parser.c ****         return writeData(context, ";", 1);
 289              		.loc 1 116 16 is_stmt 0 view .LVU58
 290 000c 0122     		movs	r2, #1
 291 000e 0249     		ldr	r1, .L24
 292 0010 FFF7FEFF 		bl	writeData
 293              	.LVL25:
 116:libscpi/src/parser.c ****         return writeData(context, ";", 1);
 294              		.loc 1 116 16 view .LVU59
 295 0014 F9E7     		b	.L20
 296              	.L25:
 297 0016 C046     		.align	2
 298              	.L24:
 299 0018 00000000 		.word	.LC4
 300              		.cfi_endproc
 301              	.LFE4:
 303              		.section	.rodata.getBasePrefix.str1.4,"aMS",%progbits,1
 304              		.align	2
 305              	.LC6:
 306 0000 234800   		.ascii	"#H\000"
 307 0003 00       		.align	2
 308              	.LC8:
 309 0004 235100   		.ascii	"#Q\000"
 310 0007 00       		.align	2
 311              	.LC10:
 312 0008 234200   		.ascii	"#B\000"
 313              		.section	.text.getBasePrefix,"ax",%progbits
 314              		.align	1
 315              		.syntax unified
 316              		.code	16
 317              		.thumb_func
 318              		.fpu softvfp
 320              	getBasePrefix:
 321              	.LVL26:
 322              	.LFB11:
 121:libscpi/src/parser.c **** 
 122:libscpi/src/parser.c **** /**
 123:libscpi/src/parser.c ****  * Process command
 124:libscpi/src/parser.c ****  * @param context
 125:libscpi/src/parser.c ****  */
ARM GAS  /tmp/ccJs7hvj.s 			page 9


 126:libscpi/src/parser.c **** static scpi_bool_t processCommand(scpi_t * context) {
 127:libscpi/src/parser.c ****     const scpi_command_t * cmd = context->param_list.cmd;
 128:libscpi/src/parser.c ****     lex_state_t * state = &context->param_list.lex_state;
 129:libscpi/src/parser.c ****     scpi_bool_t result = TRUE;
 130:libscpi/src/parser.c **** 
 131:libscpi/src/parser.c ****     /* conditionaly write ; */
 132:libscpi/src/parser.c ****     writeSemicolon(context);
 133:libscpi/src/parser.c **** 
 134:libscpi/src/parser.c ****     context->cmd_error = FALSE;
 135:libscpi/src/parser.c ****     context->output_count = 0;
 136:libscpi/src/parser.c ****     context->input_count = 0;
 137:libscpi/src/parser.c ****     context->arbitrary_reminding = 0;
 138:libscpi/src/parser.c **** 
 139:libscpi/src/parser.c ****     /* if callback exists - call command callback */
 140:libscpi/src/parser.c ****     if (cmd->callback != NULL) {
 141:libscpi/src/parser.c ****         if ((cmd->callback(context) != SCPI_RES_OK)) {
 142:libscpi/src/parser.c ****             if (!context->cmd_error) {
 143:libscpi/src/parser.c ****                 SCPI_ErrorPush(context, SCPI_ERROR_EXECUTION_ERROR);
 144:libscpi/src/parser.c ****             }
 145:libscpi/src/parser.c ****             result = FALSE;
 146:libscpi/src/parser.c ****         } else {
 147:libscpi/src/parser.c ****             if (context->cmd_error) {
 148:libscpi/src/parser.c ****                 result = FALSE;
 149:libscpi/src/parser.c ****             }
 150:libscpi/src/parser.c ****         }
 151:libscpi/src/parser.c ****     }
 152:libscpi/src/parser.c **** 
 153:libscpi/src/parser.c ****     /* set error if command callback did not read all parameters */
 154:libscpi/src/parser.c ****     if (state->pos < (state->buffer + state->len) && !context->cmd_error) {
 155:libscpi/src/parser.c ****         SCPI_ErrorPush(context, SCPI_ERROR_PARAMETER_NOT_ALLOWED);
 156:libscpi/src/parser.c ****         result = FALSE;
 157:libscpi/src/parser.c ****     }
 158:libscpi/src/parser.c **** 
 159:libscpi/src/parser.c ****     return result;
 160:libscpi/src/parser.c **** }
 161:libscpi/src/parser.c **** 
 162:libscpi/src/parser.c **** /**
 163:libscpi/src/parser.c ****  * Cycle all patterns and search matching pattern. Execute command callback.
 164:libscpi/src/parser.c ****  * @param context
 165:libscpi/src/parser.c ****  * @result TRUE if context->paramlist is filled with correct values
 166:libscpi/src/parser.c ****  */
 167:libscpi/src/parser.c **** static scpi_bool_t findCommandHeader(scpi_t * context, const char * header, int len) {
 168:libscpi/src/parser.c ****     int32_t i;
 169:libscpi/src/parser.c ****     const scpi_command_t * cmd;
 170:libscpi/src/parser.c **** 
 171:libscpi/src/parser.c ****     for (i = 0; context->cmdlist[i].pattern != NULL; i++) {
 172:libscpi/src/parser.c ****         cmd = &context->cmdlist[i];
 173:libscpi/src/parser.c ****         if (matchCommand(cmd->pattern, header, len, NULL, 0, 0)) {
 174:libscpi/src/parser.c ****             context->param_list.cmd = cmd;
 175:libscpi/src/parser.c ****             return TRUE;
 176:libscpi/src/parser.c ****         }
 177:libscpi/src/parser.c ****     }
 178:libscpi/src/parser.c ****     return FALSE;
 179:libscpi/src/parser.c **** }
 180:libscpi/src/parser.c **** 
 181:libscpi/src/parser.c **** /**
 182:libscpi/src/parser.c ****  * Parse one command line
ARM GAS  /tmp/ccJs7hvj.s 			page 10


 183:libscpi/src/parser.c ****  * @param context
 184:libscpi/src/parser.c ****  * @param data - complete command line
 185:libscpi/src/parser.c ****  * @param len - command line length
 186:libscpi/src/parser.c ****  * @return FALSE if there was some error during evaluation of commands
 187:libscpi/src/parser.c ****  */
 188:libscpi/src/parser.c **** scpi_bool_t SCPI_Parse(scpi_t * context, char * data, int len) {
 189:libscpi/src/parser.c ****     scpi_bool_t result = TRUE;
 190:libscpi/src/parser.c ****     scpi_parser_state_t * state;
 191:libscpi/src/parser.c ****     int r;
 192:libscpi/src/parser.c ****     scpi_token_t cmd_prev = {SCPI_TOKEN_UNKNOWN, NULL, 0};
 193:libscpi/src/parser.c **** 
 194:libscpi/src/parser.c ****     if (context == NULL) {
 195:libscpi/src/parser.c ****         return FALSE;
 196:libscpi/src/parser.c ****     }
 197:libscpi/src/parser.c **** 
 198:libscpi/src/parser.c ****     state = &context->parser_state;
 199:libscpi/src/parser.c ****     context->output_count = 0;
 200:libscpi/src/parser.c **** 
 201:libscpi/src/parser.c ****     while (1) {
 202:libscpi/src/parser.c ****         r = scpiParser_detectProgramMessageUnit(state, data, len);
 203:libscpi/src/parser.c **** 
 204:libscpi/src/parser.c ****         if (state->programHeader.type == SCPI_TOKEN_INVALID) {
 205:libscpi/src/parser.c ****             SCPI_ErrorPush(context, SCPI_ERROR_INVALID_CHARACTER);
 206:libscpi/src/parser.c ****             result = FALSE;
 207:libscpi/src/parser.c ****         } else if (state->programHeader.len > 0) {
 208:libscpi/src/parser.c **** 
 209:libscpi/src/parser.c ****             composeCompoundCommand(&cmd_prev, &state->programHeader);
 210:libscpi/src/parser.c **** 
 211:libscpi/src/parser.c ****             if (findCommandHeader(context, state->programHeader.ptr, state->programHeader.len)) {
 212:libscpi/src/parser.c **** 
 213:libscpi/src/parser.c ****                 context->param_list.lex_state.buffer = state->programData.ptr;
 214:libscpi/src/parser.c ****                 context->param_list.lex_state.pos = context->param_list.lex_state.buffer;
 215:libscpi/src/parser.c ****                 context->param_list.lex_state.len = state->programData.len;
 216:libscpi/src/parser.c ****                 context->param_list.cmd_raw.data = state->programHeader.ptr;
 217:libscpi/src/parser.c ****                 context->param_list.cmd_raw.position = 0;
 218:libscpi/src/parser.c ****                 context->param_list.cmd_raw.length = state->programHeader.len;
 219:libscpi/src/parser.c **** 
 220:libscpi/src/parser.c ****                 result &= processCommand(context);
 221:libscpi/src/parser.c ****                 cmd_prev = state->programHeader;
 222:libscpi/src/parser.c ****             } else {
 223:libscpi/src/parser.c ****                 /* place undefined header with error */
 224:libscpi/src/parser.c ****                 /* calculate length of errornouse header and trim \r\n */
 225:libscpi/src/parser.c ****                 size_t r2 = r;
 226:libscpi/src/parser.c ****                 while (r2 > 0 && (data[r2 - 1] == '\r' || data[r2 - 1] == '\n')) r2--;
 227:libscpi/src/parser.c ****                 SCPI_ErrorPushEx(context, SCPI_ERROR_UNDEFINED_HEADER, data, r2);
 228:libscpi/src/parser.c ****                 result = FALSE;
 229:libscpi/src/parser.c ****             }
 230:libscpi/src/parser.c ****         }
 231:libscpi/src/parser.c **** 
 232:libscpi/src/parser.c ****         if (r < len) {
 233:libscpi/src/parser.c ****             data += r;
 234:libscpi/src/parser.c ****             len -= r;
 235:libscpi/src/parser.c ****         } else {
 236:libscpi/src/parser.c ****             break;
 237:libscpi/src/parser.c ****         }
 238:libscpi/src/parser.c **** 
 239:libscpi/src/parser.c ****     }
ARM GAS  /tmp/ccJs7hvj.s 			page 11


 240:libscpi/src/parser.c **** 
 241:libscpi/src/parser.c ****     /* conditionaly write new line */
 242:libscpi/src/parser.c ****     writeNewLine(context);
 243:libscpi/src/parser.c **** 
 244:libscpi/src/parser.c ****     return result;
 245:libscpi/src/parser.c **** }
 246:libscpi/src/parser.c **** 
 247:libscpi/src/parser.c **** /**
 248:libscpi/src/parser.c ****  * Initialize SCPI context structure
 249:libscpi/src/parser.c ****  * @param context
 250:libscpi/src/parser.c ****  * @param commands
 251:libscpi/src/parser.c ****  * @param interface
 252:libscpi/src/parser.c ****  * @param units
 253:libscpi/src/parser.c ****  * @param idn1
 254:libscpi/src/parser.c ****  * @param idn2
 255:libscpi/src/parser.c ****  * @param idn3
 256:libscpi/src/parser.c ****  * @param idn4
 257:libscpi/src/parser.c ****  * @param input_buffer
 258:libscpi/src/parser.c ****  * @param input_buffer_length
 259:libscpi/src/parser.c ****  * @param error_queue_data
 260:libscpi/src/parser.c ****  * @param error_queue_size
 261:libscpi/src/parser.c ****  */
 262:libscpi/src/parser.c **** void SCPI_Init(scpi_t * context,
 263:libscpi/src/parser.c ****         const scpi_command_t * commands,
 264:libscpi/src/parser.c ****         scpi_interface_t * interface,
 265:libscpi/src/parser.c ****         const scpi_unit_def_t * units,
 266:libscpi/src/parser.c ****         const char * idn1, const char * idn2, const char * idn3, const char * idn4,
 267:libscpi/src/parser.c ****         char * input_buffer, size_t input_buffer_length,
 268:libscpi/src/parser.c ****         scpi_error_t * error_queue_data, int16_t error_queue_size) {
 269:libscpi/src/parser.c ****     memset(context, 0, sizeof (*context));
 270:libscpi/src/parser.c ****     context->cmdlist = commands;
 271:libscpi/src/parser.c ****     context->interface = interface;
 272:libscpi/src/parser.c ****     context->units = units;
 273:libscpi/src/parser.c ****     context->idn[0] = idn1;
 274:libscpi/src/parser.c ****     context->idn[1] = idn2;
 275:libscpi/src/parser.c ****     context->idn[2] = idn3;
 276:libscpi/src/parser.c ****     context->idn[3] = idn4;
 277:libscpi/src/parser.c ****     context->buffer.data = input_buffer;
 278:libscpi/src/parser.c ****     context->buffer.length = input_buffer_length;
 279:libscpi/src/parser.c ****     context->buffer.position = 0;
 280:libscpi/src/parser.c ****     SCPI_ErrorInit(context, error_queue_data, error_queue_size);
 281:libscpi/src/parser.c **** }
 282:libscpi/src/parser.c **** 
 283:libscpi/src/parser.c **** #if USE_DEVICE_DEPENDENT_ERROR_INFORMATION && !USE_MEMORY_ALLOCATION_FREE
 284:libscpi/src/parser.c **** 
 285:libscpi/src/parser.c **** /**
 286:libscpi/src/parser.c ****  * Initialize context's
 287:libscpi/src/parser.c ****  * @param context
 288:libscpi/src/parser.c ****  * @param data
 289:libscpi/src/parser.c ****  * @param len
 290:libscpi/src/parser.c ****  * @return
 291:libscpi/src/parser.c ****  */
 292:libscpi/src/parser.c **** void SCPI_InitHeap(scpi_t * context,
 293:libscpi/src/parser.c ****         char * error_info_heap, size_t error_info_heap_length) {
 294:libscpi/src/parser.c ****     scpiheap_init(&context->error_info_heap, error_info_heap, error_info_heap_length);
 295:libscpi/src/parser.c **** }
 296:libscpi/src/parser.c **** #endif
ARM GAS  /tmp/ccJs7hvj.s 			page 12


 297:libscpi/src/parser.c **** 
 298:libscpi/src/parser.c **** /**
 299:libscpi/src/parser.c ****  * Interface to the application. Adds data to system buffer and try to search
 300:libscpi/src/parser.c ****  * command line termination. If the termination is found or if len=0, command
 301:libscpi/src/parser.c ****  * parser is called.
 302:libscpi/src/parser.c ****  *
 303:libscpi/src/parser.c ****  * @param context
 304:libscpi/src/parser.c ****  * @param data - data to process
 305:libscpi/src/parser.c ****  * @param len - length of data
 306:libscpi/src/parser.c ****  * @return
 307:libscpi/src/parser.c ****  */
 308:libscpi/src/parser.c **** scpi_bool_t SCPI_Input(scpi_t * context, const char * data, int len) {
 309:libscpi/src/parser.c ****     scpi_bool_t result = TRUE;
 310:libscpi/src/parser.c ****     size_t totcmdlen = 0;
 311:libscpi/src/parser.c ****     int cmdlen = 0;
 312:libscpi/src/parser.c **** 
 313:libscpi/src/parser.c ****     if (len == 0) {
 314:libscpi/src/parser.c ****         context->buffer.data[context->buffer.position] = 0;
 315:libscpi/src/parser.c ****         result = SCPI_Parse(context, context->buffer.data, context->buffer.position);
 316:libscpi/src/parser.c ****         context->buffer.position = 0;
 317:libscpi/src/parser.c ****     } else {
 318:libscpi/src/parser.c ****         int buffer_free;
 319:libscpi/src/parser.c **** 
 320:libscpi/src/parser.c ****         buffer_free = context->buffer.length - context->buffer.position;
 321:libscpi/src/parser.c ****         if (len > (buffer_free - 1)) {
 322:libscpi/src/parser.c ****             /* Input buffer overrun - invalidate buffer */
 323:libscpi/src/parser.c ****             context->buffer.position = 0;
 324:libscpi/src/parser.c ****             context->buffer.data[context->buffer.position] = 0;
 325:libscpi/src/parser.c ****             SCPI_ErrorPush(context, SCPI_ERROR_INPUT_BUFFER_OVERRUN);
 326:libscpi/src/parser.c ****             return FALSE;
 327:libscpi/src/parser.c ****         }
 328:libscpi/src/parser.c ****         memcpy(&context->buffer.data[context->buffer.position], data, len);
 329:libscpi/src/parser.c ****         context->buffer.position += len;
 330:libscpi/src/parser.c ****         context->buffer.data[context->buffer.position] = 0;
 331:libscpi/src/parser.c **** 
 332:libscpi/src/parser.c **** 
 333:libscpi/src/parser.c ****         while (1) {
 334:libscpi/src/parser.c ****             cmdlen = scpiParser_detectProgramMessageUnit(&context->parser_state, context->buffer.da
 335:libscpi/src/parser.c ****             totcmdlen += cmdlen;
 336:libscpi/src/parser.c **** 
 337:libscpi/src/parser.c ****             if (context->parser_state.termination == SCPI_MESSAGE_TERMINATION_NL) {
 338:libscpi/src/parser.c ****                 result = SCPI_Parse(context, context->buffer.data, totcmdlen);
 339:libscpi/src/parser.c ****                 memmove(context->buffer.data, context->buffer.data + totcmdlen, context->buffer.pos
 340:libscpi/src/parser.c ****                 context->buffer.position -= totcmdlen;
 341:libscpi/src/parser.c ****                 totcmdlen = 0;
 342:libscpi/src/parser.c ****             } else {
 343:libscpi/src/parser.c ****                 if (context->parser_state.programHeader.type == SCPI_TOKEN_UNKNOWN
 344:libscpi/src/parser.c ****                         && context->parser_state.termination == SCPI_MESSAGE_TERMINATION_NONE) brea
 345:libscpi/src/parser.c ****                 if (totcmdlen >= context->buffer.position) break;
 346:libscpi/src/parser.c ****             }
 347:libscpi/src/parser.c ****         }
 348:libscpi/src/parser.c ****     }
 349:libscpi/src/parser.c **** 
 350:libscpi/src/parser.c ****     return result;
 351:libscpi/src/parser.c **** }
 352:libscpi/src/parser.c **** 
 353:libscpi/src/parser.c **** /* writing results */
ARM GAS  /tmp/ccJs7hvj.s 			page 13


 354:libscpi/src/parser.c **** 
 355:libscpi/src/parser.c **** /**
 356:libscpi/src/parser.c ****  * Write raw string result to the output
 357:libscpi/src/parser.c ****  * @param context
 358:libscpi/src/parser.c ****  * @param data
 359:libscpi/src/parser.c ****  * @return
 360:libscpi/src/parser.c ****  */
 361:libscpi/src/parser.c **** size_t SCPI_ResultCharacters(scpi_t * context, const char * data, size_t len) {
 362:libscpi/src/parser.c ****     size_t result = 0;
 363:libscpi/src/parser.c ****     result += writeDelimiter(context);
 364:libscpi/src/parser.c ****     result += writeData(context, data, len);
 365:libscpi/src/parser.c ****     context->output_count++;
 366:libscpi/src/parser.c ****     return result;
 367:libscpi/src/parser.c **** }
 368:libscpi/src/parser.c **** 
 369:libscpi/src/parser.c **** /**
 370:libscpi/src/parser.c ****  * Return prefix of nondecimal base
 371:libscpi/src/parser.c ****  * @param base
 372:libscpi/src/parser.c ****  * @return
 373:libscpi/src/parser.c ****  */
 374:libscpi/src/parser.c **** static const char * getBasePrefix(int8_t base) {
 323              		.loc 1 374 48 is_stmt 1 view -0
 324              		.cfi_startproc
 325              		@ args = 0, pretend = 0, frame = 0
 326              		@ frame_needed = 0, uses_anonymous_args = 0
 327              		@ link register save eliminated.
 375:libscpi/src/parser.c ****     switch (base) {
 328              		.loc 1 375 5 view .LVU61
 329 0000 0828     		cmp	r0, #8
 330 0002 07D0     		beq	.L28
 331 0004 1028     		cmp	r0, #16
 332 0006 07D0     		beq	.L29
 333 0008 0228     		cmp	r0, #2
 334 000a 01D0     		beq	.L31
 376:libscpi/src/parser.c ****         case 2: return "#B";
 377:libscpi/src/parser.c ****         case 8: return "#Q";
 378:libscpi/src/parser.c ****         case 16: return "#H";
 379:libscpi/src/parser.c ****         default: return NULL;
 335              		.loc 1 379 25 is_stmt 0 view .LVU62
 336 000c 0020     		movs	r0, #0
 337              	.LVL27:
 338              	.L26:
 380:libscpi/src/parser.c ****     }
 381:libscpi/src/parser.c **** }
 339              		.loc 1 381 1 view .LVU63
 340              		@ sp needed
 341 000e 7047     		bx	lr
 342              	.LVL28:
 343              	.L31:
 375:libscpi/src/parser.c ****         case 2: return "#B";
 344              		.loc 1 375 5 view .LVU64
 345 0010 0248     		ldr	r0, .L32
 346              	.LVL29:
 375:libscpi/src/parser.c ****         case 2: return "#B";
 347              		.loc 1 375 5 view .LVU65
 348 0012 FCE7     		b	.L26
 349              	.LVL30:
ARM GAS  /tmp/ccJs7hvj.s 			page 14


 350              	.L28:
 377:libscpi/src/parser.c ****         case 16: return "#H";
 351              		.loc 1 377 24 view .LVU66
 352 0014 0248     		ldr	r0, .L32+4
 353              	.LVL31:
 377:libscpi/src/parser.c ****         case 16: return "#H";
 354              		.loc 1 377 24 view .LVU67
 355 0016 FAE7     		b	.L26
 356              	.LVL32:
 357              	.L29:
 378:libscpi/src/parser.c ****         default: return NULL;
 358              		.loc 1 378 25 view .LVU68
 359 0018 0248     		ldr	r0, .L32+8
 360              	.LVL33:
 378:libscpi/src/parser.c ****         default: return NULL;
 361              		.loc 1 378 25 view .LVU69
 362 001a F8E7     		b	.L26
 363              	.L33:
 364              		.align	2
 365              	.L32:
 366 001c 08000000 		.word	.LC10
 367 0020 04000000 		.word	.LC8
 368 0024 00000000 		.word	.LC6
 369              		.cfi_endproc
 370              	.LFE11:
 372              		.section	.text.invalidateToken,"ax",%progbits
 373              		.align	1
 374              		.syntax unified
 375              		.code	16
 376              		.thumb_func
 377              		.fpu softvfp
 379              	invalidateToken:
 380              	.LVL34:
 381              	.LFB26:
 382:libscpi/src/parser.c **** 
 383:libscpi/src/parser.c **** /**
 384:libscpi/src/parser.c ****  * Write signed/unsigned 32 bit integer value in specific base to the result
 385:libscpi/src/parser.c ****  * @param context
 386:libscpi/src/parser.c ****  * @param val
 387:libscpi/src/parser.c ****  * @param base
 388:libscpi/src/parser.c ****  * @param sign
 389:libscpi/src/parser.c ****  * @return
 390:libscpi/src/parser.c ****  */
 391:libscpi/src/parser.c **** static size_t resultUInt32BaseSign(scpi_t * context, uint32_t val, int8_t base, scpi_bool_t sign) {
 392:libscpi/src/parser.c ****     char buffer[32 + 1];
 393:libscpi/src/parser.c ****     const char * basePrefix;
 394:libscpi/src/parser.c ****     size_t result = 0;
 395:libscpi/src/parser.c ****     size_t len;
 396:libscpi/src/parser.c **** 
 397:libscpi/src/parser.c ****     len = UInt32ToStrBaseSign(val, buffer, sizeof (buffer), base, sign);
 398:libscpi/src/parser.c ****     basePrefix = getBasePrefix(base);
 399:libscpi/src/parser.c **** 
 400:libscpi/src/parser.c ****     result += writeDelimiter(context);
 401:libscpi/src/parser.c ****     if (basePrefix != NULL) {
 402:libscpi/src/parser.c ****         result += writeData(context, basePrefix, 2);
 403:libscpi/src/parser.c ****     }
 404:libscpi/src/parser.c ****     result += writeData(context, buffer, len);
ARM GAS  /tmp/ccJs7hvj.s 			page 15


 405:libscpi/src/parser.c ****     context->output_count++;
 406:libscpi/src/parser.c ****     return result;
 407:libscpi/src/parser.c **** }
 408:libscpi/src/parser.c **** 
 409:libscpi/src/parser.c **** /**
 410:libscpi/src/parser.c ****  * Write signed/unsigned 64 bit integer value in specific base to the result
 411:libscpi/src/parser.c ****  * @param context
 412:libscpi/src/parser.c ****  * @param val
 413:libscpi/src/parser.c ****  * @param base
 414:libscpi/src/parser.c ****  * @param sign
 415:libscpi/src/parser.c ****  * @return
 416:libscpi/src/parser.c ****  */
 417:libscpi/src/parser.c **** static size_t resultUInt64BaseSign(scpi_t * context, uint64_t val, int8_t base, scpi_bool_t sign) {
 418:libscpi/src/parser.c ****     char buffer[64 + 1];
 419:libscpi/src/parser.c ****     const char * basePrefix;
 420:libscpi/src/parser.c ****     size_t result = 0;
 421:libscpi/src/parser.c ****     size_t len;
 422:libscpi/src/parser.c **** 
 423:libscpi/src/parser.c ****     len = UInt64ToStrBaseSign(val, buffer, sizeof (buffer), base, sign);
 424:libscpi/src/parser.c ****     basePrefix = getBasePrefix(base);
 425:libscpi/src/parser.c **** 
 426:libscpi/src/parser.c ****     result += writeDelimiter(context);
 427:libscpi/src/parser.c ****     if (basePrefix != NULL) {
 428:libscpi/src/parser.c ****         result += writeData(context, basePrefix, 2);
 429:libscpi/src/parser.c ****     }
 430:libscpi/src/parser.c ****     result += writeData(context, buffer, len);
 431:libscpi/src/parser.c ****     context->output_count++;
 432:libscpi/src/parser.c ****     return result;
 433:libscpi/src/parser.c **** }
 434:libscpi/src/parser.c **** 
 435:libscpi/src/parser.c **** /**
 436:libscpi/src/parser.c ****  * Write signed 32 bit integer value to the result
 437:libscpi/src/parser.c ****  * @param context
 438:libscpi/src/parser.c ****  * @param val
 439:libscpi/src/parser.c ****  * @return
 440:libscpi/src/parser.c ****  */
 441:libscpi/src/parser.c **** size_t SCPI_ResultInt32(scpi_t * context, int32_t val) {
 442:libscpi/src/parser.c ****     return resultUInt32BaseSign(context, val, 10, TRUE);
 443:libscpi/src/parser.c **** }
 444:libscpi/src/parser.c **** 
 445:libscpi/src/parser.c **** /**
 446:libscpi/src/parser.c ****  * Write unsigned 32 bit integer value in specific base to the result
 447:libscpi/src/parser.c ****  * Write signed/unsigned 32 bit integer value in specific base to the result
 448:libscpi/src/parser.c ****  * @param context
 449:libscpi/src/parser.c ****  * @param val
 450:libscpi/src/parser.c ****  * @return
 451:libscpi/src/parser.c ****  */
 452:libscpi/src/parser.c **** size_t SCPI_ResultUInt32Base(scpi_t * context, uint32_t val, int8_t base) {
 453:libscpi/src/parser.c ****     return resultUInt32BaseSign(context, val, base, FALSE);
 454:libscpi/src/parser.c **** }
 455:libscpi/src/parser.c **** 
 456:libscpi/src/parser.c **** /**
 457:libscpi/src/parser.c ****  * Write signed 64 bit integer value to the result
 458:libscpi/src/parser.c ****  * @param context
 459:libscpi/src/parser.c ****  * @param val
 460:libscpi/src/parser.c ****  * @return
 461:libscpi/src/parser.c ****  */
ARM GAS  /tmp/ccJs7hvj.s 			page 16


 462:libscpi/src/parser.c **** size_t SCPI_ResultInt64(scpi_t * context, int64_t val) {
 463:libscpi/src/parser.c ****     return resultUInt64BaseSign(context, val, 10, TRUE);
 464:libscpi/src/parser.c **** }
 465:libscpi/src/parser.c **** 
 466:libscpi/src/parser.c **** /**
 467:libscpi/src/parser.c ****  * Write unsigned 64 bit integer value in specific base to the result
 468:libscpi/src/parser.c ****  * @param context
 469:libscpi/src/parser.c ****  * @param val
 470:libscpi/src/parser.c ****  * @return
 471:libscpi/src/parser.c ****  */
 472:libscpi/src/parser.c **** size_t SCPI_ResultUInt64Base(scpi_t * context, uint64_t val, int8_t base) {
 473:libscpi/src/parser.c ****     return resultUInt64BaseSign(context, val, base, FALSE);
 474:libscpi/src/parser.c **** }
 475:libscpi/src/parser.c **** 
 476:libscpi/src/parser.c **** /**
 477:libscpi/src/parser.c ****  * Write float (32 bit) value to the result
 478:libscpi/src/parser.c ****  * @param context
 479:libscpi/src/parser.c ****  * @param val
 480:libscpi/src/parser.c ****  * @return
 481:libscpi/src/parser.c ****  */
 482:libscpi/src/parser.c **** size_t SCPI_ResultFloat(scpi_t * context, float val) {
 483:libscpi/src/parser.c ****     char buffer[32];
 484:libscpi/src/parser.c ****     size_t result = 0;
 485:libscpi/src/parser.c ****     size_t len = SCPI_FloatToStr(val, buffer, sizeof (buffer));
 486:libscpi/src/parser.c ****     result += writeDelimiter(context);
 487:libscpi/src/parser.c ****     result += writeData(context, buffer, len);
 488:libscpi/src/parser.c ****     context->output_count++;
 489:libscpi/src/parser.c ****     return result;
 490:libscpi/src/parser.c **** }
 491:libscpi/src/parser.c **** 
 492:libscpi/src/parser.c **** /**
 493:libscpi/src/parser.c ****  * Write double (64bit) value to the result
 494:libscpi/src/parser.c ****  * @param context
 495:libscpi/src/parser.c ****  * @param val
 496:libscpi/src/parser.c ****  * @return
 497:libscpi/src/parser.c ****  */
 498:libscpi/src/parser.c **** size_t SCPI_ResultDouble(scpi_t * context, double val) {
 499:libscpi/src/parser.c ****     char buffer[32];
 500:libscpi/src/parser.c ****     size_t result = 0;
 501:libscpi/src/parser.c ****     size_t len = SCPI_DoubleToStr(val, buffer, sizeof (buffer));
 502:libscpi/src/parser.c ****     result += writeDelimiter(context);
 503:libscpi/src/parser.c ****     result += writeData(context, buffer, len);
 504:libscpi/src/parser.c ****     context->output_count++;
 505:libscpi/src/parser.c ****     return result;
 506:libscpi/src/parser.c **** }
 507:libscpi/src/parser.c **** 
 508:libscpi/src/parser.c **** /**
 509:libscpi/src/parser.c ****  * Write string withn " to the result
 510:libscpi/src/parser.c ****  * @param context
 511:libscpi/src/parser.c ****  * @param data
 512:libscpi/src/parser.c ****  * @return
 513:libscpi/src/parser.c ****  */
 514:libscpi/src/parser.c **** size_t SCPI_ResultText(scpi_t * context, const char * data) {
 515:libscpi/src/parser.c ****     size_t result = 0;
 516:libscpi/src/parser.c ****     size_t len = strlen(data);
 517:libscpi/src/parser.c ****     const char * quote;
 518:libscpi/src/parser.c ****     result += writeDelimiter(context);
ARM GAS  /tmp/ccJs7hvj.s 			page 17


 519:libscpi/src/parser.c ****     result += writeData(context, "\"", 1);
 520:libscpi/src/parser.c ****     while ((quote = strnpbrk(data, len, "\""))) {
 521:libscpi/src/parser.c ****         result += writeData(context, data, quote - data + 1);
 522:libscpi/src/parser.c ****         result += writeData(context, "\"", 1);
 523:libscpi/src/parser.c ****         len -= quote - data + 1;
 524:libscpi/src/parser.c ****         data = quote + 1;
 525:libscpi/src/parser.c ****     }
 526:libscpi/src/parser.c ****     result += writeData(context, data, len);
 527:libscpi/src/parser.c ****     result += writeData(context, "\"", 1);
 528:libscpi/src/parser.c ****     context->output_count++;
 529:libscpi/src/parser.c ****     return result;
 530:libscpi/src/parser.c **** }
 531:libscpi/src/parser.c **** 
 532:libscpi/src/parser.c **** /**
 533:libscpi/src/parser.c ****  * SCPI-99:21.8 Device-dependent error information.
 534:libscpi/src/parser.c ****  * Write error information with the following syntax:
 535:libscpi/src/parser.c ****  * <Error/event_number>,"<Error/event_description>[;<Device-dependent_info>]"
 536:libscpi/src/parser.c ****  * The maximum string length of <Error/event_description> plus <Device-dependent_info>
 537:libscpi/src/parser.c ****  * is SCPI_STD_ERROR_DESC_MAX_STRING_LENGTH (255) characters.
 538:libscpi/src/parser.c ****  *
 539:libscpi/src/parser.c ****  * @param context
 540:libscpi/src/parser.c ****  * @param error
 541:libscpi/src/parser.c ****  * @return
 542:libscpi/src/parser.c ****  */
 543:libscpi/src/parser.c **** size_t SCPI_ResultError(scpi_t * context, scpi_error_t * error) {
 544:libscpi/src/parser.c ****     size_t result = 0;
 545:libscpi/src/parser.c ****     size_t outputlimit = SCPI_STD_ERROR_DESC_MAX_STRING_LENGTH;
 546:libscpi/src/parser.c ****     size_t step = 0;
 547:libscpi/src/parser.c ****     const char * quote;
 548:libscpi/src/parser.c **** 
 549:libscpi/src/parser.c ****     const char * data[SCPIDEFINE_DESCRIPTION_MAX_PARTS];
 550:libscpi/src/parser.c ****     size_t len[SCPIDEFINE_DESCRIPTION_MAX_PARTS];
 551:libscpi/src/parser.c ****     size_t i;
 552:libscpi/src/parser.c **** 
 553:libscpi/src/parser.c ****     data[0] = SCPI_ErrorTranslate(error->error_code);
 554:libscpi/src/parser.c ****     len[0] = strlen(data[0]);
 555:libscpi/src/parser.c **** 
 556:libscpi/src/parser.c **** #if USE_DEVICE_DEPENDENT_ERROR_INFORMATION
 557:libscpi/src/parser.c ****     data[1] = error->device_dependent_info;
 558:libscpi/src/parser.c **** #if USE_MEMORY_ALLOCATION_FREE
 559:libscpi/src/parser.c ****     len[1] = error->device_dependent_info ? strlen(data[1]) : 0;
 560:libscpi/src/parser.c **** #else
 561:libscpi/src/parser.c ****     SCPIDEFINE_get_parts(&context->error_info_heap, data[1], &len[1], &data[2], &len[2]);
 562:libscpi/src/parser.c **** #endif
 563:libscpi/src/parser.c **** #endif
 564:libscpi/src/parser.c **** 
 565:libscpi/src/parser.c ****     result += SCPI_ResultInt32(context, error->error_code);
 566:libscpi/src/parser.c ****     result += writeDelimiter(context);
 567:libscpi/src/parser.c ****     result += writeData(context, "\"", 1);
 568:libscpi/src/parser.c **** 
 569:libscpi/src/parser.c ****     for (i = 0; (i < SCPIDEFINE_DESCRIPTION_MAX_PARTS) && data[i] && outputlimit; i++) {
 570:libscpi/src/parser.c ****         if (i == 1) {
 571:libscpi/src/parser.c ****             result += writeSemicolon(context);
 572:libscpi/src/parser.c ****             outputlimit -= 1;
 573:libscpi/src/parser.c ****         }
 574:libscpi/src/parser.c ****         if (len[i] > outputlimit) {
 575:libscpi/src/parser.c ****             len[i] = outputlimit;
ARM GAS  /tmp/ccJs7hvj.s 			page 18


 576:libscpi/src/parser.c ****         }
 577:libscpi/src/parser.c **** 
 578:libscpi/src/parser.c ****         while ((quote = strnpbrk(data[i], len[i], "\""))) {
 579:libscpi/src/parser.c ****             if ((step = quote - data[i] + 1) >= outputlimit) {
 580:libscpi/src/parser.c ****                 len[i] -= 1;
 581:libscpi/src/parser.c ****                 outputlimit -= 1;
 582:libscpi/src/parser.c ****                 break;
 583:libscpi/src/parser.c ****             }
 584:libscpi/src/parser.c ****             result += writeData(context, data[i], step);
 585:libscpi/src/parser.c ****             result += writeData(context, "\"", 1);
 586:libscpi/src/parser.c ****             len[i] -= step;
 587:libscpi/src/parser.c ****             outputlimit -= step + 1;
 588:libscpi/src/parser.c ****             data[i] = quote + 1;
 589:libscpi/src/parser.c ****             if (len[i] > outputlimit) {
 590:libscpi/src/parser.c ****                 len[i] = outputlimit;
 591:libscpi/src/parser.c ****             }
 592:libscpi/src/parser.c ****         }
 593:libscpi/src/parser.c **** 
 594:libscpi/src/parser.c ****         result += writeData(context, data[i], len[i]);
 595:libscpi/src/parser.c ****         outputlimit -= len[i];
 596:libscpi/src/parser.c ****     }
 597:libscpi/src/parser.c ****     result += writeData(context, "\"", 1);
 598:libscpi/src/parser.c **** 
 599:libscpi/src/parser.c ****     return result;
 600:libscpi/src/parser.c **** }
 601:libscpi/src/parser.c **** 
 602:libscpi/src/parser.c **** /**
 603:libscpi/src/parser.c ****  * Write arbitrary block header with length
 604:libscpi/src/parser.c ****  * @param context
 605:libscpi/src/parser.c ****  * @param len
 606:libscpi/src/parser.c ****  * @return
 607:libscpi/src/parser.c ****  */
 608:libscpi/src/parser.c **** size_t SCPI_ResultArbitraryBlockHeader(scpi_t * context, size_t len) {
 609:libscpi/src/parser.c ****     char block_header[12];
 610:libscpi/src/parser.c ****     size_t header_len;
 611:libscpi/src/parser.c ****     block_header[0] = '#';
 612:libscpi/src/parser.c ****     SCPI_UInt32ToStrBase((uint32_t) len, block_header + 2, 10, 10);
 613:libscpi/src/parser.c **** 
 614:libscpi/src/parser.c ****     header_len = strlen(block_header + 2);
 615:libscpi/src/parser.c ****     block_header[1] = (char) (header_len + '0');
 616:libscpi/src/parser.c **** 
 617:libscpi/src/parser.c ****     context->arbitrary_reminding = len;
 618:libscpi/src/parser.c ****     return writeData(context, block_header, header_len + 2);
 619:libscpi/src/parser.c **** }
 620:libscpi/src/parser.c **** 
 621:libscpi/src/parser.c **** /**
 622:libscpi/src/parser.c ****  * Add data to arbitrary block
 623:libscpi/src/parser.c ****  * @param context
 624:libscpi/src/parser.c ****  * @param data
 625:libscpi/src/parser.c ****  * @param len
 626:libscpi/src/parser.c ****  * @return
 627:libscpi/src/parser.c ****  */
 628:libscpi/src/parser.c **** size_t SCPI_ResultArbitraryBlockData(scpi_t * context, const void * data, size_t len) {
 629:libscpi/src/parser.c **** 
 630:libscpi/src/parser.c ****     if (context->arbitrary_reminding < len) {
 631:libscpi/src/parser.c ****         SCPI_ErrorPush(context, SCPI_ERROR_SYSTEM_ERROR);
 632:libscpi/src/parser.c ****         return 0;
ARM GAS  /tmp/ccJs7hvj.s 			page 19


 633:libscpi/src/parser.c ****     }
 634:libscpi/src/parser.c **** 
 635:libscpi/src/parser.c ****     context->arbitrary_reminding -= len;
 636:libscpi/src/parser.c **** 
 637:libscpi/src/parser.c ****     if (context->arbitrary_reminding == 0) {
 638:libscpi/src/parser.c ****         context->output_count++;
 639:libscpi/src/parser.c ****     }
 640:libscpi/src/parser.c **** 
 641:libscpi/src/parser.c ****     return writeData(context, (const char *) data, len);
 642:libscpi/src/parser.c **** }
 643:libscpi/src/parser.c **** 
 644:libscpi/src/parser.c **** /**
 645:libscpi/src/parser.c ****  * Write arbitrary block program data to the result
 646:libscpi/src/parser.c ****  * @param context
 647:libscpi/src/parser.c ****  * @param data
 648:libscpi/src/parser.c ****  * @param len
 649:libscpi/src/parser.c ****  * @return
 650:libscpi/src/parser.c ****  */
 651:libscpi/src/parser.c **** size_t SCPI_ResultArbitraryBlock(scpi_t * context, const void * data, size_t len) {
 652:libscpi/src/parser.c ****     size_t result = 0;
 653:libscpi/src/parser.c ****     result += SCPI_ResultArbitraryBlockHeader(context, len);
 654:libscpi/src/parser.c ****     result += SCPI_ResultArbitraryBlockData(context, data, len);
 655:libscpi/src/parser.c ****     return result;
 656:libscpi/src/parser.c **** }
 657:libscpi/src/parser.c **** 
 658:libscpi/src/parser.c **** /**
 659:libscpi/src/parser.c ****  * Write boolean value to the result
 660:libscpi/src/parser.c ****  * @param context
 661:libscpi/src/parser.c ****  * @param val
 662:libscpi/src/parser.c ****  * @return
 663:libscpi/src/parser.c ****  */
 664:libscpi/src/parser.c **** size_t SCPI_ResultBool(scpi_t * context, scpi_bool_t val) {
 665:libscpi/src/parser.c ****     return resultUInt32BaseSign(context, val ? 1 : 0, 10, FALSE);
 666:libscpi/src/parser.c **** }
 667:libscpi/src/parser.c **** 
 668:libscpi/src/parser.c **** /* parsing parameters */
 669:libscpi/src/parser.c **** 
 670:libscpi/src/parser.c **** /**
 671:libscpi/src/parser.c ****  * Invalidate token
 672:libscpi/src/parser.c ****  * @param token
 673:libscpi/src/parser.c ****  * @param ptr
 674:libscpi/src/parser.c ****  */
 675:libscpi/src/parser.c **** static void invalidateToken(scpi_token_t * token, char * ptr) {
 382              		.loc 1 675 63 is_stmt 1 view -0
 383              		.cfi_startproc
 384              		@ args = 0, pretend = 0, frame = 0
 385              		@ frame_needed = 0, uses_anonymous_args = 0
 386              		@ link register save eliminated.
 676:libscpi/src/parser.c ****     token->len = 0;
 387              		.loc 1 676 5 view .LVU71
 388              		.loc 1 676 16 is_stmt 0 view .LVU72
 389 0000 0023     		movs	r3, #0
 390 0002 8360     		str	r3, [r0, #8]
 677:libscpi/src/parser.c ****     token->ptr = ptr;
 391              		.loc 1 677 5 is_stmt 1 view .LVU73
 392              		.loc 1 677 16 is_stmt 0 view .LVU74
 393 0004 4160     		str	r1, [r0, #4]
ARM GAS  /tmp/ccJs7hvj.s 			page 20


 678:libscpi/src/parser.c ****     token->type = SCPI_TOKEN_UNKNOWN;
 394              		.loc 1 678 5 is_stmt 1 view .LVU75
 395              		.loc 1 678 17 is_stmt 0 view .LVU76
 396 0006 1A33     		adds	r3, r3, #26
 397 0008 0370     		strb	r3, [r0]
 679:libscpi/src/parser.c **** }
 398              		.loc 1 679 1 view .LVU77
 399              		@ sp needed
 400 000a 7047     		bx	lr
 401              		.cfi_endproc
 402              	.LFE26:
 404              		.section	.text.processCommand,"ax",%progbits
 405              		.align	1
 406              		.syntax unified
 407              		.code	16
 408              		.thumb_func
 409              		.fpu softvfp
 411              	processCommand:
 412              	.LVL35:
 413              	.LFB5:
 126:libscpi/src/parser.c ****     const scpi_command_t * cmd = context->param_list.cmd;
 414              		.loc 1 126 53 is_stmt 1 view -0
 415              		.cfi_startproc
 416              		@ args = 0, pretend = 0, frame = 0
 417              		@ frame_needed = 0, uses_anonymous_args = 0
 126:libscpi/src/parser.c ****     const scpi_command_t * cmd = context->param_list.cmd;
 418              		.loc 1 126 53 is_stmt 0 view .LVU79
 419 0000 70B5     		push	{r4, r5, r6, lr}
 420              	.LCFI5:
 421              		.cfi_def_cfa_offset 16
 422              		.cfi_offset 4, -16
 423              		.cfi_offset 5, -12
 424              		.cfi_offset 6, -8
 425              		.cfi_offset 14, -4
 426 0002 0400     		movs	r4, r0
 127:libscpi/src/parser.c ****     lex_state_t * state = &context->param_list.lex_state;
 427              		.loc 1 127 5 is_stmt 1 view .LVU80
 127:libscpi/src/parser.c ****     lex_state_t * state = &context->param_list.lex_state;
 428              		.loc 1 127 28 is_stmt 0 view .LVU81
 429 0004 0569     		ldr	r5, [r0, #16]
 430              	.LVL36:
 128:libscpi/src/parser.c ****     scpi_bool_t result = TRUE;
 431              		.loc 1 128 5 is_stmt 1 view .LVU82
 129:libscpi/src/parser.c **** 
 432              		.loc 1 129 5 view .LVU83
 132:libscpi/src/parser.c **** 
 433              		.loc 1 132 5 view .LVU84
 434 0006 FFF7FEFF 		bl	writeSemicolon
 435              	.LVL37:
 134:libscpi/src/parser.c ****     context->output_count = 0;
 436              		.loc 1 134 5 view .LVU85
 134:libscpi/src/parser.c ****     context->output_count = 0;
 437              		.loc 1 134 24 is_stmt 0 view .LVU86
 438 000a 0023     		movs	r3, #0
 439 000c 3822     		movs	r2, #56
 440 000e A354     		strb	r3, [r4, r2]
 135:libscpi/src/parser.c ****     context->input_count = 0;
ARM GAS  /tmp/ccJs7hvj.s 			page 21


 441              		.loc 1 135 5 is_stmt 1 view .LVU87
 135:libscpi/src/parser.c ****     context->input_count = 0;
 442              		.loc 1 135 27 is_stmt 0 view .LVU88
 443 0010 2363     		str	r3, [r4, #48]
 136:libscpi/src/parser.c ****     context->arbitrary_reminding = 0;
 444              		.loc 1 136 5 is_stmt 1 view .LVU89
 136:libscpi/src/parser.c ****     context->arbitrary_reminding = 0;
 445              		.loc 1 136 26 is_stmt 0 view .LVU90
 446 0012 6363     		str	r3, [r4, #52]
 137:libscpi/src/parser.c **** 
 447              		.loc 1 137 5 is_stmt 1 view .LVU91
 137:libscpi/src/parser.c **** 
 448              		.loc 1 137 34 is_stmt 0 view .LVU92
 449 0014 5C32     		adds	r2, r2, #92
 450 0016 A350     		str	r3, [r4, r2]
 140:libscpi/src/parser.c ****         if ((cmd->callback(context) != SCPI_RES_OK)) {
 451              		.loc 1 140 5 is_stmt 1 view .LVU93
 140:libscpi/src/parser.c ****         if ((cmd->callback(context) != SCPI_RES_OK)) {
 452              		.loc 1 140 12 is_stmt 0 view .LVU94
 453 0018 6B68     		ldr	r3, [r5, #4]
 140:libscpi/src/parser.c ****         if ((cmd->callback(context) != SCPI_RES_OK)) {
 454              		.loc 1 140 8 view .LVU95
 455 001a 002B     		cmp	r3, #0
 456 001c 21D0     		beq	.L39
 141:libscpi/src/parser.c ****             if (!context->cmd_error) {
 457              		.loc 1 141 9 is_stmt 1 view .LVU96
 141:libscpi/src/parser.c ****             if (!context->cmd_error) {
 458              		.loc 1 141 14 is_stmt 0 view .LVU97
 459 001e 2000     		movs	r0, r4
 460 0020 9847     		blx	r3
 461              	.LVL38:
 141:libscpi/src/parser.c ****             if (!context->cmd_error) {
 462              		.loc 1 141 12 view .LVU98
 463 0022 0128     		cmp	r0, #1
 464 0024 17D0     		beq	.L37
 142:libscpi/src/parser.c ****                 SCPI_ErrorPush(context, SCPI_ERROR_EXECUTION_ERROR);
 465              		.loc 1 142 13 is_stmt 1 view .LVU99
 142:libscpi/src/parser.c ****                 SCPI_ErrorPush(context, SCPI_ERROR_EXECUTION_ERROR);
 466              		.loc 1 142 25 is_stmt 0 view .LVU100
 467 0026 3823     		movs	r3, #56
 468 0028 E55C     		ldrb	r5, [r4, r3]
 469              	.LVL39:
 142:libscpi/src/parser.c ****                 SCPI_ErrorPush(context, SCPI_ERROR_EXECUTION_ERROR);
 470              		.loc 1 142 16 view .LVU101
 471 002a 002D     		cmp	r5, #0
 472 002c 0DD0     		beq	.L42
 145:libscpi/src/parser.c ****         } else {
 473              		.loc 1 145 20 view .LVU102
 474 002e 0025     		movs	r5, #0
 475              	.L36:
 476              	.LVL40:
 154:libscpi/src/parser.c ****         SCPI_ErrorPush(context, SCPI_ERROR_PARAMETER_NOT_ALLOWED);
 477              		.loc 1 154 5 is_stmt 1 view .LVU103
 154:libscpi/src/parser.c ****         SCPI_ErrorPush(context, SCPI_ERROR_PARAMETER_NOT_ALLOWED);
 478              		.loc 1 154 37 is_stmt 0 view .LVU104
 479 0030 6369     		ldr	r3, [r4, #20]
 480 0032 E269     		ldr	r2, [r4, #28]
ARM GAS  /tmp/ccJs7hvj.s 			page 22


 481 0034 9446     		mov	ip, r2
 482 0036 6344     		add	r3, r3, ip
 154:libscpi/src/parser.c ****         SCPI_ErrorPush(context, SCPI_ERROR_PARAMETER_NOT_ALLOWED);
 483              		.loc 1 154 8 view .LVU105
 484 0038 A269     		ldr	r2, [r4, #24]
 485 003a 9A42     		cmp	r2, r3
 486 003c 03D2     		bcs	.L38
 154:libscpi/src/parser.c ****         SCPI_ErrorPush(context, SCPI_ERROR_PARAMETER_NOT_ALLOWED);
 487              		.loc 1 154 62 discriminator 1 view .LVU106
 488 003e 3823     		movs	r3, #56
 489 0040 E65C     		ldrb	r6, [r4, r3]
 154:libscpi/src/parser.c ****         SCPI_ErrorPush(context, SCPI_ERROR_PARAMETER_NOT_ALLOWED);
 490              		.loc 1 154 51 discriminator 1 view .LVU107
 491 0042 002E     		cmp	r6, #0
 492 0044 11D0     		beq	.L43
 493              	.LVL41:
 494              	.L38:
 159:libscpi/src/parser.c **** }
 495              		.loc 1 159 5 is_stmt 1 view .LVU108
 160:libscpi/src/parser.c **** 
 496              		.loc 1 160 1 is_stmt 0 view .LVU109
 497 0046 2800     		movs	r0, r5
 498              		@ sp needed
 499              	.LVL42:
 500              	.LVL43:
 160:libscpi/src/parser.c **** 
 501              		.loc 1 160 1 view .LVU110
 502 0048 70BD     		pop	{r4, r5, r6, pc}
 503              	.LVL44:
 504              	.L42:
 143:libscpi/src/parser.c ****             }
 505              		.loc 1 143 17 is_stmt 1 view .LVU111
 506 004a C821     		movs	r1, #200
 507 004c 4942     		rsbs	r1, r1, #0
 508 004e 2000     		movs	r0, r4
 509 0050 FFF7FEFF 		bl	SCPI_ErrorPush
 510              	.LVL45:
 511 0054 ECE7     		b	.L36
 512              	.LVL46:
 513              	.L37:
 147:libscpi/src/parser.c ****                 result = FALSE;
 514              		.loc 1 147 13 view .LVU112
 147:libscpi/src/parser.c ****                 result = FALSE;
 515              		.loc 1 147 24 is_stmt 0 view .LVU113
 516 0056 3823     		movs	r3, #56
 517 0058 E35C     		ldrb	r3, [r4, r3]
 147:libscpi/src/parser.c ****                 result = FALSE;
 518              		.loc 1 147 16 view .LVU114
 519 005a 002B     		cmp	r3, #0
 520 005c 03D1     		bne	.L41
 129:libscpi/src/parser.c **** 
 521              		.loc 1 129 17 view .LVU115
 522 005e 0125     		movs	r5, #1
 523              	.LVL47:
 129:libscpi/src/parser.c **** 
 524              		.loc 1 129 17 view .LVU116
 525 0060 E6E7     		b	.L36
ARM GAS  /tmp/ccJs7hvj.s 			page 23


 526              	.LVL48:
 527              	.L39:
 129:libscpi/src/parser.c **** 
 528              		.loc 1 129 17 view .LVU117
 529 0062 0125     		movs	r5, #1
 530              	.LVL49:
 129:libscpi/src/parser.c **** 
 531              		.loc 1 129 17 view .LVU118
 532 0064 E4E7     		b	.L36
 533              	.LVL50:
 534              	.L41:
 148:libscpi/src/parser.c ****             }
 535              		.loc 1 148 24 view .LVU119
 536 0066 0025     		movs	r5, #0
 537              	.LVL51:
 148:libscpi/src/parser.c ****             }
 538              		.loc 1 148 24 view .LVU120
 539 0068 E2E7     		b	.L36
 540              	.LVL52:
 541              	.L43:
 155:libscpi/src/parser.c ****         result = FALSE;
 542              		.loc 1 155 9 is_stmt 1 view .LVU121
 543 006a 6C21     		movs	r1, #108
 544 006c 4942     		rsbs	r1, r1, #0
 545 006e 2000     		movs	r0, r4
 546 0070 FFF7FEFF 		bl	SCPI_ErrorPush
 547              	.LVL53:
 156:libscpi/src/parser.c ****     }
 548              		.loc 1 156 9 view .LVU122
 156:libscpi/src/parser.c ****     }
 549              		.loc 1 156 16 is_stmt 0 view .LVU123
 550 0074 3500     		movs	r5, r6
 551 0076 E6E7     		b	.L38
 552              		.cfi_endproc
 553              	.LFE5:
 555              		.section	.text.findCommandHeader,"ax",%progbits
 556              		.align	1
 557              		.syntax unified
 558              		.code	16
 559              		.thumb_func
 560              		.fpu softvfp
 562              	findCommandHeader:
 563              	.LVL54:
 564              	.LFB6:
 167:libscpi/src/parser.c ****     int32_t i;
 565              		.loc 1 167 86 is_stmt 1 view -0
 566              		.cfi_startproc
 567              		@ args = 0, pretend = 0, frame = 0
 568              		@ frame_needed = 0, uses_anonymous_args = 0
 167:libscpi/src/parser.c ****     int32_t i;
 569              		.loc 1 167 86 is_stmt 0 view .LVU125
 570 0000 F0B5     		push	{r4, r5, r6, r7, lr}
 571              	.LCFI6:
 572              		.cfi_def_cfa_offset 20
 573              		.cfi_offset 4, -20
 574              		.cfi_offset 5, -16
 575              		.cfi_offset 6, -12
ARM GAS  /tmp/ccJs7hvj.s 			page 24


 576              		.cfi_offset 7, -8
 577              		.cfi_offset 14, -4
 578 0002 C646     		mov	lr, r8
 579 0004 00B5     		push	{lr}
 580              	.LCFI7:
 581              		.cfi_def_cfa_offset 24
 582              		.cfi_offset 8, -24
 583 0006 82B0     		sub	sp, sp, #8
 584              	.LCFI8:
 585              		.cfi_def_cfa_offset 32
 586 0008 0600     		movs	r6, r0
 587 000a 8846     		mov	r8, r1
 588 000c 1700     		movs	r7, r2
 168:libscpi/src/parser.c ****     const scpi_command_t * cmd;
 589              		.loc 1 168 5 is_stmt 1 view .LVU126
 169:libscpi/src/parser.c **** 
 590              		.loc 1 169 5 view .LVU127
 171:libscpi/src/parser.c ****         cmd = &context->cmdlist[i];
 591              		.loc 1 171 5 view .LVU128
 592              	.LVL55:
 171:libscpi/src/parser.c ****         cmd = &context->cmdlist[i];
 593              		.loc 1 171 12 is_stmt 0 view .LVU129
 594 000e 0025     		movs	r5, #0
 595              	.LVL56:
 596              	.L45:
 171:libscpi/src/parser.c ****         cmd = &context->cmdlist[i];
 597              		.loc 1 171 17 is_stmt 1 discriminator 1 view .LVU130
 171:libscpi/src/parser.c ****         cmd = &context->cmdlist[i];
 598              		.loc 1 171 33 is_stmt 0 discriminator 1 view .LVU131
 599 0010 6B00     		lsls	r3, r5, #1
 600 0012 5B19     		adds	r3, r3, r5
 601 0014 9B00     		lsls	r3, r3, #2
 602 0016 3268     		ldr	r2, [r6]
 603 0018 D418     		adds	r4, r2, r3
 171:libscpi/src/parser.c ****         cmd = &context->cmdlist[i];
 604              		.loc 1 171 36 discriminator 1 view .LVU132
 605 001a 2068     		ldr	r0, [r4]
 171:libscpi/src/parser.c ****         cmd = &context->cmdlist[i];
 606              		.loc 1 171 5 discriminator 1 view .LVU133
 607 001c 0028     		cmp	r0, #0
 608 001e 0BD0     		beq	.L47
 172:libscpi/src/parser.c ****         if (matchCommand(cmd->pattern, header, len, NULL, 0, 0)) {
 609              		.loc 1 172 9 is_stmt 1 view .LVU134
 610              	.LVL57:
 173:libscpi/src/parser.c ****             context->param_list.cmd = cmd;
 611              		.loc 1 173 9 view .LVU135
 173:libscpi/src/parser.c ****             context->param_list.cmd = cmd;
 612              		.loc 1 173 13 is_stmt 0 view .LVU136
 613 0020 0023     		movs	r3, #0
 614 0022 0193     		str	r3, [sp, #4]
 615 0024 0093     		str	r3, [sp]
 616 0026 3A00     		movs	r2, r7
 617 0028 4146     		mov	r1, r8
 618 002a FFF7FEFF 		bl	matchCommand
 619              	.LVL58:
 173:libscpi/src/parser.c ****             context->param_list.cmd = cmd;
 620              		.loc 1 173 12 view .LVU137
ARM GAS  /tmp/ccJs7hvj.s 			page 25


 621 002e 0028     		cmp	r0, #0
 622 0030 01D1     		bne	.L49
 171:libscpi/src/parser.c ****         cmd = &context->cmdlist[i];
 623              		.loc 1 171 54 is_stmt 1 discriminator 2 view .LVU138
 171:libscpi/src/parser.c ****         cmd = &context->cmdlist[i];
 624              		.loc 1 171 55 is_stmt 0 discriminator 2 view .LVU139
 625 0032 0135     		adds	r5, r5, #1
 626              	.LVL59:
 171:libscpi/src/parser.c ****         cmd = &context->cmdlist[i];
 627              		.loc 1 171 55 discriminator 2 view .LVU140
 628 0034 ECE7     		b	.L45
 629              	.L49:
 174:libscpi/src/parser.c ****             return TRUE;
 630              		.loc 1 174 13 is_stmt 1 view .LVU141
 174:libscpi/src/parser.c ****             return TRUE;
 631              		.loc 1 174 37 is_stmt 0 view .LVU142
 632 0036 3461     		str	r4, [r6, #16]
 175:libscpi/src/parser.c ****         }
 633              		.loc 1 175 13 is_stmt 1 view .LVU143
 634              	.LVL60:
 635              	.L47:
 179:libscpi/src/parser.c **** 
 636              		.loc 1 179 1 is_stmt 0 view .LVU144
 637 0038 02B0     		add	sp, sp, #8
 638              		@ sp needed
 639              	.LVL61:
 640              	.LVL62:
 641              	.LVL63:
 642              	.LVL64:
 179:libscpi/src/parser.c **** 
 643              		.loc 1 179 1 view .LVU145
 644 003a 04BC     		pop	{r2}
 645 003c 9046     		mov	r8, r2
 646 003e F0BD     		pop	{r4, r5, r6, r7, pc}
 647              		.cfi_endproc
 648              	.LFE6:
 650              		.section	.text.resultUInt32BaseSign,"ax",%progbits
 651              		.align	1
 652              		.syntax unified
 653              		.code	16
 654              		.thumb_func
 655              		.fpu softvfp
 657              	resultUInt32BaseSign:
 658              	.LVL65:
 659              	.LFB12:
 391:libscpi/src/parser.c ****     char buffer[32 + 1];
 660              		.loc 1 391 99 is_stmt 1 view -0
 661              		.cfi_startproc
 662              		@ args = 0, pretend = 0, frame = 40
 663              		@ frame_needed = 0, uses_anonymous_args = 0
 391:libscpi/src/parser.c ****     char buffer[32 + 1];
 664              		.loc 1 391 99 is_stmt 0 view .LVU147
 665 0000 F0B5     		push	{r4, r5, r6, r7, lr}
 666              	.LCFI9:
 667              		.cfi_def_cfa_offset 20
 668              		.cfi_offset 4, -20
 669              		.cfi_offset 5, -16
ARM GAS  /tmp/ccJs7hvj.s 			page 26


 670              		.cfi_offset 6, -12
 671              		.cfi_offset 7, -8
 672              		.cfi_offset 14, -4
 673 0002 8DB0     		sub	sp, sp, #52
 674              	.LCFI10:
 675              		.cfi_def_cfa_offset 72
 676 0004 0400     		movs	r4, r0
 677 0006 0800     		movs	r0, r1
 678              	.LVL66:
 391:libscpi/src/parser.c ****     char buffer[32 + 1];
 679              		.loc 1 391 99 view .LVU148
 680 0008 1500     		movs	r5, r2
 392:libscpi/src/parser.c ****     const char * basePrefix;
 681              		.loc 1 392 5 is_stmt 1 view .LVU149
 393:libscpi/src/parser.c ****     size_t result = 0;
 682              		.loc 1 393 5 view .LVU150
 394:libscpi/src/parser.c ****     size_t len;
 683              		.loc 1 394 5 view .LVU151
 684              	.LVL67:
 395:libscpi/src/parser.c **** 
 685              		.loc 1 395 5 view .LVU152
 397:libscpi/src/parser.c ****     basePrefix = getBasePrefix(base);
 686              		.loc 1 397 5 view .LVU153
 397:libscpi/src/parser.c ****     basePrefix = getBasePrefix(base);
 687              		.loc 1 397 11 is_stmt 0 view .LVU154
 688 000a 0093     		str	r3, [sp]
 689 000c 1300     		movs	r3, r2
 690              	.LVL68:
 397:libscpi/src/parser.c ****     basePrefix = getBasePrefix(base);
 691              		.loc 1 397 11 view .LVU155
 692 000e 2122     		movs	r2, #33
 693              	.LVL69:
 397:libscpi/src/parser.c ****     basePrefix = getBasePrefix(base);
 694              		.loc 1 397 11 view .LVU156
 695 0010 03A9     		add	r1, sp, #12
 696              	.LVL70:
 397:libscpi/src/parser.c ****     basePrefix = getBasePrefix(base);
 697              		.loc 1 397 11 view .LVU157
 698 0012 FFF7FEFF 		bl	UInt32ToStrBaseSign
 699              	.LVL71:
 397:libscpi/src/parser.c ****     basePrefix = getBasePrefix(base);
 700              		.loc 1 397 11 view .LVU158
 701 0016 0700     		movs	r7, r0
 702              	.LVL72:
 398:libscpi/src/parser.c **** 
 703              		.loc 1 398 5 is_stmt 1 view .LVU159
 398:libscpi/src/parser.c **** 
 704              		.loc 1 398 18 is_stmt 0 view .LVU160
 705 0018 2800     		movs	r0, r5
 706              	.LVL73:
 398:libscpi/src/parser.c **** 
 707              		.loc 1 398 18 view .LVU161
 708 001a FFF7FEFF 		bl	getBasePrefix
 709              	.LVL74:
 710 001e 0600     		movs	r6, r0
 711              	.LVL75:
 400:libscpi/src/parser.c ****     if (basePrefix != NULL) {
ARM GAS  /tmp/ccJs7hvj.s 			page 27


 712              		.loc 1 400 5 is_stmt 1 view .LVU162
 400:libscpi/src/parser.c ****     if (basePrefix != NULL) {
 713              		.loc 1 400 15 is_stmt 0 view .LVU163
 714 0020 2000     		movs	r0, r4
 715              	.LVL76:
 400:libscpi/src/parser.c ****     if (basePrefix != NULL) {
 716              		.loc 1 400 15 view .LVU164
 717 0022 FFF7FEFF 		bl	writeDelimiter
 718              	.LVL77:
 719 0026 0500     		movs	r5, r0
 720              	.LVL78:
 401:libscpi/src/parser.c ****         result += writeData(context, basePrefix, 2);
 721              		.loc 1 401 5 is_stmt 1 view .LVU165
 401:libscpi/src/parser.c ****         result += writeData(context, basePrefix, 2);
 722              		.loc 1 401 8 is_stmt 0 view .LVU166
 723 0028 002E     		cmp	r6, #0
 724 002a 05D0     		beq	.L51
 402:libscpi/src/parser.c ****     }
 725              		.loc 1 402 9 is_stmt 1 view .LVU167
 402:libscpi/src/parser.c ****     }
 726              		.loc 1 402 19 is_stmt 0 view .LVU168
 727 002c 0222     		movs	r2, #2
 728 002e 3100     		movs	r1, r6
 729 0030 2000     		movs	r0, r4
 730              	.LVL79:
 402:libscpi/src/parser.c ****     }
 731              		.loc 1 402 19 view .LVU169
 732 0032 FFF7FEFF 		bl	writeData
 733              	.LVL80:
 402:libscpi/src/parser.c ****     }
 734              		.loc 1 402 16 view .LVU170
 735 0036 2D18     		adds	r5, r5, r0
 736              	.LVL81:
 737              	.L51:
 404:libscpi/src/parser.c ****     context->output_count++;
 738              		.loc 1 404 5 is_stmt 1 view .LVU171
 404:libscpi/src/parser.c ****     context->output_count++;
 739              		.loc 1 404 15 is_stmt 0 view .LVU172
 740 0038 3A00     		movs	r2, r7
 741 003a 03A9     		add	r1, sp, #12
 742 003c 2000     		movs	r0, r4
 743 003e FFF7FEFF 		bl	writeData
 744              	.LVL82:
 404:libscpi/src/parser.c ****     context->output_count++;
 745              		.loc 1 404 12 view .LVU173
 746 0042 2818     		adds	r0, r5, r0
 747              	.LVL83:
 405:libscpi/src/parser.c ****     return result;
 748              		.loc 1 405 5 is_stmt 1 view .LVU174
 405:libscpi/src/parser.c ****     return result;
 749              		.loc 1 405 26 is_stmt 0 view .LVU175
 750 0044 236B     		ldr	r3, [r4, #48]
 751 0046 0133     		adds	r3, r3, #1
 752 0048 2363     		str	r3, [r4, #48]
 406:libscpi/src/parser.c **** }
 753              		.loc 1 406 5 is_stmt 1 view .LVU176
 407:libscpi/src/parser.c **** 
ARM GAS  /tmp/ccJs7hvj.s 			page 28


 754              		.loc 1 407 1 is_stmt 0 view .LVU177
 755 004a 0DB0     		add	sp, sp, #52
 756              		@ sp needed
 757              	.LVL84:
 758              	.LVL85:
 759              	.LVL86:
 407:libscpi/src/parser.c **** 
 760              		.loc 1 407 1 view .LVU178
 761 004c F0BD     		pop	{r4, r5, r6, r7, pc}
 762              		.cfi_endproc
 763              	.LFE12:
 765              		.section	.text.resultUInt64BaseSign,"ax",%progbits
 766              		.align	1
 767              		.syntax unified
 768              		.code	16
 769              		.thumb_func
 770              		.fpu softvfp
 772              	resultUInt64BaseSign:
 773              	.LVL87:
 774              	.LFB13:
 417:libscpi/src/parser.c ****     char buffer[64 + 1];
 775              		.loc 1 417 99 is_stmt 1 view -0
 776              		.cfi_startproc
 777              		@ args = 8, pretend = 0, frame = 72
 778              		@ frame_needed = 0, uses_anonymous_args = 0
 417:libscpi/src/parser.c ****     char buffer[64 + 1];
 779              		.loc 1 417 99 is_stmt 0 view .LVU180
 780 0000 F0B5     		push	{r4, r5, r6, r7, lr}
 781              	.LCFI11:
 782              		.cfi_def_cfa_offset 20
 783              		.cfi_offset 4, -20
 784              		.cfi_offset 5, -16
 785              		.cfi_offset 6, -12
 786              		.cfi_offset 7, -8
 787              		.cfi_offset 14, -4
 788 0002 95B0     		sub	sp, sp, #84
 789              	.LCFI12:
 790              		.cfi_def_cfa_offset 104
 791 0004 0400     		movs	r4, r0
 792 0006 1000     		movs	r0, r2
 793              	.LVL88:
 417:libscpi/src/parser.c ****     char buffer[64 + 1];
 794              		.loc 1 417 99 view .LVU181
 795 0008 1900     		movs	r1, r3
 796 000a 1AAB     		add	r3, sp, #104
 797              	.LVL89:
 417:libscpi/src/parser.c ****     char buffer[64 + 1];
 798              		.loc 1 417 99 view .LVU182
 799 000c 0025     		movs	r5, #0
 800 000e 5D57     		ldrsb	r5, [r3, r5]
 801 0010 1BAB     		add	r3, sp, #108
 802              	.LVL90:
 417:libscpi/src/parser.c ****     char buffer[64 + 1];
 803              		.loc 1 417 99 view .LVU183
 804 0012 1B78     		ldrb	r3, [r3]
 805              	.LVL91:
 418:libscpi/src/parser.c ****     const char * basePrefix;
ARM GAS  /tmp/ccJs7hvj.s 			page 29


 806              		.loc 1 418 5 is_stmt 1 view .LVU184
 419:libscpi/src/parser.c ****     size_t result = 0;
 807              		.loc 1 419 5 view .LVU185
 420:libscpi/src/parser.c ****     size_t len;
 808              		.loc 1 420 5 view .LVU186
 421:libscpi/src/parser.c **** 
 809              		.loc 1 421 5 view .LVU187
 423:libscpi/src/parser.c ****     basePrefix = getBasePrefix(base);
 810              		.loc 1 423 5 view .LVU188
 423:libscpi/src/parser.c ****     basePrefix = getBasePrefix(base);
 811              		.loc 1 423 11 is_stmt 0 view .LVU189
 812 0014 0193     		str	r3, [sp, #4]
 813 0016 0095     		str	r5, [sp]
 814 0018 4123     		movs	r3, #65
 815 001a 03AA     		add	r2, sp, #12
 816              	.LVL92:
 423:libscpi/src/parser.c ****     basePrefix = getBasePrefix(base);
 817              		.loc 1 423 11 view .LVU190
 818 001c FFF7FEFF 		bl	UInt64ToStrBaseSign
 819              	.LVL93:
 820 0020 0700     		movs	r7, r0
 821              	.LVL94:
 424:libscpi/src/parser.c **** 
 822              		.loc 1 424 5 is_stmt 1 view .LVU191
 424:libscpi/src/parser.c **** 
 823              		.loc 1 424 18 is_stmt 0 view .LVU192
 824 0022 2800     		movs	r0, r5
 825              	.LVL95:
 424:libscpi/src/parser.c **** 
 826              		.loc 1 424 18 view .LVU193
 827 0024 FFF7FEFF 		bl	getBasePrefix
 828              	.LVL96:
 829 0028 0600     		movs	r6, r0
 830              	.LVL97:
 426:libscpi/src/parser.c ****     if (basePrefix != NULL) {
 831              		.loc 1 426 5 is_stmt 1 view .LVU194
 426:libscpi/src/parser.c ****     if (basePrefix != NULL) {
 832              		.loc 1 426 15 is_stmt 0 view .LVU195
 833 002a 2000     		movs	r0, r4
 834              	.LVL98:
 426:libscpi/src/parser.c ****     if (basePrefix != NULL) {
 835              		.loc 1 426 15 view .LVU196
 836 002c FFF7FEFF 		bl	writeDelimiter
 837              	.LVL99:
 838 0030 0500     		movs	r5, r0
 839              	.LVL100:
 427:libscpi/src/parser.c ****         result += writeData(context, basePrefix, 2);
 840              		.loc 1 427 5 is_stmt 1 view .LVU197
 427:libscpi/src/parser.c ****         result += writeData(context, basePrefix, 2);
 841              		.loc 1 427 8 is_stmt 0 view .LVU198
 842 0032 002E     		cmp	r6, #0
 843 0034 05D0     		beq	.L53
 428:libscpi/src/parser.c ****     }
 844              		.loc 1 428 9 is_stmt 1 view .LVU199
 428:libscpi/src/parser.c ****     }
 845              		.loc 1 428 19 is_stmt 0 view .LVU200
 846 0036 0222     		movs	r2, #2
ARM GAS  /tmp/ccJs7hvj.s 			page 30


 847 0038 3100     		movs	r1, r6
 848 003a 2000     		movs	r0, r4
 849              	.LVL101:
 428:libscpi/src/parser.c ****     }
 850              		.loc 1 428 19 view .LVU201
 851 003c FFF7FEFF 		bl	writeData
 852              	.LVL102:
 428:libscpi/src/parser.c ****     }
 853              		.loc 1 428 16 view .LVU202
 854 0040 2D18     		adds	r5, r5, r0
 855              	.LVL103:
 856              	.L53:
 430:libscpi/src/parser.c ****     context->output_count++;
 857              		.loc 1 430 5 is_stmt 1 view .LVU203
 430:libscpi/src/parser.c ****     context->output_count++;
 858              		.loc 1 430 15 is_stmt 0 view .LVU204
 859 0042 3A00     		movs	r2, r7
 860 0044 03A9     		add	r1, sp, #12
 861 0046 2000     		movs	r0, r4
 862 0048 FFF7FEFF 		bl	writeData
 863              	.LVL104:
 430:libscpi/src/parser.c ****     context->output_count++;
 864              		.loc 1 430 12 view .LVU205
 865 004c 2818     		adds	r0, r5, r0
 866              	.LVL105:
 431:libscpi/src/parser.c ****     return result;
 867              		.loc 1 431 5 is_stmt 1 view .LVU206
 431:libscpi/src/parser.c ****     return result;
 868              		.loc 1 431 26 is_stmt 0 view .LVU207
 869 004e 236B     		ldr	r3, [r4, #48]
 870 0050 0133     		adds	r3, r3, #1
 871 0052 2363     		str	r3, [r4, #48]
 432:libscpi/src/parser.c **** }
 872              		.loc 1 432 5 is_stmt 1 view .LVU208
 433:libscpi/src/parser.c **** 
 873              		.loc 1 433 1 is_stmt 0 view .LVU209
 874 0054 15B0     		add	sp, sp, #84
 875              		@ sp needed
 876              	.LVL106:
 877              	.LVL107:
 878              	.LVL108:
 433:libscpi/src/parser.c **** 
 879              		.loc 1 433 1 view .LVU210
 880 0056 F0BD     		pop	{r4, r5, r6, r7, pc}
 881              		.cfi_endproc
 882              	.LFE13:
 884              		.section	.text.ParamSignToUInt32,"ax",%progbits
 885              		.align	1
 886              		.syntax unified
 887              		.code	16
 888              		.thumb_func
 889              		.fpu softvfp
 891              	ParamSignToUInt32:
 892              	.LVL109:
 893              	.LFB29:
 680:libscpi/src/parser.c **** 
 681:libscpi/src/parser.c **** /**
ARM GAS  /tmp/ccJs7hvj.s 			page 31


 682:libscpi/src/parser.c ****  * Get one parameter from command line
 683:libscpi/src/parser.c ****  * @param context
 684:libscpi/src/parser.c ****  * @param parameter
 685:libscpi/src/parser.c ****  * @param mandatory
 686:libscpi/src/parser.c ****  * @return
 687:libscpi/src/parser.c ****  */
 688:libscpi/src/parser.c **** scpi_bool_t SCPI_Parameter(scpi_t * context, scpi_parameter_t * parameter, scpi_bool_t mandatory) {
 689:libscpi/src/parser.c ****     lex_state_t * state;
 690:libscpi/src/parser.c **** 
 691:libscpi/src/parser.c ****     if (!parameter) {
 692:libscpi/src/parser.c ****         SCPI_ErrorPush(context, SCPI_ERROR_SYSTEM_ERROR);
 693:libscpi/src/parser.c ****         return FALSE;
 694:libscpi/src/parser.c ****     }
 695:libscpi/src/parser.c **** 
 696:libscpi/src/parser.c ****     invalidateToken(parameter, NULL);
 697:libscpi/src/parser.c **** 
 698:libscpi/src/parser.c ****     state = &context->param_list.lex_state;
 699:libscpi/src/parser.c **** 
 700:libscpi/src/parser.c ****     if (state->pos >= (state->buffer + state->len)) {
 701:libscpi/src/parser.c ****         if (mandatory) {
 702:libscpi/src/parser.c ****             SCPI_ErrorPush(context, SCPI_ERROR_MISSING_PARAMETER);
 703:libscpi/src/parser.c ****         } else {
 704:libscpi/src/parser.c ****             parameter->type = SCPI_TOKEN_PROGRAM_MNEMONIC; /* TODO: select something different */
 705:libscpi/src/parser.c ****         }
 706:libscpi/src/parser.c ****         return FALSE;
 707:libscpi/src/parser.c ****     }
 708:libscpi/src/parser.c ****     if (context->input_count != 0) {
 709:libscpi/src/parser.c ****         scpiLex_Comma(state, parameter);
 710:libscpi/src/parser.c ****         if (parameter->type != SCPI_TOKEN_COMMA) {
 711:libscpi/src/parser.c ****             invalidateToken(parameter, NULL);
 712:libscpi/src/parser.c ****             SCPI_ErrorPush(context, SCPI_ERROR_INVALID_SEPARATOR);
 713:libscpi/src/parser.c ****             return FALSE;
 714:libscpi/src/parser.c ****         }
 715:libscpi/src/parser.c ****     }
 716:libscpi/src/parser.c **** 
 717:libscpi/src/parser.c ****     context->input_count++;
 718:libscpi/src/parser.c **** 
 719:libscpi/src/parser.c ****     scpiParser_parseProgramData(&context->param_list.lex_state, parameter);
 720:libscpi/src/parser.c **** 
 721:libscpi/src/parser.c ****     switch (parameter->type) {
 722:libscpi/src/parser.c ****         case SCPI_TOKEN_HEXNUM:
 723:libscpi/src/parser.c ****         case SCPI_TOKEN_OCTNUM:
 724:libscpi/src/parser.c ****         case SCPI_TOKEN_BINNUM:
 725:libscpi/src/parser.c ****         case SCPI_TOKEN_PROGRAM_MNEMONIC:
 726:libscpi/src/parser.c ****         case SCPI_TOKEN_DECIMAL_NUMERIC_PROGRAM_DATA:
 727:libscpi/src/parser.c ****         case SCPI_TOKEN_DECIMAL_NUMERIC_PROGRAM_DATA_WITH_SUFFIX:
 728:libscpi/src/parser.c ****         case SCPI_TOKEN_ARBITRARY_BLOCK_PROGRAM_DATA:
 729:libscpi/src/parser.c ****         case SCPI_TOKEN_SINGLE_QUOTE_PROGRAM_DATA:
 730:libscpi/src/parser.c ****         case SCPI_TOKEN_DOUBLE_QUOTE_PROGRAM_DATA:
 731:libscpi/src/parser.c ****         case SCPI_TOKEN_PROGRAM_EXPRESSION:
 732:libscpi/src/parser.c ****             return TRUE;
 733:libscpi/src/parser.c ****         default:
 734:libscpi/src/parser.c ****             invalidateToken(parameter, NULL);
 735:libscpi/src/parser.c ****             SCPI_ErrorPush(context, SCPI_ERROR_INVALID_STRING_DATA);
 736:libscpi/src/parser.c ****             return FALSE;
 737:libscpi/src/parser.c ****     }
 738:libscpi/src/parser.c **** }
ARM GAS  /tmp/ccJs7hvj.s 			page 32


 739:libscpi/src/parser.c **** 
 740:libscpi/src/parser.c **** /**
 741:libscpi/src/parser.c ****  * Detect if parameter is number
 742:libscpi/src/parser.c ****  * @param parameter
 743:libscpi/src/parser.c ****  * @param suffixAllowed
 744:libscpi/src/parser.c ****  * @return
 745:libscpi/src/parser.c ****  */
 746:libscpi/src/parser.c **** scpi_bool_t SCPI_ParamIsNumber(scpi_parameter_t * parameter, scpi_bool_t suffixAllowed) {
 747:libscpi/src/parser.c ****     switch (parameter->type) {
 748:libscpi/src/parser.c ****         case SCPI_TOKEN_HEXNUM:
 749:libscpi/src/parser.c ****         case SCPI_TOKEN_OCTNUM:
 750:libscpi/src/parser.c ****         case SCPI_TOKEN_BINNUM:
 751:libscpi/src/parser.c ****         case SCPI_TOKEN_DECIMAL_NUMERIC_PROGRAM_DATA:
 752:libscpi/src/parser.c ****             return TRUE;
 753:libscpi/src/parser.c ****         case SCPI_TOKEN_DECIMAL_NUMERIC_PROGRAM_DATA_WITH_SUFFIX:
 754:libscpi/src/parser.c ****             return suffixAllowed;
 755:libscpi/src/parser.c ****         default:
 756:libscpi/src/parser.c ****             return FALSE;
 757:libscpi/src/parser.c ****     }
 758:libscpi/src/parser.c **** }
 759:libscpi/src/parser.c **** 
 760:libscpi/src/parser.c **** /**
 761:libscpi/src/parser.c ****  * Convert parameter to signed/unsigned 32 bit integer
 762:libscpi/src/parser.c ****  * @param context
 763:libscpi/src/parser.c ****  * @param parameter
 764:libscpi/src/parser.c ****  * @param value result
 765:libscpi/src/parser.c ****  * @param sign
 766:libscpi/src/parser.c ****  * @return TRUE if succesful
 767:libscpi/src/parser.c ****  */
 768:libscpi/src/parser.c **** static scpi_bool_t ParamSignToUInt32(scpi_t * context, scpi_parameter_t * parameter, uint32_t * val
 894              		.loc 1 768 122 is_stmt 1 view -0
 895              		.cfi_startproc
 896              		@ args = 0, pretend = 0, frame = 0
 897              		@ frame_needed = 0, uses_anonymous_args = 0
 898              		.loc 1 768 122 is_stmt 0 view .LVU212
 899 0000 10B5     		push	{r4, lr}
 900              	.LCFI13:
 901              		.cfi_def_cfa_offset 8
 902              		.cfi_offset 4, -8
 903              		.cfi_offset 14, -4
 904 0002 0C00     		movs	r4, r1
 905 0004 111E     		subs	r1, r2, #0
 906              	.LVL110:
 769:libscpi/src/parser.c **** 
 770:libscpi/src/parser.c ****     if (!value) {
 907              		.loc 1 770 5 is_stmt 1 view .LVU213
 908              		.loc 1 770 8 is_stmt 0 view .LVU214
 909 0006 0FD0     		beq	.L65
 771:libscpi/src/parser.c ****         SCPI_ErrorPush(context, SCPI_ERROR_SYSTEM_ERROR);
 772:libscpi/src/parser.c ****         return FALSE;
 773:libscpi/src/parser.c ****     }
 774:libscpi/src/parser.c **** 
 775:libscpi/src/parser.c ****     switch (parameter->type) {
 910              		.loc 1 775 5 is_stmt 1 view .LVU215
 911              		.loc 1 775 22 is_stmt 0 view .LVU216
 912 0008 2078     		ldrb	r0, [r4]
 913              	.LVL111:
ARM GAS  /tmp/ccJs7hvj.s 			page 33


 914              		.loc 1 775 5 view .LVU217
 915 000a 0828     		cmp	r0, #8
 916 000c 29D0     		beq	.L57
 917 000e 12D8     		bhi	.L58
 918 0010 0628     		cmp	r0, #6
 919 0012 1ED0     		beq	.L59
 920 0014 0728     		cmp	r0, #7
 921 0016 0CD1     		bne	.L66
 776:libscpi/src/parser.c ****         case SCPI_TOKEN_HEXNUM:
 777:libscpi/src/parser.c ****             return strBaseToUInt32(parameter->ptr, value, 16) > 0 ? TRUE : FALSE;
 778:libscpi/src/parser.c ****         case SCPI_TOKEN_OCTNUM:
 779:libscpi/src/parser.c ****             return strBaseToUInt32(parameter->ptr, value, 8) > 0 ? TRUE : FALSE;
 922              		.loc 1 779 13 is_stmt 1 view .LVU218
 923              		.loc 1 779 45 is_stmt 0 view .LVU219
 924 0018 6068     		ldr	r0, [r4, #4]
 925              		.loc 1 779 20 view .LVU220
 926 001a 0822     		movs	r2, #8
 927              	.LVL112:
 928              		.loc 1 779 20 view .LVU221
 929 001c FFF7FEFF 		bl	strBaseToUInt32
 930              	.LVL113:
 931              		.loc 1 779 73 view .LVU222
 932 0020 431E     		subs	r3, r0, #1
 933 0022 9841     		sbcs	r0, r0, r3
 934 0024 C0B2     		uxtb	r0, r0
 935 0026 2DE0     		b	.L56
 936              	.LVL114:
 937              	.L65:
 771:libscpi/src/parser.c ****         SCPI_ErrorPush(context, SCPI_ERROR_SYSTEM_ERROR);
 938              		.loc 1 771 9 is_stmt 1 view .LVU223
 939 0028 1749     		ldr	r1, .L68
 940              	.LVL115:
 771:libscpi/src/parser.c ****         SCPI_ErrorPush(context, SCPI_ERROR_SYSTEM_ERROR);
 941              		.loc 1 771 9 is_stmt 0 view .LVU224
 942 002a FFF7FEFF 		bl	SCPI_ErrorPush
 943              	.LVL116:
 772:libscpi/src/parser.c ****     }
 944              		.loc 1 772 9 is_stmt 1 view .LVU225
 772:libscpi/src/parser.c ****     }
 945              		.loc 1 772 16 is_stmt 0 view .LVU226
 946 002e 0020     		movs	r0, #0
 947 0030 28E0     		b	.L56
 948              	.LVL117:
 949              	.L66:
 775:libscpi/src/parser.c ****         case SCPI_TOKEN_HEXNUM:
 950              		.loc 1 775 5 view .LVU227
 951 0032 0020     		movs	r0, #0
 952 0034 26E0     		b	.L56
 953              	.L58:
 954 0036 0A38     		subs	r0, r0, #10
 955 0038 C0B2     		uxtb	r0, r0
 956 003a 0128     		cmp	r0, #1
 957 003c 21D8     		bhi	.L67
 780:libscpi/src/parser.c ****         case SCPI_TOKEN_BINNUM:
 781:libscpi/src/parser.c ****             return strBaseToUInt32(parameter->ptr, value, 2) > 0 ? TRUE : FALSE;
 782:libscpi/src/parser.c ****         case SCPI_TOKEN_DECIMAL_NUMERIC_PROGRAM_DATA:
 783:libscpi/src/parser.c ****         case SCPI_TOKEN_DECIMAL_NUMERIC_PROGRAM_DATA_WITH_SUFFIX:
ARM GAS  /tmp/ccJs7hvj.s 			page 34


 784:libscpi/src/parser.c ****             if (sign) {
 958              		.loc 1 784 13 is_stmt 1 view .LVU228
 959              		.loc 1 784 16 is_stmt 0 view .LVU229
 960 003e 002B     		cmp	r3, #0
 961 0040 17D0     		beq	.L62
 785:libscpi/src/parser.c ****                 return strBaseToInt32(parameter->ptr, (int32_t *) value, 10) > 0 ? TRUE : FALSE;
 962              		.loc 1 785 17 is_stmt 1 view .LVU230
 963              		.loc 1 785 48 is_stmt 0 view .LVU231
 964 0042 6068     		ldr	r0, [r4, #4]
 965              		.loc 1 785 24 view .LVU232
 966 0044 0A22     		movs	r2, #10
 967 0046 FFF7FEFF 		bl	strBaseToInt32
 968              	.LVL118:
 969              		.loc 1 785 89 view .LVU233
 970 004a 431E     		subs	r3, r0, #1
 971 004c 9841     		sbcs	r0, r0, r3
 972 004e C0B2     		uxtb	r0, r0
 973 0050 18E0     		b	.L56
 974              	.LVL119:
 975              	.L59:
 777:libscpi/src/parser.c ****         case SCPI_TOKEN_OCTNUM:
 976              		.loc 1 777 13 is_stmt 1 view .LVU234
 777:libscpi/src/parser.c ****         case SCPI_TOKEN_OCTNUM:
 977              		.loc 1 777 45 is_stmt 0 view .LVU235
 978 0052 6068     		ldr	r0, [r4, #4]
 777:libscpi/src/parser.c ****         case SCPI_TOKEN_OCTNUM:
 979              		.loc 1 777 20 view .LVU236
 980 0054 1022     		movs	r2, #16
 981 0056 FFF7FEFF 		bl	strBaseToUInt32
 982              	.LVL120:
 777:libscpi/src/parser.c ****         case SCPI_TOKEN_OCTNUM:
 983              		.loc 1 777 74 view .LVU237
 984 005a 431E     		subs	r3, r0, #1
 985 005c 9841     		sbcs	r0, r0, r3
 986 005e C0B2     		uxtb	r0, r0
 987 0060 10E0     		b	.L56
 988              	.LVL121:
 989              	.L57:
 781:libscpi/src/parser.c ****         case SCPI_TOKEN_DECIMAL_NUMERIC_PROGRAM_DATA:
 990              		.loc 1 781 13 is_stmt 1 view .LVU238
 781:libscpi/src/parser.c ****         case SCPI_TOKEN_DECIMAL_NUMERIC_PROGRAM_DATA:
 991              		.loc 1 781 45 is_stmt 0 view .LVU239
 992 0062 6068     		ldr	r0, [r4, #4]
 781:libscpi/src/parser.c ****         case SCPI_TOKEN_DECIMAL_NUMERIC_PROGRAM_DATA:
 993              		.loc 1 781 20 view .LVU240
 994 0064 0222     		movs	r2, #2
 995 0066 FFF7FEFF 		bl	strBaseToUInt32
 996              	.LVL122:
 781:libscpi/src/parser.c ****         case SCPI_TOKEN_DECIMAL_NUMERIC_PROGRAM_DATA:
 997              		.loc 1 781 73 view .LVU241
 998 006a 431E     		subs	r3, r0, #1
 999 006c 9841     		sbcs	r0, r0, r3
 1000 006e C0B2     		uxtb	r0, r0
 1001 0070 08E0     		b	.L56
 1002              	.LVL123:
 1003              	.L62:
 786:libscpi/src/parser.c ****             } else {
ARM GAS  /tmp/ccJs7hvj.s 			page 35


 787:libscpi/src/parser.c ****                 return strBaseToUInt32(parameter->ptr, value, 10) > 0 ? TRUE : FALSE;
 1004              		.loc 1 787 17 is_stmt 1 view .LVU242
 1005              		.loc 1 787 49 is_stmt 0 view .LVU243
 1006 0072 6068     		ldr	r0, [r4, #4]
 1007              		.loc 1 787 24 view .LVU244
 1008 0074 0A22     		movs	r2, #10
 1009 0076 FFF7FEFF 		bl	strBaseToUInt32
 1010              	.LVL124:
 1011              		.loc 1 787 78 view .LVU245
 1012 007a 431E     		subs	r3, r0, #1
 1013 007c 9841     		sbcs	r0, r0, r3
 1014 007e C0B2     		uxtb	r0, r0
 1015 0080 00E0     		b	.L56
 1016              	.LVL125:
 1017              	.L67:
 775:libscpi/src/parser.c ****         case SCPI_TOKEN_HEXNUM:
 1018              		.loc 1 775 5 view .LVU246
 1019 0082 0020     		movs	r0, #0
 1020              	.LVL126:
 1021              	.L56:
 788:libscpi/src/parser.c ****             }
 789:libscpi/src/parser.c ****         default:
 790:libscpi/src/parser.c ****             return FALSE;
 791:libscpi/src/parser.c ****     }
 792:libscpi/src/parser.c **** }
 1022              		.loc 1 792 1 view .LVU247
 1023              		@ sp needed
 1024              	.LVL127:
 1025              		.loc 1 792 1 view .LVU248
 1026 0084 10BD     		pop	{r4, pc}
 1027              	.L69:
 1028 0086 C046     		.align	2
 1029              	.L68:
 1030 0088 CAFEFFFF 		.word	-310
 1031              		.cfi_endproc
 1032              	.LFE29:
 1034              		.section	.text.ParamSignToUInt64,"ax",%progbits
 1035              		.align	1
 1036              		.syntax unified
 1037              		.code	16
 1038              		.thumb_func
 1039              		.fpu softvfp
 1041              	ParamSignToUInt64:
 1042              	.LVL128:
 1043              	.LFB30:
 793:libscpi/src/parser.c **** 
 794:libscpi/src/parser.c **** /**
 795:libscpi/src/parser.c ****  * Convert parameter to signed/unsigned 64 bit integer
 796:libscpi/src/parser.c ****  * @param context
 797:libscpi/src/parser.c ****  * @param parameter
 798:libscpi/src/parser.c ****  * @param value result
 799:libscpi/src/parser.c ****  * @param sign
 800:libscpi/src/parser.c ****  * @return TRUE if succesful
 801:libscpi/src/parser.c ****  */
 802:libscpi/src/parser.c **** static scpi_bool_t ParamSignToUInt64(scpi_t * context, scpi_parameter_t * parameter, uint64_t * val
 1044              		.loc 1 802 122 is_stmt 1 view -0
 1045              		.cfi_startproc
ARM GAS  /tmp/ccJs7hvj.s 			page 36


 1046              		@ args = 0, pretend = 0, frame = 0
 1047              		@ frame_needed = 0, uses_anonymous_args = 0
 1048              		.loc 1 802 122 is_stmt 0 view .LVU250
 1049 0000 10B5     		push	{r4, lr}
 1050              	.LCFI14:
 1051              		.cfi_def_cfa_offset 8
 1052              		.cfi_offset 4, -8
 1053              		.cfi_offset 14, -4
 1054 0002 0C00     		movs	r4, r1
 1055 0004 111E     		subs	r1, r2, #0
 1056              	.LVL129:
 803:libscpi/src/parser.c **** 
 804:libscpi/src/parser.c ****     if (!value) {
 1057              		.loc 1 804 5 is_stmt 1 view .LVU251
 1058              		.loc 1 804 8 is_stmt 0 view .LVU252
 1059 0006 0FD0     		beq	.L81
 805:libscpi/src/parser.c ****         SCPI_ErrorPush(context, SCPI_ERROR_SYSTEM_ERROR);
 806:libscpi/src/parser.c ****         return FALSE;
 807:libscpi/src/parser.c ****     }
 808:libscpi/src/parser.c **** 
 809:libscpi/src/parser.c ****     switch (parameter->type) {
 1060              		.loc 1 809 5 is_stmt 1 view .LVU253
 1061              		.loc 1 809 22 is_stmt 0 view .LVU254
 1062 0008 2078     		ldrb	r0, [r4]
 1063              	.LVL130:
 1064              		.loc 1 809 5 view .LVU255
 1065 000a 0828     		cmp	r0, #8
 1066 000c 29D0     		beq	.L73
 1067 000e 12D8     		bhi	.L74
 1068 0010 0628     		cmp	r0, #6
 1069 0012 1ED0     		beq	.L75
 1070 0014 0728     		cmp	r0, #7
 1071 0016 0CD1     		bne	.L82
 810:libscpi/src/parser.c ****         case SCPI_TOKEN_HEXNUM:
 811:libscpi/src/parser.c ****             return strBaseToUInt64(parameter->ptr, value, 16) > 0 ? TRUE : FALSE;
 812:libscpi/src/parser.c ****         case SCPI_TOKEN_OCTNUM:
 813:libscpi/src/parser.c ****             return strBaseToUInt64(parameter->ptr, value, 8) > 0 ? TRUE : FALSE;
 1072              		.loc 1 813 13 is_stmt 1 view .LVU256
 1073              		.loc 1 813 45 is_stmt 0 view .LVU257
 1074 0018 6068     		ldr	r0, [r4, #4]
 1075              		.loc 1 813 20 view .LVU258
 1076 001a 0822     		movs	r2, #8
 1077              	.LVL131:
 1078              		.loc 1 813 20 view .LVU259
 1079 001c FFF7FEFF 		bl	strBaseToUInt64
 1080              	.LVL132:
 1081              		.loc 1 813 73 view .LVU260
 1082 0020 431E     		subs	r3, r0, #1
 1083 0022 9841     		sbcs	r0, r0, r3
 1084 0024 C0B2     		uxtb	r0, r0
 1085 0026 2DE0     		b	.L72
 1086              	.LVL133:
 1087              	.L81:
 805:libscpi/src/parser.c ****         SCPI_ErrorPush(context, SCPI_ERROR_SYSTEM_ERROR);
 1088              		.loc 1 805 9 is_stmt 1 view .LVU261
 1089 0028 1749     		ldr	r1, .L84
 1090              	.LVL134:
ARM GAS  /tmp/ccJs7hvj.s 			page 37


 805:libscpi/src/parser.c ****         SCPI_ErrorPush(context, SCPI_ERROR_SYSTEM_ERROR);
 1091              		.loc 1 805 9 is_stmt 0 view .LVU262
 1092 002a FFF7FEFF 		bl	SCPI_ErrorPush
 1093              	.LVL135:
 806:libscpi/src/parser.c ****     }
 1094              		.loc 1 806 9 is_stmt 1 view .LVU263
 806:libscpi/src/parser.c ****     }
 1095              		.loc 1 806 16 is_stmt 0 view .LVU264
 1096 002e 0020     		movs	r0, #0
 1097 0030 28E0     		b	.L72
 1098              	.LVL136:
 1099              	.L82:
 809:libscpi/src/parser.c ****         case SCPI_TOKEN_HEXNUM:
 1100              		.loc 1 809 5 view .LVU265
 1101 0032 0020     		movs	r0, #0
 1102 0034 26E0     		b	.L72
 1103              	.L74:
 1104 0036 0A38     		subs	r0, r0, #10
 1105 0038 C0B2     		uxtb	r0, r0
 1106 003a 0128     		cmp	r0, #1
 1107 003c 21D8     		bhi	.L83
 814:libscpi/src/parser.c ****         case SCPI_TOKEN_BINNUM:
 815:libscpi/src/parser.c ****             return strBaseToUInt64(parameter->ptr, value, 2) > 0 ? TRUE : FALSE;
 816:libscpi/src/parser.c ****         case SCPI_TOKEN_DECIMAL_NUMERIC_PROGRAM_DATA:
 817:libscpi/src/parser.c ****         case SCPI_TOKEN_DECIMAL_NUMERIC_PROGRAM_DATA_WITH_SUFFIX:
 818:libscpi/src/parser.c ****             if (sign) {
 1108              		.loc 1 818 13 is_stmt 1 view .LVU266
 1109              		.loc 1 818 16 is_stmt 0 view .LVU267
 1110 003e 002B     		cmp	r3, #0
 1111 0040 17D0     		beq	.L78
 819:libscpi/src/parser.c ****                 return strBaseToInt64(parameter->ptr, (int64_t *) value, 10) > 0 ? TRUE : FALSE;
 1112              		.loc 1 819 17 is_stmt 1 view .LVU268
 1113              		.loc 1 819 48 is_stmt 0 view .LVU269
 1114 0042 6068     		ldr	r0, [r4, #4]
 1115              		.loc 1 819 24 view .LVU270
 1116 0044 0A22     		movs	r2, #10
 1117 0046 FFF7FEFF 		bl	strBaseToInt64
 1118              	.LVL137:
 1119              		.loc 1 819 89 view .LVU271
 1120 004a 431E     		subs	r3, r0, #1
 1121 004c 9841     		sbcs	r0, r0, r3
 1122 004e C0B2     		uxtb	r0, r0
 1123 0050 18E0     		b	.L72
 1124              	.LVL138:
 1125              	.L75:
 811:libscpi/src/parser.c ****         case SCPI_TOKEN_OCTNUM:
 1126              		.loc 1 811 13 is_stmt 1 view .LVU272
 811:libscpi/src/parser.c ****         case SCPI_TOKEN_OCTNUM:
 1127              		.loc 1 811 45 is_stmt 0 view .LVU273
 1128 0052 6068     		ldr	r0, [r4, #4]
 811:libscpi/src/parser.c ****         case SCPI_TOKEN_OCTNUM:
 1129              		.loc 1 811 20 view .LVU274
 1130 0054 1022     		movs	r2, #16
 1131 0056 FFF7FEFF 		bl	strBaseToUInt64
 1132              	.LVL139:
 811:libscpi/src/parser.c ****         case SCPI_TOKEN_OCTNUM:
 1133              		.loc 1 811 74 view .LVU275
ARM GAS  /tmp/ccJs7hvj.s 			page 38


 1134 005a 431E     		subs	r3, r0, #1
 1135 005c 9841     		sbcs	r0, r0, r3
 1136 005e C0B2     		uxtb	r0, r0
 1137 0060 10E0     		b	.L72
 1138              	.LVL140:
 1139              	.L73:
 815:libscpi/src/parser.c ****         case SCPI_TOKEN_DECIMAL_NUMERIC_PROGRAM_DATA:
 1140              		.loc 1 815 13 is_stmt 1 view .LVU276
 815:libscpi/src/parser.c ****         case SCPI_TOKEN_DECIMAL_NUMERIC_PROGRAM_DATA:
 1141              		.loc 1 815 45 is_stmt 0 view .LVU277
 1142 0062 6068     		ldr	r0, [r4, #4]
 815:libscpi/src/parser.c ****         case SCPI_TOKEN_DECIMAL_NUMERIC_PROGRAM_DATA:
 1143              		.loc 1 815 20 view .LVU278
 1144 0064 0222     		movs	r2, #2
 1145 0066 FFF7FEFF 		bl	strBaseToUInt64
 1146              	.LVL141:
 815:libscpi/src/parser.c ****         case SCPI_TOKEN_DECIMAL_NUMERIC_PROGRAM_DATA:
 1147              		.loc 1 815 73 view .LVU279
 1148 006a 431E     		subs	r3, r0, #1
 1149 006c 9841     		sbcs	r0, r0, r3
 1150 006e C0B2     		uxtb	r0, r0
 1151 0070 08E0     		b	.L72
 1152              	.LVL142:
 1153              	.L78:
 820:libscpi/src/parser.c ****             } else {
 821:libscpi/src/parser.c ****                 return strBaseToUInt64(parameter->ptr, value, 10) > 0 ? TRUE : FALSE;
 1154              		.loc 1 821 17 is_stmt 1 view .LVU280
 1155              		.loc 1 821 49 is_stmt 0 view .LVU281
 1156 0072 6068     		ldr	r0, [r4, #4]
 1157              		.loc 1 821 24 view .LVU282
 1158 0074 0A22     		movs	r2, #10
 1159 0076 FFF7FEFF 		bl	strBaseToUInt64
 1160              	.LVL143:
 1161              		.loc 1 821 78 view .LVU283
 1162 007a 431E     		subs	r3, r0, #1
 1163 007c 9841     		sbcs	r0, r0, r3
 1164 007e C0B2     		uxtb	r0, r0
 1165 0080 00E0     		b	.L72
 1166              	.LVL144:
 1167              	.L83:
 809:libscpi/src/parser.c ****         case SCPI_TOKEN_HEXNUM:
 1168              		.loc 1 809 5 view .LVU284
 1169 0082 0020     		movs	r0, #0
 1170              	.LVL145:
 1171              	.L72:
 822:libscpi/src/parser.c ****             }
 823:libscpi/src/parser.c ****         default:
 824:libscpi/src/parser.c ****             return FALSE;
 825:libscpi/src/parser.c ****     }
 826:libscpi/src/parser.c **** }
 1172              		.loc 1 826 1 view .LVU285
 1173              		@ sp needed
 1174              	.LVL146:
 1175              		.loc 1 826 1 view .LVU286
 1176 0084 10BD     		pop	{r4, pc}
 1177              	.L85:
 1178 0086 C046     		.align	2
ARM GAS  /tmp/ccJs7hvj.s 			page 39


 1179              	.L84:
 1180 0088 CAFEFFFF 		.word	-310
 1181              		.cfi_endproc
 1182              	.LFE30:
 1184              		.section	.text.SCPI_Init,"ax",%progbits
 1185              		.align	1
 1186              		.global	SCPI_Init
 1187              		.syntax unified
 1188              		.code	16
 1189              		.thumb_func
 1190              		.fpu softvfp
 1192              	SCPI_Init:
 1193              	.LVL147:
 1194              	.LFB8:
 268:libscpi/src/parser.c ****     memset(context, 0, sizeof (*context));
 1195              		.loc 1 268 68 is_stmt 1 view -0
 1196              		.cfi_startproc
 1197              		@ args = 32, pretend = 0, frame = 0
 1198              		@ frame_needed = 0, uses_anonymous_args = 0
 268:libscpi/src/parser.c ****     memset(context, 0, sizeof (*context));
 1199              		.loc 1 268 68 is_stmt 0 view .LVU288
 1200 0000 F0B5     		push	{r4, r5, r6, r7, lr}
 1201              	.LCFI15:
 1202              		.cfi_def_cfa_offset 20
 1203              		.cfi_offset 4, -20
 1204              		.cfi_offset 5, -16
 1205              		.cfi_offset 6, -12
 1206              		.cfi_offset 7, -8
 1207              		.cfi_offset 14, -4
 1208 0002 C646     		mov	lr, r8
 1209 0004 00B5     		push	{lr}
 1210              	.LCFI16:
 1211              		.cfi_def_cfa_offset 24
 1212              		.cfi_offset 8, -24
 1213 0006 0400     		movs	r4, r0
 1214 0008 0F00     		movs	r7, r1
 1215 000a 1600     		movs	r6, r2
 1216 000c 1D00     		movs	r5, r3
 1217 000e 0DAB     		add	r3, sp, #52
 1218              	.LVL148:
 268:libscpi/src/parser.c ****     memset(context, 0, sizeof (*context));
 1219              		.loc 1 268 68 view .LVU289
 1220 0010 0022     		movs	r2, #0
 1221 0012 9B5E     		ldrsh	r3, [r3, r2]
 1222              	.LVL149:
 268:libscpi/src/parser.c ****     memset(context, 0, sizeof (*context));
 1223              		.loc 1 268 68 view .LVU290
 1224 0014 9846     		mov	r8, r3
 269:libscpi/src/parser.c ****     context->cmdlist = commands;
 1225              		.loc 1 269 5 is_stmt 1 view .LVU291
 1226 0016 1030     		adds	r0, r0, #16
 1227              	.LVL150:
 269:libscpi/src/parser.c ****     context->cmdlist = commands;
 1228              		.loc 1 269 5 is_stmt 0 view .LVU292
 1229 0018 8822     		movs	r2, #136
 1230 001a 0021     		movs	r1, #0
 1231              	.LVL151:
ARM GAS  /tmp/ccJs7hvj.s 			page 40


 269:libscpi/src/parser.c ****     context->cmdlist = commands;
 1232              		.loc 1 269 5 view .LVU293
 1233 001c FFF7FEFF 		bl	memset
 1234              	.LVL152:
 270:libscpi/src/parser.c ****     context->interface = interface;
 1235              		.loc 1 270 5 is_stmt 1 view .LVU294
 270:libscpi/src/parser.c ****     context->interface = interface;
 1236              		.loc 1 270 22 is_stmt 0 view .LVU295
 1237 0020 2760     		str	r7, [r4]
 271:libscpi/src/parser.c ****     context->units = units;
 1238              		.loc 1 271 5 is_stmt 1 view .LVU296
 271:libscpi/src/parser.c ****     context->units = units;
 1239              		.loc 1 271 24 is_stmt 0 view .LVU297
 1240 0022 E662     		str	r6, [r4, #44]
 272:libscpi/src/parser.c ****     context->idn[0] = idn1;
 1241              		.loc 1 272 5 is_stmt 1 view .LVU298
 272:libscpi/src/parser.c ****     context->idn[0] = idn1;
 1242              		.loc 1 272 20 is_stmt 0 view .LVU299
 1243 0024 E565     		str	r5, [r4, #92]
 273:libscpi/src/parser.c ****     context->idn[1] = idn2;
 1244              		.loc 1 273 5 is_stmt 1 view .LVU300
 273:libscpi/src/parser.c ****     context->idn[1] = idn2;
 1245              		.loc 1 273 21 is_stmt 0 view .LVU301
 1246 0026 8423     		movs	r3, #132
 1247 0028 069A     		ldr	r2, [sp, #24]
 1248 002a E250     		str	r2, [r4, r3]
 274:libscpi/src/parser.c ****     context->idn[2] = idn3;
 1249              		.loc 1 274 5 is_stmt 1 view .LVU302
 274:libscpi/src/parser.c ****     context->idn[2] = idn3;
 1250              		.loc 1 274 21 is_stmt 0 view .LVU303
 1251 002c 0433     		adds	r3, r3, #4
 1252 002e 079A     		ldr	r2, [sp, #28]
 1253 0030 E250     		str	r2, [r4, r3]
 275:libscpi/src/parser.c ****     context->idn[3] = idn4;
 1254              		.loc 1 275 5 is_stmt 1 view .LVU304
 275:libscpi/src/parser.c ****     context->idn[3] = idn4;
 1255              		.loc 1 275 21 is_stmt 0 view .LVU305
 1256 0032 0433     		adds	r3, r3, #4
 1257 0034 089A     		ldr	r2, [sp, #32]
 1258 0036 E250     		str	r2, [r4, r3]
 276:libscpi/src/parser.c ****     context->buffer.data = input_buffer;
 1259              		.loc 1 276 5 is_stmt 1 view .LVU306
 276:libscpi/src/parser.c ****     context->buffer.data = input_buffer;
 1260              		.loc 1 276 21 is_stmt 0 view .LVU307
 1261 0038 0433     		adds	r3, r3, #4
 1262 003a 099A     		ldr	r2, [sp, #36]
 1263 003c E250     		str	r2, [r4, r3]
 277:libscpi/src/parser.c ****     context->buffer.length = input_buffer_length;
 1264              		.loc 1 277 5 is_stmt 1 view .LVU308
 277:libscpi/src/parser.c ****     context->buffer.length = input_buffer_length;
 1265              		.loc 1 277 26 is_stmt 0 view .LVU309
 1266 003e 0A9B     		ldr	r3, [sp, #40]
 1267 0040 E360     		str	r3, [r4, #12]
 278:libscpi/src/parser.c ****     context->buffer.position = 0;
 1268              		.loc 1 278 5 is_stmt 1 view .LVU310
 278:libscpi/src/parser.c ****     context->buffer.position = 0;
 1269              		.loc 1 278 28 is_stmt 0 view .LVU311
ARM GAS  /tmp/ccJs7hvj.s 			page 41


 1270 0042 0B9B     		ldr	r3, [sp, #44]
 1271 0044 6360     		str	r3, [r4, #4]
 279:libscpi/src/parser.c ****     SCPI_ErrorInit(context, error_queue_data, error_queue_size);
 1272              		.loc 1 279 5 is_stmt 1 view .LVU312
 279:libscpi/src/parser.c ****     SCPI_ErrorInit(context, error_queue_data, error_queue_size);
 1273              		.loc 1 279 30 is_stmt 0 view .LVU313
 1274 0046 0023     		movs	r3, #0
 1275 0048 A360     		str	r3, [r4, #8]
 280:libscpi/src/parser.c **** }
 1276              		.loc 1 280 5 is_stmt 1 view .LVU314
 1277 004a 4246     		mov	r2, r8
 1278 004c 0C99     		ldr	r1, [sp, #48]
 1279 004e 2000     		movs	r0, r4
 1280 0050 FFF7FEFF 		bl	SCPI_ErrorInit
 1281              	.LVL153:
 281:libscpi/src/parser.c **** 
 1282              		.loc 1 281 1 is_stmt 0 view .LVU315
 1283              		@ sp needed
 1284              	.LVL154:
 1285              	.LVL155:
 1286              	.LVL156:
 1287              	.LVL157:
 281:libscpi/src/parser.c **** 
 1288              		.loc 1 281 1 view .LVU316
 1289 0054 04BC     		pop	{r2}
 1290 0056 9046     		mov	r8, r2
 1291 0058 F0BD     		pop	{r4, r5, r6, r7, pc}
 1292              		.cfi_endproc
 1293              	.LFE8:
 1295              		.section	.text.SCPI_ResultCharacters,"ax",%progbits
 1296              		.align	1
 1297              		.global	SCPI_ResultCharacters
 1298              		.syntax unified
 1299              		.code	16
 1300              		.thumb_func
 1301              		.fpu softvfp
 1303              	SCPI_ResultCharacters:
 1304              	.LVL158:
 1305              	.LFB10:
 361:libscpi/src/parser.c ****     size_t result = 0;
 1306              		.loc 1 361 79 is_stmt 1 view -0
 1307              		.cfi_startproc
 1308              		@ args = 0, pretend = 0, frame = 0
 1309              		@ frame_needed = 0, uses_anonymous_args = 0
 361:libscpi/src/parser.c ****     size_t result = 0;
 1310              		.loc 1 361 79 is_stmt 0 view .LVU318
 1311 0000 F8B5     		push	{r3, r4, r5, r6, r7, lr}
 1312              	.LCFI17:
 1313              		.cfi_def_cfa_offset 24
 1314              		.cfi_offset 3, -24
 1315              		.cfi_offset 4, -20
 1316              		.cfi_offset 5, -16
 1317              		.cfi_offset 6, -12
 1318              		.cfi_offset 7, -8
 1319              		.cfi_offset 14, -4
 1320 0002 0400     		movs	r4, r0
 1321 0004 0E00     		movs	r6, r1
ARM GAS  /tmp/ccJs7hvj.s 			page 42


 1322 0006 1700     		movs	r7, r2
 362:libscpi/src/parser.c ****     result += writeDelimiter(context);
 1323              		.loc 1 362 5 is_stmt 1 view .LVU319
 1324              	.LVL159:
 363:libscpi/src/parser.c ****     result += writeData(context, data, len);
 1325              		.loc 1 363 5 view .LVU320
 363:libscpi/src/parser.c ****     result += writeData(context, data, len);
 1326              		.loc 1 363 15 is_stmt 0 view .LVU321
 1327 0008 FFF7FEFF 		bl	writeDelimiter
 1328              	.LVL160:
 363:libscpi/src/parser.c ****     result += writeData(context, data, len);
 1329              		.loc 1 363 15 view .LVU322
 1330 000c 0500     		movs	r5, r0
 1331              	.LVL161:
 364:libscpi/src/parser.c ****     context->output_count++;
 1332              		.loc 1 364 5 is_stmt 1 view .LVU323
 364:libscpi/src/parser.c ****     context->output_count++;
 1333              		.loc 1 364 15 is_stmt 0 view .LVU324
 1334 000e 3A00     		movs	r2, r7
 1335 0010 3100     		movs	r1, r6
 1336 0012 2000     		movs	r0, r4
 1337              	.LVL162:
 364:libscpi/src/parser.c ****     context->output_count++;
 1338              		.loc 1 364 15 view .LVU325
 1339 0014 FFF7FEFF 		bl	writeData
 1340              	.LVL163:
 364:libscpi/src/parser.c ****     context->output_count++;
 1341              		.loc 1 364 12 view .LVU326
 1342 0018 2818     		adds	r0, r5, r0
 1343              	.LVL164:
 365:libscpi/src/parser.c ****     return result;
 1344              		.loc 1 365 5 is_stmt 1 view .LVU327
 365:libscpi/src/parser.c ****     return result;
 1345              		.loc 1 365 26 is_stmt 0 view .LVU328
 1346 001a 236B     		ldr	r3, [r4, #48]
 1347 001c 0133     		adds	r3, r3, #1
 1348 001e 2363     		str	r3, [r4, #48]
 366:libscpi/src/parser.c **** }
 1349              		.loc 1 366 5 is_stmt 1 view .LVU329
 367:libscpi/src/parser.c **** 
 1350              		.loc 1 367 1 is_stmt 0 view .LVU330
 1351              		@ sp needed
 1352              	.LVL165:
 1353              	.LVL166:
 1354              	.LVL167:
 367:libscpi/src/parser.c **** 
 1355              		.loc 1 367 1 view .LVU331
 1356 0020 F8BD     		pop	{r3, r4, r5, r6, r7, pc}
 1357              		.cfi_endproc
 1358              	.LFE10:
 1360              		.section	.text.SCPI_ResultInt32,"ax",%progbits
 1361              		.align	1
 1362              		.global	SCPI_ResultInt32
 1363              		.syntax unified
 1364              		.code	16
 1365              		.thumb_func
 1366              		.fpu softvfp
ARM GAS  /tmp/ccJs7hvj.s 			page 43


 1368              	SCPI_ResultInt32:
 1369              	.LVL168:
 1370              	.LFB14:
 441:libscpi/src/parser.c ****     return resultUInt32BaseSign(context, val, 10, TRUE);
 1371              		.loc 1 441 56 is_stmt 1 view -0
 1372              		.cfi_startproc
 1373              		@ args = 0, pretend = 0, frame = 0
 1374              		@ frame_needed = 0, uses_anonymous_args = 0
 441:libscpi/src/parser.c ****     return resultUInt32BaseSign(context, val, 10, TRUE);
 1375              		.loc 1 441 56 is_stmt 0 view .LVU333
 1376 0000 10B5     		push	{r4, lr}
 1377              	.LCFI18:
 1378              		.cfi_def_cfa_offset 8
 1379              		.cfi_offset 4, -8
 1380              		.cfi_offset 14, -4
 442:libscpi/src/parser.c **** }
 1381              		.loc 1 442 5 is_stmt 1 view .LVU334
 442:libscpi/src/parser.c **** }
 1382              		.loc 1 442 12 is_stmt 0 view .LVU335
 1383 0002 0123     		movs	r3, #1
 1384 0004 0A22     		movs	r2, #10
 1385 0006 FFF7FEFF 		bl	resultUInt32BaseSign
 1386              	.LVL169:
 443:libscpi/src/parser.c **** 
 1387              		.loc 1 443 1 view .LVU336
 1388              		@ sp needed
 1389 000a 10BD     		pop	{r4, pc}
 1390              		.cfi_endproc
 1391              	.LFE14:
 1393              		.section	.text.SCPI_ResultUInt32Base,"ax",%progbits
 1394              		.align	1
 1395              		.global	SCPI_ResultUInt32Base
 1396              		.syntax unified
 1397              		.code	16
 1398              		.thumb_func
 1399              		.fpu softvfp
 1401              	SCPI_ResultUInt32Base:
 1402              	.LVL170:
 1403              	.LFB15:
 452:libscpi/src/parser.c ****     return resultUInt32BaseSign(context, val, base, FALSE);
 1404              		.loc 1 452 75 is_stmt 1 view -0
 1405              		.cfi_startproc
 1406              		@ args = 0, pretend = 0, frame = 0
 1407              		@ frame_needed = 0, uses_anonymous_args = 0
 452:libscpi/src/parser.c ****     return resultUInt32BaseSign(context, val, base, FALSE);
 1408              		.loc 1 452 75 is_stmt 0 view .LVU338
 1409 0000 10B5     		push	{r4, lr}
 1410              	.LCFI19:
 1411              		.cfi_def_cfa_offset 8
 1412              		.cfi_offset 4, -8
 1413              		.cfi_offset 14, -4
 453:libscpi/src/parser.c **** }
 1414              		.loc 1 453 5 is_stmt 1 view .LVU339
 453:libscpi/src/parser.c **** }
 1415              		.loc 1 453 12 is_stmt 0 view .LVU340
 1416 0002 0023     		movs	r3, #0
 1417 0004 FFF7FEFF 		bl	resultUInt32BaseSign
ARM GAS  /tmp/ccJs7hvj.s 			page 44


 1418              	.LVL171:
 454:libscpi/src/parser.c **** 
 1419              		.loc 1 454 1 view .LVU341
 1420              		@ sp needed
 1421 0008 10BD     		pop	{r4, pc}
 1422              		.cfi_endproc
 1423              	.LFE15:
 1425              		.section	.text.SCPI_ResultInt64,"ax",%progbits
 1426              		.align	1
 1427              		.global	SCPI_ResultInt64
 1428              		.syntax unified
 1429              		.code	16
 1430              		.thumb_func
 1431              		.fpu softvfp
 1433              	SCPI_ResultInt64:
 1434              	.LVL172:
 1435              	.LFB16:
 462:libscpi/src/parser.c ****     return resultUInt64BaseSign(context, val, 10, TRUE);
 1436              		.loc 1 462 56 is_stmt 1 view -0
 1437              		.cfi_startproc
 1438              		@ args = 0, pretend = 0, frame = 0
 1439              		@ frame_needed = 0, uses_anonymous_args = 0
 462:libscpi/src/parser.c ****     return resultUInt64BaseSign(context, val, 10, TRUE);
 1440              		.loc 1 462 56 is_stmt 0 view .LVU343
 1441 0000 00B5     		push	{lr}
 1442              	.LCFI20:
 1443              		.cfi_def_cfa_offset 4
 1444              		.cfi_offset 14, -4
 1445 0002 83B0     		sub	sp, sp, #12
 1446              	.LCFI21:
 1447              		.cfi_def_cfa_offset 16
 463:libscpi/src/parser.c **** }
 1448              		.loc 1 463 5 is_stmt 1 view .LVU344
 463:libscpi/src/parser.c **** }
 1449              		.loc 1 463 12 is_stmt 0 view .LVU345
 1450 0004 0121     		movs	r1, #1
 1451 0006 0191     		str	r1, [sp, #4]
 1452 0008 0931     		adds	r1, r1, #9
 1453 000a 0091     		str	r1, [sp]
 1454 000c FFF7FEFF 		bl	resultUInt64BaseSign
 1455              	.LVL173:
 464:libscpi/src/parser.c **** 
 1456              		.loc 1 464 1 view .LVU346
 1457 0010 03B0     		add	sp, sp, #12
 1458              		@ sp needed
 1459 0012 00BD     		pop	{pc}
 1460              		.cfi_endproc
 1461              	.LFE16:
 1463              		.section	.text.SCPI_ResultUInt64Base,"ax",%progbits
 1464              		.align	1
 1465              		.global	SCPI_ResultUInt64Base
 1466              		.syntax unified
 1467              		.code	16
 1468              		.thumb_func
 1469              		.fpu softvfp
 1471              	SCPI_ResultUInt64Base:
 1472              	.LVL174:
ARM GAS  /tmp/ccJs7hvj.s 			page 45


 1473              	.LFB17:
 472:libscpi/src/parser.c ****     return resultUInt64BaseSign(context, val, base, FALSE);
 1474              		.loc 1 472 75 is_stmt 1 view -0
 1475              		.cfi_startproc
 1476              		@ args = 4, pretend = 0, frame = 0
 1477              		@ frame_needed = 0, uses_anonymous_args = 0
 472:libscpi/src/parser.c ****     return resultUInt64BaseSign(context, val, base, FALSE);
 1478              		.loc 1 472 75 is_stmt 0 view .LVU348
 1479 0000 10B5     		push	{r4, lr}
 1480              	.LCFI22:
 1481              		.cfi_def_cfa_offset 8
 1482              		.cfi_offset 4, -8
 1483              		.cfi_offset 14, -4
 1484 0002 82B0     		sub	sp, sp, #8
 1485              	.LCFI23:
 1486              		.cfi_def_cfa_offset 16
 1487 0004 04A9     		add	r1, sp, #16
 1488              	.LVL175:
 472:libscpi/src/parser.c ****     return resultUInt64BaseSign(context, val, base, FALSE);
 1489              		.loc 1 472 75 view .LVU349
 1490 0006 0978     		ldrb	r1, [r1]
 1491              	.LVL176:
 472:libscpi/src/parser.c ****     return resultUInt64BaseSign(context, val, base, FALSE);
 1492              		.loc 1 472 75 view .LVU350
 1493 0008 49B2     		sxtb	r1, r1
 473:libscpi/src/parser.c **** }
 1494              		.loc 1 473 5 is_stmt 1 view .LVU351
 473:libscpi/src/parser.c **** }
 1495              		.loc 1 473 12 is_stmt 0 view .LVU352
 1496 000a 0024     		movs	r4, #0
 1497 000c 0194     		str	r4, [sp, #4]
 1498 000e 0091     		str	r1, [sp]
 1499 0010 FFF7FEFF 		bl	resultUInt64BaseSign
 1500              	.LVL177:
 474:libscpi/src/parser.c **** 
 1501              		.loc 1 474 1 view .LVU353
 1502 0014 02B0     		add	sp, sp, #8
 1503              		@ sp needed
 1504 0016 10BD     		pop	{r4, pc}
 1505              		.cfi_endproc
 1506              	.LFE17:
 1508              		.section	.text.SCPI_ResultFloat,"ax",%progbits
 1509              		.align	1
 1510              		.global	SCPI_ResultFloat
 1511              		.syntax unified
 1512              		.code	16
 1513              		.thumb_func
 1514              		.fpu softvfp
 1516              	SCPI_ResultFloat:
 1517              	.LVL178:
 1518              	.LFB18:
 482:libscpi/src/parser.c ****     char buffer[32];
 1519              		.loc 1 482 54 is_stmt 1 view -0
 1520              		.cfi_startproc
 1521              		@ args = 0, pretend = 0, frame = 32
 1522              		@ frame_needed = 0, uses_anonymous_args = 0
 482:libscpi/src/parser.c ****     char buffer[32];
ARM GAS  /tmp/ccJs7hvj.s 			page 46


 1523              		.loc 1 482 54 is_stmt 0 view .LVU355
 1524 0000 70B5     		push	{r4, r5, r6, lr}
 1525              	.LCFI24:
 1526              		.cfi_def_cfa_offset 16
 1527              		.cfi_offset 4, -16
 1528              		.cfi_offset 5, -12
 1529              		.cfi_offset 6, -8
 1530              		.cfi_offset 14, -4
 1531 0002 88B0     		sub	sp, sp, #32
 1532              	.LCFI25:
 1533              		.cfi_def_cfa_offset 48
 1534 0004 0400     		movs	r4, r0
 1535 0006 081C     		adds	r0, r1, #0
 1536              	.LVL179:
 483:libscpi/src/parser.c ****     size_t result = 0;
 1537              		.loc 1 483 5 is_stmt 1 view .LVU356
 484:libscpi/src/parser.c ****     size_t len = SCPI_FloatToStr(val, buffer, sizeof (buffer));
 1538              		.loc 1 484 5 view .LVU357
 485:libscpi/src/parser.c ****     result += writeDelimiter(context);
 1539              		.loc 1 485 5 view .LVU358
 485:libscpi/src/parser.c ****     result += writeDelimiter(context);
 1540              		.loc 1 485 18 is_stmt 0 view .LVU359
 1541 0008 2022     		movs	r2, #32
 1542 000a 6946     		mov	r1, sp
 1543              	.LVL180:
 485:libscpi/src/parser.c ****     result += writeDelimiter(context);
 1544              		.loc 1 485 18 view .LVU360
 1545 000c FFF7FEFF 		bl	SCPI_FloatToStr
 1546              	.LVL181:
 485:libscpi/src/parser.c ****     result += writeDelimiter(context);
 1547              		.loc 1 485 18 view .LVU361
 1548 0010 0600     		movs	r6, r0
 1549              	.LVL182:
 486:libscpi/src/parser.c ****     result += writeData(context, buffer, len);
 1550              		.loc 1 486 5 is_stmt 1 view .LVU362
 486:libscpi/src/parser.c ****     result += writeData(context, buffer, len);
 1551              		.loc 1 486 15 is_stmt 0 view .LVU363
 1552 0012 2000     		movs	r0, r4
 1553              	.LVL183:
 486:libscpi/src/parser.c ****     result += writeData(context, buffer, len);
 1554              		.loc 1 486 15 view .LVU364
 1555 0014 FFF7FEFF 		bl	writeDelimiter
 1556              	.LVL184:
 1557 0018 0500     		movs	r5, r0
 1558              	.LVL185:
 487:libscpi/src/parser.c ****     context->output_count++;
 1559              		.loc 1 487 5 is_stmt 1 view .LVU365
 487:libscpi/src/parser.c ****     context->output_count++;
 1560              		.loc 1 487 15 is_stmt 0 view .LVU366
 1561 001a 3200     		movs	r2, r6
 1562 001c 6946     		mov	r1, sp
 1563 001e 2000     		movs	r0, r4
 1564              	.LVL186:
 487:libscpi/src/parser.c ****     context->output_count++;
 1565              		.loc 1 487 15 view .LVU367
 1566 0020 FFF7FEFF 		bl	writeData
 1567              	.LVL187:
ARM GAS  /tmp/ccJs7hvj.s 			page 47


 487:libscpi/src/parser.c ****     context->output_count++;
 1568              		.loc 1 487 12 view .LVU368
 1569 0024 2818     		adds	r0, r5, r0
 1570              	.LVL188:
 488:libscpi/src/parser.c ****     return result;
 1571              		.loc 1 488 5 is_stmt 1 view .LVU369
 488:libscpi/src/parser.c ****     return result;
 1572              		.loc 1 488 26 is_stmt 0 view .LVU370
 1573 0026 236B     		ldr	r3, [r4, #48]
 1574 0028 0133     		adds	r3, r3, #1
 1575 002a 2363     		str	r3, [r4, #48]
 489:libscpi/src/parser.c **** }
 1576              		.loc 1 489 5 is_stmt 1 view .LVU371
 490:libscpi/src/parser.c **** 
 1577              		.loc 1 490 1 is_stmt 0 view .LVU372
 1578 002c 08B0     		add	sp, sp, #32
 1579              		@ sp needed
 1580              	.LVL189:
 1581              	.LVL190:
 490:libscpi/src/parser.c **** 
 1582              		.loc 1 490 1 view .LVU373
 1583 002e 70BD     		pop	{r4, r5, r6, pc}
 1584              		.cfi_endproc
 1585              	.LFE18:
 1587              		.section	.text.SCPI_ResultDouble,"ax",%progbits
 1588              		.align	1
 1589              		.global	SCPI_ResultDouble
 1590              		.syntax unified
 1591              		.code	16
 1592              		.thumb_func
 1593              		.fpu softvfp
 1595              	SCPI_ResultDouble:
 1596              	.LVL191:
 1597              	.LFB19:
 498:libscpi/src/parser.c ****     char buffer[32];
 1598              		.loc 1 498 56 is_stmt 1 view -0
 1599              		.cfi_startproc
 1600              		@ args = 0, pretend = 0, frame = 32
 1601              		@ frame_needed = 0, uses_anonymous_args = 0
 498:libscpi/src/parser.c ****     char buffer[32];
 1602              		.loc 1 498 56 is_stmt 0 view .LVU375
 1603 0000 70B5     		push	{r4, r5, r6, lr}
 1604              	.LCFI26:
 1605              		.cfi_def_cfa_offset 16
 1606              		.cfi_offset 4, -16
 1607              		.cfi_offset 5, -12
 1608              		.cfi_offset 6, -8
 1609              		.cfi_offset 14, -4
 1610 0002 88B0     		sub	sp, sp, #32
 1611              	.LCFI27:
 1612              		.cfi_def_cfa_offset 48
 1613 0004 0400     		movs	r4, r0
 1614 0006 1000     		movs	r0, r2
 1615              	.LVL192:
 498:libscpi/src/parser.c ****     char buffer[32];
 1616              		.loc 1 498 56 view .LVU376
 1617 0008 1900     		movs	r1, r3
ARM GAS  /tmp/ccJs7hvj.s 			page 48


 499:libscpi/src/parser.c ****     size_t result = 0;
 1618              		.loc 1 499 5 is_stmt 1 view .LVU377
 500:libscpi/src/parser.c ****     size_t len = SCPI_DoubleToStr(val, buffer, sizeof (buffer));
 1619              		.loc 1 500 5 view .LVU378
 1620              	.LVL193:
 501:libscpi/src/parser.c ****     result += writeDelimiter(context);
 1621              		.loc 1 501 5 view .LVU379
 501:libscpi/src/parser.c ****     result += writeDelimiter(context);
 1622              		.loc 1 501 18 is_stmt 0 view .LVU380
 1623 000a 2023     		movs	r3, #32
 1624 000c 6A46     		mov	r2, sp
 1625              	.LVL194:
 501:libscpi/src/parser.c ****     result += writeDelimiter(context);
 1626              		.loc 1 501 18 view .LVU381
 1627 000e FFF7FEFF 		bl	SCPI_DoubleToStr
 1628              	.LVL195:
 1629 0012 0600     		movs	r6, r0
 1630              	.LVL196:
 502:libscpi/src/parser.c ****     result += writeData(context, buffer, len);
 1631              		.loc 1 502 5 is_stmt 1 view .LVU382
 502:libscpi/src/parser.c ****     result += writeData(context, buffer, len);
 1632              		.loc 1 502 15 is_stmt 0 view .LVU383
 1633 0014 2000     		movs	r0, r4
 1634              	.LVL197:
 502:libscpi/src/parser.c ****     result += writeData(context, buffer, len);
 1635              		.loc 1 502 15 view .LVU384
 1636 0016 FFF7FEFF 		bl	writeDelimiter
 1637              	.LVL198:
 1638 001a 0500     		movs	r5, r0
 1639              	.LVL199:
 503:libscpi/src/parser.c ****     context->output_count++;
 1640              		.loc 1 503 5 is_stmt 1 view .LVU385
 503:libscpi/src/parser.c ****     context->output_count++;
 1641              		.loc 1 503 15 is_stmt 0 view .LVU386
 1642 001c 3200     		movs	r2, r6
 1643 001e 6946     		mov	r1, sp
 1644 0020 2000     		movs	r0, r4
 1645              	.LVL200:
 503:libscpi/src/parser.c ****     context->output_count++;
 1646              		.loc 1 503 15 view .LVU387
 1647 0022 FFF7FEFF 		bl	writeData
 1648              	.LVL201:
 503:libscpi/src/parser.c ****     context->output_count++;
 1649              		.loc 1 503 12 view .LVU388
 1650 0026 2818     		adds	r0, r5, r0
 1651              	.LVL202:
 504:libscpi/src/parser.c ****     return result;
 1652              		.loc 1 504 5 is_stmt 1 view .LVU389
 504:libscpi/src/parser.c ****     return result;
 1653              		.loc 1 504 26 is_stmt 0 view .LVU390
 1654 0028 236B     		ldr	r3, [r4, #48]
 1655 002a 0133     		adds	r3, r3, #1
 1656 002c 2363     		str	r3, [r4, #48]
 505:libscpi/src/parser.c **** }
 1657              		.loc 1 505 5 is_stmt 1 view .LVU391
 506:libscpi/src/parser.c **** 
 1658              		.loc 1 506 1 is_stmt 0 view .LVU392
ARM GAS  /tmp/ccJs7hvj.s 			page 49


 1659 002e 08B0     		add	sp, sp, #32
 1660              		@ sp needed
 1661              	.LVL203:
 1662              	.LVL204:
 506:libscpi/src/parser.c **** 
 1663              		.loc 1 506 1 view .LVU393
 1664 0030 70BD     		pop	{r4, r5, r6, pc}
 1665              		.cfi_endproc
 1666              	.LFE19:
 1668              		.section	.rodata.SCPI_ResultText.str1.4,"aMS",%progbits,1
 1669              		.align	2
 1670              	.LC12:
 1671 0000 2200     		.ascii	"\"\000"
 1672              		.section	.text.SCPI_ResultText,"ax",%progbits
 1673              		.align	1
 1674              		.global	SCPI_ResultText
 1675              		.syntax unified
 1676              		.code	16
 1677              		.thumb_func
 1678              		.fpu softvfp
 1680              	SCPI_ResultText:
 1681              	.LVL205:
 1682              	.LFB20:
 514:libscpi/src/parser.c ****     size_t result = 0;
 1683              		.loc 1 514 61 is_stmt 1 view -0
 1684              		.cfi_startproc
 1685              		@ args = 0, pretend = 0, frame = 0
 1686              		@ frame_needed = 0, uses_anonymous_args = 0
 514:libscpi/src/parser.c ****     size_t result = 0;
 1687              		.loc 1 514 61 is_stmt 0 view .LVU395
 1688 0000 F8B5     		push	{r3, r4, r5, r6, r7, lr}
 1689              	.LCFI28:
 1690              		.cfi_def_cfa_offset 24
 1691              		.cfi_offset 3, -24
 1692              		.cfi_offset 4, -20
 1693              		.cfi_offset 5, -16
 1694              		.cfi_offset 6, -12
 1695              		.cfi_offset 7, -8
 1696              		.cfi_offset 14, -4
 1697 0002 CE46     		mov	lr, r9
 1698 0004 4746     		mov	r7, r8
 1699 0006 80B5     		push	{r7, lr}
 1700              	.LCFI29:
 1701              		.cfi_def_cfa_offset 32
 1702              		.cfi_offset 8, -32
 1703              		.cfi_offset 9, -28
 1704 0008 8046     		mov	r8, r0
 1705 000a 0F00     		movs	r7, r1
 515:libscpi/src/parser.c ****     size_t len = strlen(data);
 1706              		.loc 1 515 5 is_stmt 1 view .LVU396
 1707              	.LVL206:
 516:libscpi/src/parser.c ****     const char * quote;
 1708              		.loc 1 516 5 view .LVU397
 516:libscpi/src/parser.c ****     const char * quote;
 1709              		.loc 1 516 18 is_stmt 0 view .LVU398
 1710 000c 0800     		movs	r0, r1
 1711              	.LVL207:
ARM GAS  /tmp/ccJs7hvj.s 			page 50


 516:libscpi/src/parser.c ****     const char * quote;
 1712              		.loc 1 516 18 view .LVU399
 1713 000e FFF7FEFF 		bl	strlen
 1714              	.LVL208:
 516:libscpi/src/parser.c ****     const char * quote;
 1715              		.loc 1 516 18 view .LVU400
 1716 0012 8146     		mov	r9, r0
 1717              	.LVL209:
 517:libscpi/src/parser.c ****     result += writeDelimiter(context);
 1718              		.loc 1 517 5 is_stmt 1 view .LVU401
 518:libscpi/src/parser.c ****     result += writeData(context, "\"", 1);
 1719              		.loc 1 518 5 view .LVU402
 518:libscpi/src/parser.c ****     result += writeData(context, "\"", 1);
 1720              		.loc 1 518 15 is_stmt 0 view .LVU403
 1721 0014 4046     		mov	r0, r8
 1722              	.LVL210:
 518:libscpi/src/parser.c ****     result += writeData(context, "\"", 1);
 1723              		.loc 1 518 15 view .LVU404
 1724 0016 FFF7FEFF 		bl	writeDelimiter
 1725              	.LVL211:
 1726 001a 0500     		movs	r5, r0
 1727              	.LVL212:
 519:libscpi/src/parser.c ****     while ((quote = strnpbrk(data, len, "\""))) {
 1728              		.loc 1 519 5 is_stmt 1 view .LVU405
 519:libscpi/src/parser.c ****     while ((quote = strnpbrk(data, len, "\""))) {
 1729              		.loc 1 519 15 is_stmt 0 view .LVU406
 1730 001c 0122     		movs	r2, #1
 1731 001e 1A49     		ldr	r1, .L98
 1732 0020 4046     		mov	r0, r8
 1733              	.LVL213:
 519:libscpi/src/parser.c ****     while ((quote = strnpbrk(data, len, "\""))) {
 1734              		.loc 1 519 15 view .LVU407
 1735 0022 FFF7FEFF 		bl	writeData
 1736              	.LVL214:
 519:libscpi/src/parser.c ****     while ((quote = strnpbrk(data, len, "\""))) {
 1737              		.loc 1 519 12 view .LVU408
 1738 0026 2D18     		adds	r5, r5, r0
 1739              	.LVL215:
 520:libscpi/src/parser.c ****         result += writeData(context, data, quote - data + 1);
 1740              		.loc 1 520 5 is_stmt 1 view .LVU409
 1741              	.L95:
 520:libscpi/src/parser.c ****         result += writeData(context, data, quote - data + 1);
 1742              		.loc 1 520 11 view .LVU410
 520:libscpi/src/parser.c ****         result += writeData(context, data, quote - data + 1);
 1743              		.loc 1 520 21 is_stmt 0 view .LVU411
 1744 0028 174A     		ldr	r2, .L98
 1745 002a 4946     		mov	r1, r9
 1746 002c 3800     		movs	r0, r7
 1747 002e FFF7FEFF 		bl	strnpbrk
 1748              	.LVL216:
 1749 0032 041E     		subs	r4, r0, #0
 1750              	.LVL217:
 520:libscpi/src/parser.c ****         result += writeData(context, data, quote - data + 1);
 1751              		.loc 1 520 11 view .LVU412
 1752 0034 12D0     		beq	.L97
 521:libscpi/src/parser.c ****         result += writeData(context, "\"", 1);
 1753              		.loc 1 521 9 is_stmt 1 view .LVU413
ARM GAS  /tmp/ccJs7hvj.s 			page 51


 521:libscpi/src/parser.c ****         result += writeData(context, "\"", 1);
 1754              		.loc 1 521 50 is_stmt 0 view .LVU414
 1755 0036 E61B     		subs	r6, r4, r7
 521:libscpi/src/parser.c ****         result += writeData(context, "\"", 1);
 1756              		.loc 1 521 57 view .LVU415
 1757 0038 721C     		adds	r2, r6, #1
 521:libscpi/src/parser.c ****         result += writeData(context, "\"", 1);
 1758              		.loc 1 521 19 view .LVU416
 1759 003a 3900     		movs	r1, r7
 1760 003c 4046     		mov	r0, r8
 1761              	.LVL218:
 521:libscpi/src/parser.c ****         result += writeData(context, "\"", 1);
 1762              		.loc 1 521 19 view .LVU417
 1763 003e FFF7FEFF 		bl	writeData
 1764              	.LVL219:
 521:libscpi/src/parser.c ****         result += writeData(context, "\"", 1);
 1765              		.loc 1 521 16 view .LVU418
 1766 0042 2D18     		adds	r5, r5, r0
 1767              	.LVL220:
 522:libscpi/src/parser.c ****         len -= quote - data + 1;
 1768              		.loc 1 522 9 is_stmt 1 view .LVU419
 522:libscpi/src/parser.c ****         len -= quote - data + 1;
 1769              		.loc 1 522 19 is_stmt 0 view .LVU420
 1770 0044 0122     		movs	r2, #1
 1771 0046 1049     		ldr	r1, .L98
 1772 0048 4046     		mov	r0, r8
 1773 004a FFF7FEFF 		bl	writeData
 1774              	.LVL221:
 522:libscpi/src/parser.c ****         len -= quote - data + 1;
 1775              		.loc 1 522 16 view .LVU421
 1776 004e 2D18     		adds	r5, r5, r0
 1777              	.LVL222:
 523:libscpi/src/parser.c ****         data = quote + 1;
 1778              		.loc 1 523 9 is_stmt 1 view .LVU422
 523:libscpi/src/parser.c ****         data = quote + 1;
 1779              		.loc 1 523 13 is_stmt 0 view .LVU423
 1780 0050 4B46     		mov	r3, r9
 1781 0052 9E1B     		subs	r6, r3, r6
 1782 0054 731E     		subs	r3, r6, #1
 1783 0056 9946     		mov	r9, r3
 1784              	.LVL223:
 524:libscpi/src/parser.c ****     }
 1785              		.loc 1 524 9 is_stmt 1 view .LVU424
 524:libscpi/src/parser.c ****     }
 1786              		.loc 1 524 14 is_stmt 0 view .LVU425
 1787 0058 671C     		adds	r7, r4, #1
 1788              	.LVL224:
 524:libscpi/src/parser.c ****     }
 1789              		.loc 1 524 14 view .LVU426
 1790 005a E5E7     		b	.L95
 1791              	.LVL225:
 1792              	.L97:
 526:libscpi/src/parser.c ****     result += writeData(context, "\"", 1);
 1793              		.loc 1 526 5 is_stmt 1 view .LVU427
 526:libscpi/src/parser.c ****     result += writeData(context, "\"", 1);
 1794              		.loc 1 526 15 is_stmt 0 view .LVU428
 1795 005c 4A46     		mov	r2, r9
ARM GAS  /tmp/ccJs7hvj.s 			page 52


 1796 005e 3900     		movs	r1, r7
 1797 0060 4046     		mov	r0, r8
 1798              	.LVL226:
 526:libscpi/src/parser.c ****     result += writeData(context, "\"", 1);
 1799              		.loc 1 526 15 view .LVU429
 1800 0062 FFF7FEFF 		bl	writeData
 1801              	.LVL227:
 526:libscpi/src/parser.c ****     result += writeData(context, "\"", 1);
 1802              		.loc 1 526 12 view .LVU430
 1803 0066 2D18     		adds	r5, r5, r0
 1804              	.LVL228:
 527:libscpi/src/parser.c ****     context->output_count++;
 1805              		.loc 1 527 5 is_stmt 1 view .LVU431
 527:libscpi/src/parser.c ****     context->output_count++;
 1806              		.loc 1 527 15 is_stmt 0 view .LVU432
 1807 0068 0122     		movs	r2, #1
 1808 006a 0749     		ldr	r1, .L98
 1809 006c 4046     		mov	r0, r8
 1810 006e FFF7FEFF 		bl	writeData
 1811              	.LVL229:
 527:libscpi/src/parser.c ****     context->output_count++;
 1812              		.loc 1 527 12 view .LVU433
 1813 0072 2818     		adds	r0, r5, r0
 1814              	.LVL230:
 528:libscpi/src/parser.c ****     return result;
 1815              		.loc 1 528 5 is_stmt 1 view .LVU434
 528:libscpi/src/parser.c ****     return result;
 1816              		.loc 1 528 26 is_stmt 0 view .LVU435
 1817 0074 4346     		mov	r3, r8
 1818 0076 1B6B     		ldr	r3, [r3, #48]
 1819 0078 0133     		adds	r3, r3, #1
 1820 007a 4246     		mov	r2, r8
 1821 007c 1363     		str	r3, [r2, #48]
 529:libscpi/src/parser.c **** }
 1822              		.loc 1 529 5 is_stmt 1 view .LVU436
 530:libscpi/src/parser.c **** 
 1823              		.loc 1 530 1 is_stmt 0 view .LVU437
 1824              		@ sp needed
 1825              	.LVL231:
 1826              	.LVL232:
 1827              	.LVL233:
 1828              	.LVL234:
 530:libscpi/src/parser.c **** 
 1829              		.loc 1 530 1 view .LVU438
 1830 007e 0CBC     		pop	{r2, r3}
 1831 0080 9046     		mov	r8, r2
 1832 0082 9946     		mov	r9, r3
 1833 0084 F8BD     		pop	{r3, r4, r5, r6, r7, pc}
 1834              	.L99:
 1835 0086 C046     		.align	2
 1836              	.L98:
 1837 0088 00000000 		.word	.LC12
 1838              		.cfi_endproc
 1839              	.LFE20:
 1841              		.section	.text.SCPI_ResultError,"ax",%progbits
 1842              		.align	1
 1843              		.global	SCPI_ResultError
ARM GAS  /tmp/ccJs7hvj.s 			page 53


 1844              		.syntax unified
 1845              		.code	16
 1846              		.thumb_func
 1847              		.fpu softvfp
 1849              	SCPI_ResultError:
 1850              	.LVL235:
 1851              	.LFB21:
 543:libscpi/src/parser.c ****     size_t result = 0;
 1852              		.loc 1 543 65 is_stmt 1 view -0
 1853              		.cfi_startproc
 1854              		@ args = 0, pretend = 0, frame = 8
 1855              		@ frame_needed = 0, uses_anonymous_args = 0
 543:libscpi/src/parser.c ****     size_t result = 0;
 1856              		.loc 1 543 65 is_stmt 0 view .LVU440
 1857 0000 F0B5     		push	{r4, r5, r6, r7, lr}
 1858              	.LCFI30:
 1859              		.cfi_def_cfa_offset 20
 1860              		.cfi_offset 4, -20
 1861              		.cfi_offset 5, -16
 1862              		.cfi_offset 6, -12
 1863              		.cfi_offset 7, -8
 1864              		.cfi_offset 14, -4
 1865 0002 DE46     		mov	lr, fp
 1866 0004 5746     		mov	r7, r10
 1867 0006 4E46     		mov	r6, r9
 1868 0008 4546     		mov	r5, r8
 1869 000a E0B5     		push	{r5, r6, r7, lr}
 1870              	.LCFI31:
 1871              		.cfi_def_cfa_offset 36
 1872              		.cfi_offset 8, -36
 1873              		.cfi_offset 9, -32
 1874              		.cfi_offset 10, -28
 1875              		.cfi_offset 11, -24
 1876 000c 83B0     		sub	sp, sp, #12
 1877              	.LCFI32:
 1878              		.cfi_def_cfa_offset 48
 1879 000e 8046     		mov	r8, r0
 1880 0010 0C00     		movs	r4, r1
 544:libscpi/src/parser.c ****     size_t outputlimit = SCPI_STD_ERROR_DESC_MAX_STRING_LENGTH;
 1881              		.loc 1 544 5 is_stmt 1 view .LVU441
 1882              	.LVL236:
 545:libscpi/src/parser.c ****     size_t step = 0;
 1883              		.loc 1 545 5 view .LVU442
 546:libscpi/src/parser.c ****     const char * quote;
 1884              		.loc 1 546 5 view .LVU443
 547:libscpi/src/parser.c **** 
 1885              		.loc 1 547 5 view .LVU444
 549:libscpi/src/parser.c ****     size_t len[SCPIDEFINE_DESCRIPTION_MAX_PARTS];
 1886              		.loc 1 549 5 view .LVU445
 550:libscpi/src/parser.c ****     size_t i;
 1887              		.loc 1 550 5 view .LVU446
 551:libscpi/src/parser.c **** 
 1888              		.loc 1 551 5 view .LVU447
 553:libscpi/src/parser.c ****     len[0] = strlen(data[0]);
 1889              		.loc 1 553 5 view .LVU448
 553:libscpi/src/parser.c ****     len[0] = strlen(data[0]);
 1890              		.loc 1 553 15 is_stmt 0 view .LVU449
ARM GAS  /tmp/ccJs7hvj.s 			page 54


 1891 0012 0023     		movs	r3, #0
 1892 0014 C85E     		ldrsh	r0, [r1, r3]
 1893              	.LVL237:
 553:libscpi/src/parser.c ****     len[0] = strlen(data[0]);
 1894              		.loc 1 553 15 view .LVU450
 1895 0016 FFF7FEFF 		bl	SCPI_ErrorTranslate
 1896              	.LVL238:
 553:libscpi/src/parser.c ****     len[0] = strlen(data[0]);
 1897              		.loc 1 553 13 view .LVU451
 1898 001a 0190     		str	r0, [sp, #4]
 554:libscpi/src/parser.c **** 
 1899              		.loc 1 554 5 is_stmt 1 view .LVU452
 554:libscpi/src/parser.c **** 
 1900              		.loc 1 554 14 is_stmt 0 view .LVU453
 1901 001c FFF7FEFF 		bl	strlen
 1902              	.LVL239:
 554:libscpi/src/parser.c **** 
 1903              		.loc 1 554 12 view .LVU454
 1904 0020 0090     		str	r0, [sp]
 565:libscpi/src/parser.c ****     result += writeDelimiter(context);
 1905              		.loc 1 565 5 is_stmt 1 view .LVU455
 565:libscpi/src/parser.c ****     result += writeDelimiter(context);
 1906              		.loc 1 565 46 is_stmt 0 view .LVU456
 1907 0022 0023     		movs	r3, #0
 1908 0024 E15E     		ldrsh	r1, [r4, r3]
 565:libscpi/src/parser.c ****     result += writeDelimiter(context);
 1909              		.loc 1 565 15 view .LVU457
 1910 0026 4046     		mov	r0, r8
 1911 0028 FFF7FEFF 		bl	SCPI_ResultInt32
 1912              	.LVL240:
 1913 002c 0500     		movs	r5, r0
 1914              	.LVL241:
 566:libscpi/src/parser.c ****     result += writeData(context, "\"", 1);
 1915              		.loc 1 566 5 is_stmt 1 view .LVU458
 566:libscpi/src/parser.c ****     result += writeData(context, "\"", 1);
 1916              		.loc 1 566 15 is_stmt 0 view .LVU459
 1917 002e 4046     		mov	r0, r8
 1918              	.LVL242:
 566:libscpi/src/parser.c ****     result += writeData(context, "\"", 1);
 1919              		.loc 1 566 15 view .LVU460
 1920 0030 FFF7FEFF 		bl	writeDelimiter
 1921              	.LVL243:
 566:libscpi/src/parser.c ****     result += writeData(context, "\"", 1);
 1922              		.loc 1 566 12 view .LVU461
 1923 0034 2D18     		adds	r5, r5, r0
 1924              	.LVL244:
 567:libscpi/src/parser.c **** 
 1925              		.loc 1 567 5 is_stmt 1 view .LVU462
 567:libscpi/src/parser.c **** 
 1926              		.loc 1 567 15 is_stmt 0 view .LVU463
 1927 0036 0122     		movs	r2, #1
 1928 0038 4149     		ldr	r1, .L113
 1929 003a 4046     		mov	r0, r8
 1930 003c FFF7FEFF 		bl	writeData
 1931              	.LVL245:
 567:libscpi/src/parser.c **** 
 1932              		.loc 1 567 12 view .LVU464
ARM GAS  /tmp/ccJs7hvj.s 			page 55


 1933 0040 2D18     		adds	r5, r5, r0
 1934              	.LVL246:
 569:libscpi/src/parser.c ****         if (i == 1) {
 1935              		.loc 1 569 5 is_stmt 1 view .LVU465
 569:libscpi/src/parser.c ****         if (i == 1) {
 1936              		.loc 1 569 12 is_stmt 0 view .LVU466
 1937 0042 0026     		movs	r6, #0
 545:libscpi/src/parser.c ****     size_t step = 0;
 1938              		.loc 1 545 12 view .LVU467
 1939 0044 FF27     		movs	r7, #255
 1940              	.LVL247:
 1941              	.L101:
 569:libscpi/src/parser.c ****         if (i == 1) {
 1942              		.loc 1 569 17 is_stmt 1 discriminator 1 view .LVU468
 569:libscpi/src/parser.c ****         if (i == 1) {
 1943              		.loc 1 569 5 is_stmt 0 discriminator 1 view .LVU469
 1944 0046 002E     		cmp	r6, #0
 1945 0048 6CD1     		bne	.L109
 569:libscpi/src/parser.c ****         if (i == 1) {
 1946              		.loc 1 569 63 discriminator 3 view .LVU470
 1947 004a B300     		lsls	r3, r6, #2
 1948 004c 02AA     		add	r2, sp, #8
 1949 004e 9446     		mov	ip, r2
 1950 0050 6344     		add	r3, r3, ip
 1951 0052 043B     		subs	r3, r3, #4
 1952 0054 1B68     		ldr	r3, [r3]
 569:libscpi/src/parser.c ****         if (i == 1) {
 1953              		.loc 1 569 56 discriminator 3 view .LVU471
 1954 0056 002B     		cmp	r3, #0
 1955 0058 64D0     		beq	.L109
 569:libscpi/src/parser.c ****         if (i == 1) {
 1956              		.loc 1 569 67 discriminator 4 view .LVU472
 1957 005a 002F     		cmp	r7, #0
 1958 005c 62D0     		beq	.L109
 570:libscpi/src/parser.c ****             result += writeSemicolon(context);
 1959              		.loc 1 570 9 is_stmt 1 view .LVU473
 570:libscpi/src/parser.c ****             result += writeSemicolon(context);
 1960              		.loc 1 570 12 is_stmt 0 view .LVU474
 1961 005e 012E     		cmp	r6, #1
 1962 0060 42D0     		beq	.L111
 1963              	.L102:
 574:libscpi/src/parser.c ****             len[i] = outputlimit;
 1964              		.loc 1 574 9 is_stmt 1 view .LVU475
 574:libscpi/src/parser.c ****             len[i] = outputlimit;
 1965              		.loc 1 574 16 is_stmt 0 view .LVU476
 1966 0062 B300     		lsls	r3, r6, #2
 1967 0064 02AA     		add	r2, sp, #8
 1968 0066 9446     		mov	ip, r2
 1969 0068 6344     		add	r3, r3, ip
 1970 006a 083B     		subs	r3, r3, #8
 1971 006c 1B68     		ldr	r3, [r3]
 574:libscpi/src/parser.c ****             len[i] = outputlimit;
 1972              		.loc 1 574 12 view .LVU477
 1973 006e BB42     		cmp	r3, r7
 1974 0070 03D9     		bls	.L104
 575:libscpi/src/parser.c ****         }
 1975              		.loc 1 575 13 is_stmt 1 view .LVU478
ARM GAS  /tmp/ccJs7hvj.s 			page 56


 575:libscpi/src/parser.c ****         }
 1976              		.loc 1 575 20 is_stmt 0 view .LVU479
 1977 0072 B300     		lsls	r3, r6, #2
 1978 0074 6344     		add	r3, r3, ip
 1979 0076 083B     		subs	r3, r3, #8
 1980 0078 1F60     		str	r7, [r3]
 1981              	.L104:
 578:libscpi/src/parser.c ****             if ((step = quote - data[i] + 1) >= outputlimit) {
 1982              		.loc 1 578 15 is_stmt 1 view .LVU480
 578:libscpi/src/parser.c ****             if ((step = quote - data[i] + 1) >= outputlimit) {
 1983              		.loc 1 578 25 is_stmt 0 view .LVU481
 1984 007a B300     		lsls	r3, r6, #2
 1985 007c 02AA     		add	r2, sp, #8
 1986 007e 9446     		mov	ip, r2
 1987 0080 6344     		add	r3, r3, ip
 1988 0082 1A1F     		subs	r2, r3, #4
 1989 0084 1268     		ldr	r2, [r2]
 1990 0086 9146     		mov	r9, r2
 1991 0088 083B     		subs	r3, r3, #8
 1992 008a 1B68     		ldr	r3, [r3]
 1993 008c 9B46     		mov	fp, r3
 1994 008e 2C4A     		ldr	r2, .L113
 1995 0090 1900     		movs	r1, r3
 1996 0092 4846     		mov	r0, r9
 1997 0094 FFF7FEFF 		bl	strnpbrk
 1998              	.LVL248:
 1999 0098 8246     		mov	r10, r0
 2000              	.LVL249:
 578:libscpi/src/parser.c ****             if ((step = quote - data[i] + 1) >= outputlimit) {
 2001              		.loc 1 578 15 view .LVU482
 2002 009a 0028     		cmp	r0, #0
 2003 009c 33D0     		beq	.L106
 579:libscpi/src/parser.c ****                 len[i] -= 1;
 2004              		.loc 1 579 13 is_stmt 1 view .LVU483
 579:libscpi/src/parser.c ****                 len[i] -= 1;
 2005              		.loc 1 579 31 is_stmt 0 view .LVU484
 2006 009e 5346     		mov	r3, r10
 2007 00a0 4A46     		mov	r2, r9
 2008 00a2 9C1A     		subs	r4, r3, r2
 579:libscpi/src/parser.c ****                 len[i] -= 1;
 2009              		.loc 1 579 41 view .LVU485
 2010 00a4 0134     		adds	r4, r4, #1
 2011              	.LVL250:
 579:libscpi/src/parser.c ****                 len[i] -= 1;
 2012              		.loc 1 579 16 view .LVU486
 2013 00a6 A742     		cmp	r7, r4
 2014 00a8 24D9     		bls	.L112
 584:libscpi/src/parser.c ****             result += writeData(context, "\"", 1);
 2015              		.loc 1 584 13 is_stmt 1 view .LVU487
 584:libscpi/src/parser.c ****             result += writeData(context, "\"", 1);
 2016              		.loc 1 584 23 is_stmt 0 view .LVU488
 2017 00aa 2200     		movs	r2, r4
 2018 00ac 4946     		mov	r1, r9
 2019 00ae 4046     		mov	r0, r8
 2020              	.LVL251:
 584:libscpi/src/parser.c ****             result += writeData(context, "\"", 1);
 2021              		.loc 1 584 23 view .LVU489
ARM GAS  /tmp/ccJs7hvj.s 			page 57


 2022 00b0 FFF7FEFF 		bl	writeData
 2023              	.LVL252:
 584:libscpi/src/parser.c ****             result += writeData(context, "\"", 1);
 2024              		.loc 1 584 20 view .LVU490
 2025 00b4 2D18     		adds	r5, r5, r0
 2026              	.LVL253:
 585:libscpi/src/parser.c ****             len[i] -= step;
 2027              		.loc 1 585 13 is_stmt 1 view .LVU491
 585:libscpi/src/parser.c ****             len[i] -= step;
 2028              		.loc 1 585 23 is_stmt 0 view .LVU492
 2029 00b6 0122     		movs	r2, #1
 2030 00b8 2149     		ldr	r1, .L113
 2031 00ba 4046     		mov	r0, r8
 2032 00bc FFF7FEFF 		bl	writeData
 2033              	.LVL254:
 585:libscpi/src/parser.c ****             len[i] -= step;
 2034              		.loc 1 585 20 view .LVU493
 2035 00c0 2D18     		adds	r5, r5, r0
 2036              	.LVL255:
 586:libscpi/src/parser.c ****             outputlimit -= step + 1;
 2037              		.loc 1 586 13 is_stmt 1 view .LVU494
 586:libscpi/src/parser.c ****             outputlimit -= step + 1;
 2038              		.loc 1 586 20 is_stmt 0 view .LVU495
 2039 00c2 5B46     		mov	r3, fp
 2040 00c4 1A1B     		subs	r2, r3, r4
 2041 00c6 B300     		lsls	r3, r6, #2
 2042 00c8 02A9     		add	r1, sp, #8
 2043 00ca 8C46     		mov	ip, r1
 2044 00cc 6344     		add	r3, r3, ip
 2045 00ce 1900     		movs	r1, r3
 2046 00d0 0839     		subs	r1, r1, #8
 2047 00d2 0A60     		str	r2, [r1]
 587:libscpi/src/parser.c ****             data[i] = quote + 1;
 2048              		.loc 1 587 13 is_stmt 1 view .LVU496
 587:libscpi/src/parser.c ****             data[i] = quote + 1;
 2049              		.loc 1 587 25 is_stmt 0 view .LVU497
 2050 00d4 3F1B     		subs	r7, r7, r4
 2051              	.LVL256:
 587:libscpi/src/parser.c ****             data[i] = quote + 1;
 2052              		.loc 1 587 25 view .LVU498
 2053 00d6 013F     		subs	r7, r7, #1
 2054              	.LVL257:
 588:libscpi/src/parser.c ****             if (len[i] > outputlimit) {
 2055              		.loc 1 588 13 is_stmt 1 view .LVU499
 588:libscpi/src/parser.c ****             if (len[i] > outputlimit) {
 2056              		.loc 1 588 29 is_stmt 0 view .LVU500
 2057 00d8 5046     		mov	r0, r10
 2058 00da 0130     		adds	r0, r0, #1
 588:libscpi/src/parser.c ****             if (len[i] > outputlimit) {
 2059              		.loc 1 588 21 view .LVU501
 2060 00dc 043B     		subs	r3, r3, #4
 2061 00de 1860     		str	r0, [r3]
 589:libscpi/src/parser.c ****                 len[i] = outputlimit;
 2062              		.loc 1 589 13 is_stmt 1 view .LVU502
 589:libscpi/src/parser.c ****                 len[i] = outputlimit;
 2063              		.loc 1 589 16 is_stmt 0 view .LVU503
 2064 00e0 BA42     		cmp	r2, r7
ARM GAS  /tmp/ccJs7hvj.s 			page 58


 2065 00e2 CAD9     		bls	.L104
 590:libscpi/src/parser.c ****             }
 2066              		.loc 1 590 17 is_stmt 1 view .LVU504
 590:libscpi/src/parser.c ****             }
 2067              		.loc 1 590 24 is_stmt 0 view .LVU505
 2068 00e4 0F60     		str	r7, [r1]
 2069 00e6 C8E7     		b	.L104
 2070              	.LVL258:
 2071              	.L111:
 571:libscpi/src/parser.c ****             outputlimit -= 1;
 2072              		.loc 1 571 13 is_stmt 1 view .LVU506
 571:libscpi/src/parser.c ****             outputlimit -= 1;
 2073              		.loc 1 571 23 is_stmt 0 view .LVU507
 2074 00e8 4046     		mov	r0, r8
 2075 00ea FFF7FEFF 		bl	writeSemicolon
 2076              	.LVL259:
 571:libscpi/src/parser.c ****             outputlimit -= 1;
 2077              		.loc 1 571 20 view .LVU508
 2078 00ee 2D18     		adds	r5, r5, r0
 2079              	.LVL260:
 572:libscpi/src/parser.c ****         }
 2080              		.loc 1 572 13 is_stmt 1 view .LVU509
 572:libscpi/src/parser.c ****         }
 2081              		.loc 1 572 25 is_stmt 0 view .LVU510
 2082 00f0 013F     		subs	r7, r7, #1
 2083              	.LVL261:
 572:libscpi/src/parser.c ****         }
 2084              		.loc 1 572 25 view .LVU511
 2085 00f2 B6E7     		b	.L102
 2086              	.LVL262:
 2087              	.L112:
 580:libscpi/src/parser.c ****                 outputlimit -= 1;
 2088              		.loc 1 580 17 is_stmt 1 view .LVU512
 580:libscpi/src/parser.c ****                 outputlimit -= 1;
 2089              		.loc 1 580 24 is_stmt 0 view .LVU513
 2090 00f4 B200     		lsls	r2, r6, #2
 2091 00f6 02AB     		add	r3, sp, #8
 2092 00f8 9C46     		mov	ip, r3
 2093 00fa 6244     		add	r2, r2, ip
 2094 00fc 083A     		subs	r2, r2, #8
 2095 00fe 5B46     		mov	r3, fp
 2096 0100 013B     		subs	r3, r3, #1
 2097 0102 1360     		str	r3, [r2]
 581:libscpi/src/parser.c ****                 break;
 2098              		.loc 1 581 17 is_stmt 1 view .LVU514
 581:libscpi/src/parser.c ****                 break;
 2099              		.loc 1 581 29 is_stmt 0 view .LVU515
 2100 0104 013F     		subs	r7, r7, #1
 2101              	.LVL263:
 582:libscpi/src/parser.c ****             }
 2102              		.loc 1 582 17 is_stmt 1 view .LVU516
 2103              	.L106:
 594:libscpi/src/parser.c ****         outputlimit -= len[i];
 2104              		.loc 1 594 9 discriminator 2 view .LVU517
 594:libscpi/src/parser.c ****         outputlimit -= len[i];
 2105              		.loc 1 594 19 is_stmt 0 discriminator 2 view .LVU518
 2106 0106 B300     		lsls	r3, r6, #2
ARM GAS  /tmp/ccJs7hvj.s 			page 59


 2107 0108 02AA     		add	r2, sp, #8
 2108 010a 9446     		mov	ip, r2
 2109 010c 6344     		add	r3, r3, ip
 2110 010e 083B     		subs	r3, r3, #8
 2111 0110 1C68     		ldr	r4, [r3]
 2112 0112 2200     		movs	r2, r4
 2113 0114 4946     		mov	r1, r9
 2114 0116 4046     		mov	r0, r8
 2115              	.LVL264:
 594:libscpi/src/parser.c ****         outputlimit -= len[i];
 2116              		.loc 1 594 19 discriminator 2 view .LVU519
 2117 0118 FFF7FEFF 		bl	writeData
 2118              	.LVL265:
 594:libscpi/src/parser.c ****         outputlimit -= len[i];
 2119              		.loc 1 594 16 discriminator 2 view .LVU520
 2120 011c 2D18     		adds	r5, r5, r0
 2121              	.LVL266:
 595:libscpi/src/parser.c ****     }
 2122              		.loc 1 595 9 is_stmt 1 discriminator 2 view .LVU521
 595:libscpi/src/parser.c ****     }
 2123              		.loc 1 595 21 is_stmt 0 discriminator 2 view .LVU522
 2124 011e 3F1B     		subs	r7, r7, r4
 2125              	.LVL267:
 569:libscpi/src/parser.c ****         if (i == 1) {
 2126              		.loc 1 569 83 is_stmt 1 discriminator 2 view .LVU523
 569:libscpi/src/parser.c ****         if (i == 1) {
 2127              		.loc 1 569 84 is_stmt 0 discriminator 2 view .LVU524
 2128 0120 0136     		adds	r6, r6, #1
 2129              	.LVL268:
 569:libscpi/src/parser.c ****         if (i == 1) {
 2130              		.loc 1 569 84 discriminator 2 view .LVU525
 2131 0122 90E7     		b	.L101
 2132              	.LVL269:
 2133              	.L109:
 597:libscpi/src/parser.c **** 
 2134              		.loc 1 597 5 is_stmt 1 view .LVU526
 597:libscpi/src/parser.c **** 
 2135              		.loc 1 597 15 is_stmt 0 view .LVU527
 2136 0124 0122     		movs	r2, #1
 2137 0126 0649     		ldr	r1, .L113
 2138 0128 4046     		mov	r0, r8
 2139 012a FFF7FEFF 		bl	writeData
 2140              	.LVL270:
 597:libscpi/src/parser.c **** 
 2141              		.loc 1 597 12 view .LVU528
 2142 012e 2818     		adds	r0, r5, r0
 2143              	.LVL271:
 599:libscpi/src/parser.c **** }
 2144              		.loc 1 599 5 is_stmt 1 view .LVU529
 600:libscpi/src/parser.c **** 
 2145              		.loc 1 600 1 is_stmt 0 view .LVU530
 2146 0130 03B0     		add	sp, sp, #12
 2147              		@ sp needed
 2148              	.LVL272:
 2149              	.LVL273:
 2150              	.LVL274:
 600:libscpi/src/parser.c **** 
ARM GAS  /tmp/ccJs7hvj.s 			page 60


 2151              		.loc 1 600 1 view .LVU531
 2152 0132 3CBC     		pop	{r2, r3, r4, r5}
 2153 0134 9046     		mov	r8, r2
 2154 0136 9946     		mov	r9, r3
 2155 0138 A246     		mov	r10, r4
 2156 013a AB46     		mov	fp, r5
 2157 013c F0BD     		pop	{r4, r5, r6, r7, pc}
 2158              	.L114:
 2159 013e C046     		.align	2
 2160              	.L113:
 2161 0140 00000000 		.word	.LC12
 2162              		.cfi_endproc
 2163              	.LFE21:
 2165              		.section	.text.SCPI_ResultArbitraryBlockHeader,"ax",%progbits
 2166              		.align	1
 2167              		.global	SCPI_ResultArbitraryBlockHeader
 2168              		.syntax unified
 2169              		.code	16
 2170              		.thumb_func
 2171              		.fpu softvfp
 2173              	SCPI_ResultArbitraryBlockHeader:
 2174              	.LVL275:
 2175              	.LFB22:
 608:libscpi/src/parser.c ****     char block_header[12];
 2176              		.loc 1 608 70 is_stmt 1 view -0
 2177              		.cfi_startproc
 2178              		@ args = 0, pretend = 0, frame = 16
 2179              		@ frame_needed = 0, uses_anonymous_args = 0
 608:libscpi/src/parser.c ****     char block_header[12];
 2180              		.loc 1 608 70 is_stmt 0 view .LVU533
 2181 0000 30B5     		push	{r4, r5, lr}
 2182              	.LCFI33:
 2183              		.cfi_def_cfa_offset 12
 2184              		.cfi_offset 4, -12
 2185              		.cfi_offset 5, -8
 2186              		.cfi_offset 14, -4
 2187 0002 85B0     		sub	sp, sp, #20
 2188              	.LCFI34:
 2189              		.cfi_def_cfa_offset 32
 2190 0004 0400     		movs	r4, r0
 2191 0006 0D00     		movs	r5, r1
 609:libscpi/src/parser.c ****     size_t header_len;
 2192              		.loc 1 609 5 is_stmt 1 view .LVU534
 610:libscpi/src/parser.c ****     block_header[0] = '#';
 2193              		.loc 1 610 5 view .LVU535
 611:libscpi/src/parser.c ****     SCPI_UInt32ToStrBase((uint32_t) len, block_header + 2, 10, 10);
 2194              		.loc 1 611 5 view .LVU536
 611:libscpi/src/parser.c ****     SCPI_UInt32ToStrBase((uint32_t) len, block_header + 2, 10, 10);
 2195              		.loc 1 611 21 is_stmt 0 view .LVU537
 2196 0008 2323     		movs	r3, #35
 2197 000a 6A46     		mov	r2, sp
 2198 000c 1371     		strb	r3, [r2, #4]
 612:libscpi/src/parser.c **** 
 2199              		.loc 1 612 5 is_stmt 1 view .LVU538
 2200 000e 193B     		subs	r3, r3, #25
 2201 0010 0A22     		movs	r2, #10
 2202 0012 6946     		mov	r1, sp
ARM GAS  /tmp/ccJs7hvj.s 			page 61


 2203              	.LVL276:
 612:libscpi/src/parser.c **** 
 2204              		.loc 1 612 5 is_stmt 0 view .LVU539
 2205 0014 0631     		adds	r1, r1, #6
 2206 0016 2800     		movs	r0, r5
 2207              	.LVL277:
 612:libscpi/src/parser.c **** 
 2208              		.loc 1 612 5 view .LVU540
 2209 0018 FFF7FEFF 		bl	SCPI_UInt32ToStrBase
 2210              	.LVL278:
 614:libscpi/src/parser.c ****     block_header[1] = (char) (header_len + '0');
 2211              		.loc 1 614 5 is_stmt 1 view .LVU541
 614:libscpi/src/parser.c ****     block_header[1] = (char) (header_len + '0');
 2212              		.loc 1 614 18 is_stmt 0 view .LVU542
 2213 001c 6B46     		mov	r3, sp
 2214 001e 981D     		adds	r0, r3, #6
 2215 0020 FFF7FEFF 		bl	strlen
 2216              	.LVL279:
 2217 0024 0200     		movs	r2, r0
 2218              	.LVL280:
 615:libscpi/src/parser.c **** 
 2219              		.loc 1 615 5 is_stmt 1 view .LVU543
 615:libscpi/src/parser.c **** 
 2220              		.loc 1 615 23 is_stmt 0 view .LVU544
 2221 0026 0300     		movs	r3, r0
 2222 0028 3033     		adds	r3, r3, #48
 615:libscpi/src/parser.c **** 
 2223              		.loc 1 615 21 view .LVU545
 2224 002a 6946     		mov	r1, sp
 2225 002c 4B71     		strb	r3, [r1, #5]
 617:libscpi/src/parser.c ****     return writeData(context, block_header, header_len + 2);
 2226              		.loc 1 617 5 is_stmt 1 view .LVU546
 617:libscpi/src/parser.c ****     return writeData(context, block_header, header_len + 2);
 2227              		.loc 1 617 34 is_stmt 0 view .LVU547
 2228 002e 9423     		movs	r3, #148
 2229 0030 E550     		str	r5, [r4, r3]
 618:libscpi/src/parser.c **** }
 2230              		.loc 1 618 5 is_stmt 1 view .LVU548
 618:libscpi/src/parser.c **** }
 2231              		.loc 1 618 12 is_stmt 0 view .LVU549
 2232 0032 0232     		adds	r2, r2, #2
 2233 0034 01A9     		add	r1, sp, #4
 2234 0036 2000     		movs	r0, r4
 2235              	.LVL281:
 618:libscpi/src/parser.c **** }
 2236              		.loc 1 618 12 view .LVU550
 2237 0038 FFF7FEFF 		bl	writeData
 2238              	.LVL282:
 619:libscpi/src/parser.c **** 
 2239              		.loc 1 619 1 view .LVU551
 2240 003c 05B0     		add	sp, sp, #20
 2241              		@ sp needed
 2242              	.LVL283:
 2243              	.LVL284:
 619:libscpi/src/parser.c **** 
 2244              		.loc 1 619 1 view .LVU552
 2245 003e 30BD     		pop	{r4, r5, pc}
ARM GAS  /tmp/ccJs7hvj.s 			page 62


 2246              		.cfi_endproc
 2247              	.LFE22:
 2249              		.section	.text.SCPI_ResultArbitraryBlockData,"ax",%progbits
 2250              		.align	1
 2251              		.global	SCPI_ResultArbitraryBlockData
 2252              		.syntax unified
 2253              		.code	16
 2254              		.thumb_func
 2255              		.fpu softvfp
 2257              	SCPI_ResultArbitraryBlockData:
 2258              	.LVL285:
 2259              	.LFB23:
 628:libscpi/src/parser.c **** 
 2260              		.loc 1 628 87 is_stmt 1 view -0
 2261              		.cfi_startproc
 2262              		@ args = 0, pretend = 0, frame = 0
 2263              		@ frame_needed = 0, uses_anonymous_args = 0
 628:libscpi/src/parser.c **** 
 2264              		.loc 1 628 87 is_stmt 0 view .LVU554
 2265 0000 10B5     		push	{r4, lr}
 2266              	.LCFI35:
 2267              		.cfi_def_cfa_offset 8
 2268              		.cfi_offset 4, -8
 2269              		.cfi_offset 14, -4
 630:libscpi/src/parser.c ****         SCPI_ErrorPush(context, SCPI_ERROR_SYSTEM_ERROR);
 2270              		.loc 1 630 5 is_stmt 1 view .LVU555
 630:libscpi/src/parser.c ****         SCPI_ErrorPush(context, SCPI_ERROR_SYSTEM_ERROR);
 2271              		.loc 1 630 16 is_stmt 0 view .LVU556
 2272 0002 9423     		movs	r3, #148
 2273 0004 C358     		ldr	r3, [r0, r3]
 630:libscpi/src/parser.c ****         SCPI_ErrorPush(context, SCPI_ERROR_SYSTEM_ERROR);
 2274              		.loc 1 630 8 view .LVU557
 2275 0006 9342     		cmp	r3, r2
 2276 0008 0AD3     		bcc	.L120
 635:libscpi/src/parser.c **** 
 2277              		.loc 1 635 5 is_stmt 1 view .LVU558
 635:libscpi/src/parser.c **** 
 2278              		.loc 1 635 34 is_stmt 0 view .LVU559
 2279 000a 9B1A     		subs	r3, r3, r2
 2280 000c 9424     		movs	r4, #148
 2281 000e 0351     		str	r3, [r0, r4]
 637:libscpi/src/parser.c ****         context->output_count++;
 2282              		.loc 1 637 5 is_stmt 1 view .LVU560
 637:libscpi/src/parser.c ****         context->output_count++;
 2283              		.loc 1 637 8 is_stmt 0 view .LVU561
 2284 0010 002B     		cmp	r3, #0
 2285 0012 02D1     		bne	.L119
 638:libscpi/src/parser.c ****     }
 2286              		.loc 1 638 9 is_stmt 1 view .LVU562
 638:libscpi/src/parser.c ****     }
 2287              		.loc 1 638 30 is_stmt 0 view .LVU563
 2288 0014 036B     		ldr	r3, [r0, #48]
 2289 0016 0133     		adds	r3, r3, #1
 2290 0018 0363     		str	r3, [r0, #48]
 2291              	.L119:
 641:libscpi/src/parser.c **** }
 2292              		.loc 1 641 5 is_stmt 1 view .LVU564
ARM GAS  /tmp/ccJs7hvj.s 			page 63


 641:libscpi/src/parser.c **** }
 2293              		.loc 1 641 12 is_stmt 0 view .LVU565
 2294 001a FFF7FEFF 		bl	writeData
 2295              	.LVL286:
 2296              	.L116:
 642:libscpi/src/parser.c **** 
 2297              		.loc 1 642 1 view .LVU566
 2298              		@ sp needed
 2299 001e 10BD     		pop	{r4, pc}
 2300              	.LVL287:
 2301              	.L120:
 631:libscpi/src/parser.c ****         return 0;
 2302              		.loc 1 631 9 is_stmt 1 view .LVU567
 2303 0020 0249     		ldr	r1, .L121
 2304              	.LVL288:
 631:libscpi/src/parser.c ****         return 0;
 2305              		.loc 1 631 9 is_stmt 0 view .LVU568
 2306 0022 FFF7FEFF 		bl	SCPI_ErrorPush
 2307              	.LVL289:
 632:libscpi/src/parser.c ****     }
 2308              		.loc 1 632 9 is_stmt 1 view .LVU569
 632:libscpi/src/parser.c ****     }
 2309              		.loc 1 632 16 is_stmt 0 view .LVU570
 2310 0026 0020     		movs	r0, #0
 2311 0028 F9E7     		b	.L116
 2312              	.L122:
 2313 002a C046     		.align	2
 2314              	.L121:
 2315 002c CAFEFFFF 		.word	-310
 2316              		.cfi_endproc
 2317              	.LFE23:
 2319              		.section	.text.SCPI_ResultArbitraryBlock,"ax",%progbits
 2320              		.align	1
 2321              		.global	SCPI_ResultArbitraryBlock
 2322              		.syntax unified
 2323              		.code	16
 2324              		.thumb_func
 2325              		.fpu softvfp
 2327              	SCPI_ResultArbitraryBlock:
 2328              	.LVL290:
 2329              	.LFB24:
 651:libscpi/src/parser.c ****     size_t result = 0;
 2330              		.loc 1 651 83 is_stmt 1 view -0
 2331              		.cfi_startproc
 2332              		@ args = 0, pretend = 0, frame = 0
 2333              		@ frame_needed = 0, uses_anonymous_args = 0
 651:libscpi/src/parser.c ****     size_t result = 0;
 2334              		.loc 1 651 83 is_stmt 0 view .LVU572
 2335 0000 F8B5     		push	{r3, r4, r5, r6, r7, lr}
 2336              	.LCFI36:
 2337              		.cfi_def_cfa_offset 24
 2338              		.cfi_offset 3, -24
 2339              		.cfi_offset 4, -20
 2340              		.cfi_offset 5, -16
 2341              		.cfi_offset 6, -12
 2342              		.cfi_offset 7, -8
 2343              		.cfi_offset 14, -4
ARM GAS  /tmp/ccJs7hvj.s 			page 64


 2344 0002 0500     		movs	r5, r0
 2345 0004 0F00     		movs	r7, r1
 2346 0006 1600     		movs	r6, r2
 652:libscpi/src/parser.c ****     result += SCPI_ResultArbitraryBlockHeader(context, len);
 2347              		.loc 1 652 5 is_stmt 1 view .LVU573
 2348              	.LVL291:
 653:libscpi/src/parser.c ****     result += SCPI_ResultArbitraryBlockData(context, data, len);
 2349              		.loc 1 653 5 view .LVU574
 653:libscpi/src/parser.c ****     result += SCPI_ResultArbitraryBlockData(context, data, len);
 2350              		.loc 1 653 15 is_stmt 0 view .LVU575
 2351 0008 1100     		movs	r1, r2
 2352              	.LVL292:
 653:libscpi/src/parser.c ****     result += SCPI_ResultArbitraryBlockData(context, data, len);
 2353              		.loc 1 653 15 view .LVU576
 2354 000a FFF7FEFF 		bl	SCPI_ResultArbitraryBlockHeader
 2355              	.LVL293:
 653:libscpi/src/parser.c ****     result += SCPI_ResultArbitraryBlockData(context, data, len);
 2356              		.loc 1 653 15 view .LVU577
 2357 000e 0400     		movs	r4, r0
 2358              	.LVL294:
 654:libscpi/src/parser.c ****     return result;
 2359              		.loc 1 654 5 is_stmt 1 view .LVU578
 654:libscpi/src/parser.c ****     return result;
 2360              		.loc 1 654 15 is_stmt 0 view .LVU579
 2361 0010 3200     		movs	r2, r6
 2362 0012 3900     		movs	r1, r7
 2363 0014 2800     		movs	r0, r5
 2364              	.LVL295:
 654:libscpi/src/parser.c ****     return result;
 2365              		.loc 1 654 15 view .LVU580
 2366 0016 FFF7FEFF 		bl	SCPI_ResultArbitraryBlockData
 2367              	.LVL296:
 654:libscpi/src/parser.c ****     return result;
 2368              		.loc 1 654 12 view .LVU581
 2369 001a 2018     		adds	r0, r4, r0
 2370              	.LVL297:
 655:libscpi/src/parser.c **** }
 2371              		.loc 1 655 5 is_stmt 1 view .LVU582
 656:libscpi/src/parser.c **** 
 2372              		.loc 1 656 1 is_stmt 0 view .LVU583
 2373              		@ sp needed
 2374              	.LVL298:
 2375              	.LVL299:
 2376              	.LVL300:
 656:libscpi/src/parser.c **** 
 2377              		.loc 1 656 1 view .LVU584
 2378 001c F8BD     		pop	{r3, r4, r5, r6, r7, pc}
 2379              		.cfi_endproc
 2380              	.LFE24:
 2382              		.section	.text.produceResultArrayBinary,"ax",%progbits
 2383              		.align	1
 2384              		.syntax unified
 2385              		.code	16
 2386              		.thumb_func
 2387              		.fpu softvfp
 2389              	produceResultArrayBinary:
 2390              	.LVL301:
ARM GAS  /tmp/ccJs7hvj.s 			page 65


 2391              	.LFB61:
 827:libscpi/src/parser.c **** 
 828:libscpi/src/parser.c **** /**
 829:libscpi/src/parser.c ****  * Convert parameter to signed 32 bit integer
 830:libscpi/src/parser.c ****  * @param context
 831:libscpi/src/parser.c ****  * @param parameter
 832:libscpi/src/parser.c ****  * @param value result
 833:libscpi/src/parser.c ****  * @return TRUE if succesful
 834:libscpi/src/parser.c ****  */
 835:libscpi/src/parser.c **** scpi_bool_t SCPI_ParamToInt32(scpi_t * context, scpi_parameter_t * parameter, int32_t * value) {
 836:libscpi/src/parser.c ****     return ParamSignToUInt32(context, parameter, (uint32_t *) value, TRUE);
 837:libscpi/src/parser.c **** }
 838:libscpi/src/parser.c **** 
 839:libscpi/src/parser.c **** /**
 840:libscpi/src/parser.c ****  * Convert parameter to unsigned 32 bit integer
 841:libscpi/src/parser.c ****  * @param context
 842:libscpi/src/parser.c ****  * @param parameter
 843:libscpi/src/parser.c ****  * @param value result
 844:libscpi/src/parser.c ****  * @return TRUE if succesful
 845:libscpi/src/parser.c ****  */
 846:libscpi/src/parser.c **** scpi_bool_t SCPI_ParamToUInt32(scpi_t * context, scpi_parameter_t * parameter, uint32_t * value) {
 847:libscpi/src/parser.c ****     return ParamSignToUInt32(context, parameter, value, FALSE);
 848:libscpi/src/parser.c **** }
 849:libscpi/src/parser.c **** 
 850:libscpi/src/parser.c **** /**
 851:libscpi/src/parser.c ****  * Convert parameter to signed 64 bit integer
 852:libscpi/src/parser.c ****  * @param context
 853:libscpi/src/parser.c ****  * @param parameter
 854:libscpi/src/parser.c ****  * @param value result
 855:libscpi/src/parser.c ****  * @return TRUE if succesful
 856:libscpi/src/parser.c ****  */
 857:libscpi/src/parser.c **** scpi_bool_t SCPI_ParamToInt64(scpi_t * context, scpi_parameter_t * parameter, int64_t * value) {
 858:libscpi/src/parser.c ****     return ParamSignToUInt64(context, parameter, (uint64_t *) value, TRUE);
 859:libscpi/src/parser.c **** }
 860:libscpi/src/parser.c **** 
 861:libscpi/src/parser.c **** /**
 862:libscpi/src/parser.c ****  * Convert parameter to unsigned 32 bit integer
 863:libscpi/src/parser.c ****  * @param context
 864:libscpi/src/parser.c ****  * @param parameter
 865:libscpi/src/parser.c ****  * @param value result
 866:libscpi/src/parser.c ****  * @return TRUE if succesful
 867:libscpi/src/parser.c ****  */
 868:libscpi/src/parser.c **** scpi_bool_t SCPI_ParamToUInt64(scpi_t * context, scpi_parameter_t * parameter, uint64_t * value) {
 869:libscpi/src/parser.c ****     return ParamSignToUInt64(context, parameter, value, FALSE);
 870:libscpi/src/parser.c **** }
 871:libscpi/src/parser.c **** 
 872:libscpi/src/parser.c **** /**
 873:libscpi/src/parser.c ****  * Convert parameter to float (32 bit)
 874:libscpi/src/parser.c ****  * @param context
 875:libscpi/src/parser.c ****  * @param parameter
 876:libscpi/src/parser.c ****  * @param value result
 877:libscpi/src/parser.c ****  * @return TRUE if succesful
 878:libscpi/src/parser.c ****  */
 879:libscpi/src/parser.c **** scpi_bool_t SCPI_ParamToFloat(scpi_t * context, scpi_parameter_t * parameter, float * value) {
 880:libscpi/src/parser.c ****     scpi_bool_t result;
 881:libscpi/src/parser.c ****     uint32_t valint;
 882:libscpi/src/parser.c **** 
ARM GAS  /tmp/ccJs7hvj.s 			page 66


 883:libscpi/src/parser.c ****     if (!value) {
 884:libscpi/src/parser.c ****         SCPI_ErrorPush(context, SCPI_ERROR_SYSTEM_ERROR);
 885:libscpi/src/parser.c ****         return FALSE;
 886:libscpi/src/parser.c ****     }
 887:libscpi/src/parser.c **** 
 888:libscpi/src/parser.c ****     switch (parameter->type) {
 889:libscpi/src/parser.c ****         case SCPI_TOKEN_HEXNUM:
 890:libscpi/src/parser.c ****         case SCPI_TOKEN_OCTNUM:
 891:libscpi/src/parser.c ****         case SCPI_TOKEN_BINNUM:
 892:libscpi/src/parser.c ****             result = SCPI_ParamToUInt32(context, parameter, &valint);
 893:libscpi/src/parser.c ****             *value = valint;
 894:libscpi/src/parser.c ****             break;
 895:libscpi/src/parser.c ****         case SCPI_TOKEN_DECIMAL_NUMERIC_PROGRAM_DATA:
 896:libscpi/src/parser.c ****         case SCPI_TOKEN_DECIMAL_NUMERIC_PROGRAM_DATA_WITH_SUFFIX:
 897:libscpi/src/parser.c ****             result = strToFloat(parameter->ptr, value) > 0 ? TRUE : FALSE;
 898:libscpi/src/parser.c ****             break;
 899:libscpi/src/parser.c ****         default:
 900:libscpi/src/parser.c ****             result = FALSE;
 901:libscpi/src/parser.c ****     }
 902:libscpi/src/parser.c ****     return result;
 903:libscpi/src/parser.c **** }
 904:libscpi/src/parser.c **** 
 905:libscpi/src/parser.c **** /**
 906:libscpi/src/parser.c ****  * Convert parameter to double (64 bit)
 907:libscpi/src/parser.c ****  * @param context
 908:libscpi/src/parser.c ****  * @param parameter
 909:libscpi/src/parser.c ****  * @param value result
 910:libscpi/src/parser.c ****  * @return TRUE if succesful
 911:libscpi/src/parser.c ****  */
 912:libscpi/src/parser.c **** scpi_bool_t SCPI_ParamToDouble(scpi_t * context, scpi_parameter_t * parameter, double * value) {
 913:libscpi/src/parser.c ****     scpi_bool_t result;
 914:libscpi/src/parser.c ****     uint64_t valint;
 915:libscpi/src/parser.c **** 
 916:libscpi/src/parser.c ****     if (!value) {
 917:libscpi/src/parser.c ****         SCPI_ErrorPush(context, SCPI_ERROR_SYSTEM_ERROR);
 918:libscpi/src/parser.c ****         return FALSE;
 919:libscpi/src/parser.c ****     }
 920:libscpi/src/parser.c **** 
 921:libscpi/src/parser.c ****     switch (parameter->type) {
 922:libscpi/src/parser.c ****         case SCPI_TOKEN_HEXNUM:
 923:libscpi/src/parser.c ****         case SCPI_TOKEN_OCTNUM:
 924:libscpi/src/parser.c ****         case SCPI_TOKEN_BINNUM:
 925:libscpi/src/parser.c ****             result = SCPI_ParamToUInt64(context, parameter, &valint);
 926:libscpi/src/parser.c ****             *value = valint;
 927:libscpi/src/parser.c ****             break;
 928:libscpi/src/parser.c ****         case SCPI_TOKEN_DECIMAL_NUMERIC_PROGRAM_DATA:
 929:libscpi/src/parser.c ****         case SCPI_TOKEN_DECIMAL_NUMERIC_PROGRAM_DATA_WITH_SUFFIX:
 930:libscpi/src/parser.c ****             result = strToDouble(parameter->ptr, value) > 0 ? TRUE : FALSE;
 931:libscpi/src/parser.c ****             break;
 932:libscpi/src/parser.c ****         default:
 933:libscpi/src/parser.c ****             result = FALSE;
 934:libscpi/src/parser.c ****     }
 935:libscpi/src/parser.c ****     return result;
 936:libscpi/src/parser.c **** }
 937:libscpi/src/parser.c **** 
 938:libscpi/src/parser.c **** /**
 939:libscpi/src/parser.c ****  * Read floating point float (32 bit) parameter
ARM GAS  /tmp/ccJs7hvj.s 			page 67


 940:libscpi/src/parser.c ****  * @param context
 941:libscpi/src/parser.c ****  * @param value
 942:libscpi/src/parser.c ****  * @param mandatory
 943:libscpi/src/parser.c ****  * @return
 944:libscpi/src/parser.c ****  */
 945:libscpi/src/parser.c **** scpi_bool_t SCPI_ParamFloat(scpi_t * context, float * value, scpi_bool_t mandatory) {
 946:libscpi/src/parser.c ****     scpi_bool_t result;
 947:libscpi/src/parser.c ****     scpi_parameter_t param;
 948:libscpi/src/parser.c **** 
 949:libscpi/src/parser.c ****     if (!value) {
 950:libscpi/src/parser.c ****         SCPI_ErrorPush(context, SCPI_ERROR_SYSTEM_ERROR);
 951:libscpi/src/parser.c ****         return FALSE;
 952:libscpi/src/parser.c ****     }
 953:libscpi/src/parser.c **** 
 954:libscpi/src/parser.c ****     result = SCPI_Parameter(context, &param, mandatory);
 955:libscpi/src/parser.c ****     if (result) {
 956:libscpi/src/parser.c ****         if (SCPI_ParamIsNumber(&param, FALSE)) {
 957:libscpi/src/parser.c ****             SCPI_ParamToFloat(context, &param, value);
 958:libscpi/src/parser.c ****         } else if (SCPI_ParamIsNumber(&param, TRUE)) {
 959:libscpi/src/parser.c ****             SCPI_ErrorPush(context, SCPI_ERROR_SUFFIX_NOT_ALLOWED);
 960:libscpi/src/parser.c ****             result = FALSE;
 961:libscpi/src/parser.c ****         } else {
 962:libscpi/src/parser.c ****             SCPI_ErrorPush(context, SCPI_ERROR_DATA_TYPE_ERROR);
 963:libscpi/src/parser.c ****             result = FALSE;
 964:libscpi/src/parser.c ****         }
 965:libscpi/src/parser.c ****     }
 966:libscpi/src/parser.c ****     return result;
 967:libscpi/src/parser.c **** }
 968:libscpi/src/parser.c **** 
 969:libscpi/src/parser.c **** /**
 970:libscpi/src/parser.c ****  * Read floating point double (64 bit) parameter
 971:libscpi/src/parser.c ****  * @param context
 972:libscpi/src/parser.c ****  * @param value
 973:libscpi/src/parser.c ****  * @param mandatory
 974:libscpi/src/parser.c ****  * @return
 975:libscpi/src/parser.c ****  */
 976:libscpi/src/parser.c **** scpi_bool_t SCPI_ParamDouble(scpi_t * context, double * value, scpi_bool_t mandatory) {
 977:libscpi/src/parser.c ****     scpi_bool_t result;
 978:libscpi/src/parser.c ****     scpi_parameter_t param;
 979:libscpi/src/parser.c **** 
 980:libscpi/src/parser.c ****     if (!value) {
 981:libscpi/src/parser.c ****         SCPI_ErrorPush(context, SCPI_ERROR_SYSTEM_ERROR);
 982:libscpi/src/parser.c ****         return FALSE;
 983:libscpi/src/parser.c ****     }
 984:libscpi/src/parser.c **** 
 985:libscpi/src/parser.c ****     result = SCPI_Parameter(context, &param, mandatory);
 986:libscpi/src/parser.c ****     if (result) {
 987:libscpi/src/parser.c ****         if (SCPI_ParamIsNumber(&param, FALSE)) {
 988:libscpi/src/parser.c ****             SCPI_ParamToDouble(context, &param, value);
 989:libscpi/src/parser.c ****         } else if (SCPI_ParamIsNumber(&param, TRUE)) {
 990:libscpi/src/parser.c ****             SCPI_ErrorPush(context, SCPI_ERROR_SUFFIX_NOT_ALLOWED);
 991:libscpi/src/parser.c ****             result = FALSE;
 992:libscpi/src/parser.c ****         } else {
 993:libscpi/src/parser.c ****             SCPI_ErrorPush(context, SCPI_ERROR_DATA_TYPE_ERROR);
 994:libscpi/src/parser.c ****             result = FALSE;
 995:libscpi/src/parser.c ****         }
 996:libscpi/src/parser.c ****     }
ARM GAS  /tmp/ccJs7hvj.s 			page 68


 997:libscpi/src/parser.c ****     return result;
 998:libscpi/src/parser.c **** }
 999:libscpi/src/parser.c **** 
1000:libscpi/src/parser.c **** /**
1001:libscpi/src/parser.c ****  * Read signed/unsigned 32 bit integer parameter
1002:libscpi/src/parser.c ****  * @param context
1003:libscpi/src/parser.c ****  * @param value
1004:libscpi/src/parser.c ****  * @param mandatory
1005:libscpi/src/parser.c ****  * @param sign
1006:libscpi/src/parser.c ****  * @return
1007:libscpi/src/parser.c ****  */
1008:libscpi/src/parser.c **** static scpi_bool_t ParamSignUInt32(scpi_t * context, uint32_t * value, scpi_bool_t mandatory, scpi_
1009:libscpi/src/parser.c ****     scpi_bool_t result;
1010:libscpi/src/parser.c ****     scpi_parameter_t param;
1011:libscpi/src/parser.c **** 
1012:libscpi/src/parser.c ****     if (!value) {
1013:libscpi/src/parser.c ****         SCPI_ErrorPush(context, SCPI_ERROR_SYSTEM_ERROR);
1014:libscpi/src/parser.c ****         return FALSE;
1015:libscpi/src/parser.c ****     }
1016:libscpi/src/parser.c **** 
1017:libscpi/src/parser.c ****     result = SCPI_Parameter(context, &param, mandatory);
1018:libscpi/src/parser.c ****     if (result) {
1019:libscpi/src/parser.c ****         if (SCPI_ParamIsNumber(&param, FALSE)) {
1020:libscpi/src/parser.c ****             result = ParamSignToUInt32(context, &param, value, sign);
1021:libscpi/src/parser.c ****         } else if (SCPI_ParamIsNumber(&param, TRUE)) {
1022:libscpi/src/parser.c ****             SCPI_ErrorPush(context, SCPI_ERROR_SUFFIX_NOT_ALLOWED);
1023:libscpi/src/parser.c ****             result = FALSE;
1024:libscpi/src/parser.c ****         } else {
1025:libscpi/src/parser.c ****             SCPI_ErrorPush(context, SCPI_ERROR_DATA_TYPE_ERROR);
1026:libscpi/src/parser.c ****             result = FALSE;
1027:libscpi/src/parser.c ****         }
1028:libscpi/src/parser.c ****     }
1029:libscpi/src/parser.c ****     return result;
1030:libscpi/src/parser.c **** }
1031:libscpi/src/parser.c **** 
1032:libscpi/src/parser.c **** /**
1033:libscpi/src/parser.c ****  * Read signed/unsigned 64 bit integer parameter
1034:libscpi/src/parser.c ****  * @param context
1035:libscpi/src/parser.c ****  * @param value
1036:libscpi/src/parser.c ****  * @param mandatory
1037:libscpi/src/parser.c ****  * @param sign
1038:libscpi/src/parser.c ****  * @return
1039:libscpi/src/parser.c ****  */
1040:libscpi/src/parser.c **** static scpi_bool_t ParamSignUInt64(scpi_t * context, uint64_t * value, scpi_bool_t mandatory, scpi_
1041:libscpi/src/parser.c ****     scpi_bool_t result;
1042:libscpi/src/parser.c ****     scpi_parameter_t param;
1043:libscpi/src/parser.c **** 
1044:libscpi/src/parser.c ****     if (!value) {
1045:libscpi/src/parser.c ****         SCPI_ErrorPush(context, SCPI_ERROR_SYSTEM_ERROR);
1046:libscpi/src/parser.c ****         return FALSE;
1047:libscpi/src/parser.c ****     }
1048:libscpi/src/parser.c **** 
1049:libscpi/src/parser.c ****     result = SCPI_Parameter(context, &param, mandatory);
1050:libscpi/src/parser.c ****     if (result) {
1051:libscpi/src/parser.c ****         if (SCPI_ParamIsNumber(&param, FALSE)) {
1052:libscpi/src/parser.c ****             result = ParamSignToUInt64(context, &param, value, sign);
1053:libscpi/src/parser.c ****         } else if (SCPI_ParamIsNumber(&param, TRUE)) {
ARM GAS  /tmp/ccJs7hvj.s 			page 69


1054:libscpi/src/parser.c ****             SCPI_ErrorPush(context, SCPI_ERROR_SUFFIX_NOT_ALLOWED);
1055:libscpi/src/parser.c ****             result = FALSE;
1056:libscpi/src/parser.c ****         } else {
1057:libscpi/src/parser.c ****             SCPI_ErrorPush(context, SCPI_ERROR_DATA_TYPE_ERROR);
1058:libscpi/src/parser.c ****             result = FALSE;
1059:libscpi/src/parser.c ****         }
1060:libscpi/src/parser.c ****     }
1061:libscpi/src/parser.c ****     return result;
1062:libscpi/src/parser.c **** }
1063:libscpi/src/parser.c **** 
1064:libscpi/src/parser.c **** /**
1065:libscpi/src/parser.c ****  * Read signed 32 bit integer parameter
1066:libscpi/src/parser.c ****  * @param context
1067:libscpi/src/parser.c ****  * @param value
1068:libscpi/src/parser.c ****  * @param mandatory
1069:libscpi/src/parser.c ****  * @return
1070:libscpi/src/parser.c ****  */
1071:libscpi/src/parser.c **** scpi_bool_t SCPI_ParamInt32(scpi_t * context, int32_t * value, scpi_bool_t mandatory) {
1072:libscpi/src/parser.c ****     return ParamSignUInt32(context, (uint32_t *) value, mandatory, TRUE);
1073:libscpi/src/parser.c **** }
1074:libscpi/src/parser.c **** 
1075:libscpi/src/parser.c **** /**
1076:libscpi/src/parser.c ****  * Read unsigned 32 bit integer parameter
1077:libscpi/src/parser.c ****  * @param context
1078:libscpi/src/parser.c ****  * @param value
1079:libscpi/src/parser.c ****  * @param mandatory
1080:libscpi/src/parser.c ****  * @return
1081:libscpi/src/parser.c ****  */
1082:libscpi/src/parser.c **** scpi_bool_t SCPI_ParamUInt32(scpi_t * context, uint32_t * value, scpi_bool_t mandatory) {
1083:libscpi/src/parser.c ****     return ParamSignUInt32(context, value, mandatory, FALSE);
1084:libscpi/src/parser.c **** }
1085:libscpi/src/parser.c **** 
1086:libscpi/src/parser.c **** /**
1087:libscpi/src/parser.c ****  * Read signed 64 bit integer parameter
1088:libscpi/src/parser.c ****  * @param context
1089:libscpi/src/parser.c ****  * @param value
1090:libscpi/src/parser.c ****  * @param mandatory
1091:libscpi/src/parser.c ****  * @return
1092:libscpi/src/parser.c ****  */
1093:libscpi/src/parser.c **** scpi_bool_t SCPI_ParamInt64(scpi_t * context, int64_t * value, scpi_bool_t mandatory) {
1094:libscpi/src/parser.c ****     return ParamSignUInt64(context, (uint64_t *) value, mandatory, TRUE);
1095:libscpi/src/parser.c **** }
1096:libscpi/src/parser.c **** 
1097:libscpi/src/parser.c **** /**
1098:libscpi/src/parser.c ****  * Read unsigned 64 bit integer parameter
1099:libscpi/src/parser.c ****  * @param context
1100:libscpi/src/parser.c ****  * @param value
1101:libscpi/src/parser.c ****  * @param mandatory
1102:libscpi/src/parser.c ****  * @return
1103:libscpi/src/parser.c ****  */
1104:libscpi/src/parser.c **** scpi_bool_t SCPI_ParamUInt64(scpi_t * context, uint64_t * value, scpi_bool_t mandatory) {
1105:libscpi/src/parser.c ****     return ParamSignUInt64(context, value, mandatory, FALSE);
1106:libscpi/src/parser.c **** }
1107:libscpi/src/parser.c **** 
1108:libscpi/src/parser.c **** /**
1109:libscpi/src/parser.c ****  * Read character parameter
1110:libscpi/src/parser.c ****  * @param context
ARM GAS  /tmp/ccJs7hvj.s 			page 70


1111:libscpi/src/parser.c ****  * @param value
1112:libscpi/src/parser.c ****  * @param len
1113:libscpi/src/parser.c ****  * @param mandatory
1114:libscpi/src/parser.c ****  * @return
1115:libscpi/src/parser.c ****  */
1116:libscpi/src/parser.c **** scpi_bool_t SCPI_ParamCharacters(scpi_t * context, const char ** value, size_t * len, scpi_bool_t m
1117:libscpi/src/parser.c ****     scpi_bool_t result;
1118:libscpi/src/parser.c ****     scpi_parameter_t param;
1119:libscpi/src/parser.c **** 
1120:libscpi/src/parser.c ****     if (!value || !len) {
1121:libscpi/src/parser.c ****         SCPI_ErrorPush(context, SCPI_ERROR_SYSTEM_ERROR);
1122:libscpi/src/parser.c ****         return FALSE;
1123:libscpi/src/parser.c ****     }
1124:libscpi/src/parser.c **** 
1125:libscpi/src/parser.c ****     result = SCPI_Parameter(context, &param, mandatory);
1126:libscpi/src/parser.c ****     if (result) {
1127:libscpi/src/parser.c ****         switch (param.type) {
1128:libscpi/src/parser.c ****             case SCPI_TOKEN_SINGLE_QUOTE_PROGRAM_DATA:
1129:libscpi/src/parser.c ****             case SCPI_TOKEN_DOUBLE_QUOTE_PROGRAM_DATA:
1130:libscpi/src/parser.c ****                 *value = param.ptr + 1;
1131:libscpi/src/parser.c ****                 *len = param.len - 2;
1132:libscpi/src/parser.c ****                 break;
1133:libscpi/src/parser.c ****             default:
1134:libscpi/src/parser.c ****                 *value = param.ptr;
1135:libscpi/src/parser.c ****                 *len = param.len;
1136:libscpi/src/parser.c ****                 break;
1137:libscpi/src/parser.c ****         }
1138:libscpi/src/parser.c **** 
1139:libscpi/src/parser.c ****         /* TODO: return also parameter type (ProgramMnemonic, ArbitraryBlockProgramData, SingleQuot
1140:libscpi/src/parser.c ****     }
1141:libscpi/src/parser.c **** 
1142:libscpi/src/parser.c ****     return result;
1143:libscpi/src/parser.c **** }
1144:libscpi/src/parser.c **** 
1145:libscpi/src/parser.c **** /**
1146:libscpi/src/parser.c ****  * Get arbitrary block program data and returns pointer to data
1147:libscpi/src/parser.c ****  * @param context
1148:libscpi/src/parser.c ****  * @param value result pointer to data
1149:libscpi/src/parser.c ****  * @param len result length of data
1150:libscpi/src/parser.c ****  * @param mandatory
1151:libscpi/src/parser.c ****  * @return
1152:libscpi/src/parser.c ****  */
1153:libscpi/src/parser.c **** scpi_bool_t SCPI_ParamArbitraryBlock(scpi_t * context, const char ** value, size_t * len, scpi_bool
1154:libscpi/src/parser.c ****     scpi_bool_t result;
1155:libscpi/src/parser.c ****     scpi_parameter_t param;
1156:libscpi/src/parser.c **** 
1157:libscpi/src/parser.c ****     if (!value || !len) {
1158:libscpi/src/parser.c ****         SCPI_ErrorPush(context, SCPI_ERROR_SYSTEM_ERROR);
1159:libscpi/src/parser.c ****         return FALSE;
1160:libscpi/src/parser.c ****     }
1161:libscpi/src/parser.c **** 
1162:libscpi/src/parser.c ****     result = SCPI_Parameter(context, &param, mandatory);
1163:libscpi/src/parser.c ****     if (result) {
1164:libscpi/src/parser.c ****         if (param.type == SCPI_TOKEN_ARBITRARY_BLOCK_PROGRAM_DATA) {
1165:libscpi/src/parser.c ****             *value = param.ptr;
1166:libscpi/src/parser.c ****             *len = param.len;
1167:libscpi/src/parser.c ****         } else {
ARM GAS  /tmp/ccJs7hvj.s 			page 71


1168:libscpi/src/parser.c ****             SCPI_ErrorPush(context, SCPI_ERROR_DATA_TYPE_ERROR);
1169:libscpi/src/parser.c ****             result = FALSE;
1170:libscpi/src/parser.c ****         }
1171:libscpi/src/parser.c ****     }
1172:libscpi/src/parser.c **** 
1173:libscpi/src/parser.c ****     return result;
1174:libscpi/src/parser.c **** }
1175:libscpi/src/parser.c **** 
1176:libscpi/src/parser.c **** scpi_bool_t SCPI_ParamCopyText(scpi_t * context, char * buffer, size_t buffer_len, size_t * copy_le
1177:libscpi/src/parser.c ****     scpi_bool_t result;
1178:libscpi/src/parser.c ****     scpi_parameter_t param;
1179:libscpi/src/parser.c ****     size_t i_from;
1180:libscpi/src/parser.c ****     size_t i_to;
1181:libscpi/src/parser.c ****     char quote;
1182:libscpi/src/parser.c **** 
1183:libscpi/src/parser.c ****     if (!buffer || !copy_len) {
1184:libscpi/src/parser.c ****         SCPI_ErrorPush(context, SCPI_ERROR_SYSTEM_ERROR);
1185:libscpi/src/parser.c ****         return FALSE;
1186:libscpi/src/parser.c ****     }
1187:libscpi/src/parser.c **** 
1188:libscpi/src/parser.c ****     result = SCPI_Parameter(context, &param, mandatory);
1189:libscpi/src/parser.c ****     if (result) {
1190:libscpi/src/parser.c **** 
1191:libscpi/src/parser.c ****         switch (param.type) {
1192:libscpi/src/parser.c ****             case SCPI_TOKEN_SINGLE_QUOTE_PROGRAM_DATA:
1193:libscpi/src/parser.c ****             case SCPI_TOKEN_DOUBLE_QUOTE_PROGRAM_DATA:
1194:libscpi/src/parser.c ****                 quote = param.type == SCPI_TOKEN_SINGLE_QUOTE_PROGRAM_DATA ? '\'' : '"';
1195:libscpi/src/parser.c ****                 for (i_from = 1, i_to = 0; i_from < (size_t) (param.len - 1); i_from++) {
1196:libscpi/src/parser.c ****                     if (i_from >= buffer_len) {
1197:libscpi/src/parser.c ****                         break;
1198:libscpi/src/parser.c ****                     }
1199:libscpi/src/parser.c ****                     buffer[i_to] = param.ptr[i_from];
1200:libscpi/src/parser.c ****                     i_to++;
1201:libscpi/src/parser.c ****                     if (param.ptr[i_from] == quote) {
1202:libscpi/src/parser.c ****                         i_from++;
1203:libscpi/src/parser.c ****                     }
1204:libscpi/src/parser.c ****                 }
1205:libscpi/src/parser.c ****                 *copy_len = i_to;
1206:libscpi/src/parser.c ****                 if (i_to < buffer_len) {
1207:libscpi/src/parser.c ****                     buffer[i_to] = 0;
1208:libscpi/src/parser.c ****                 }
1209:libscpi/src/parser.c ****                 break;
1210:libscpi/src/parser.c ****             default:
1211:libscpi/src/parser.c ****                 SCPI_ErrorPush(context, SCPI_ERROR_DATA_TYPE_ERROR);
1212:libscpi/src/parser.c ****                 result = FALSE;
1213:libscpi/src/parser.c ****         }
1214:libscpi/src/parser.c ****     }
1215:libscpi/src/parser.c **** 
1216:libscpi/src/parser.c ****     return result;
1217:libscpi/src/parser.c **** }
1218:libscpi/src/parser.c **** 
1219:libscpi/src/parser.c **** /**
1220:libscpi/src/parser.c ****  * Convert parameter to choice
1221:libscpi/src/parser.c ****  * @param context
1222:libscpi/src/parser.c ****  * @param parameter - should be PROGRAM_MNEMONIC
1223:libscpi/src/parser.c ****  * @param options - NULL terminated list of choices
1224:libscpi/src/parser.c ****  * @param value - index to options
ARM GAS  /tmp/ccJs7hvj.s 			page 72


1225:libscpi/src/parser.c ****  * @return
1226:libscpi/src/parser.c ****  */
1227:libscpi/src/parser.c **** scpi_bool_t SCPI_ParamToChoice(scpi_t * context, scpi_parameter_t * parameter, const scpi_choice_de
1228:libscpi/src/parser.c ****     size_t res;
1229:libscpi/src/parser.c ****     scpi_bool_t result = FALSE;
1230:libscpi/src/parser.c **** 
1231:libscpi/src/parser.c ****     if (!options || !value) {
1232:libscpi/src/parser.c ****         SCPI_ErrorPush(context, SCPI_ERROR_SYSTEM_ERROR);
1233:libscpi/src/parser.c ****         return FALSE;
1234:libscpi/src/parser.c ****     }
1235:libscpi/src/parser.c **** 
1236:libscpi/src/parser.c ****     if (parameter->type == SCPI_TOKEN_PROGRAM_MNEMONIC) {
1237:libscpi/src/parser.c ****         for (res = 0; options[res].name; ++res) {
1238:libscpi/src/parser.c ****             if (matchPattern(options[res].name, strlen(options[res].name), parameter->ptr, paramete
1239:libscpi/src/parser.c ****                 *value = options[res].tag;
1240:libscpi/src/parser.c ****                 result = TRUE;
1241:libscpi/src/parser.c ****                 break;
1242:libscpi/src/parser.c ****             }
1243:libscpi/src/parser.c ****         }
1244:libscpi/src/parser.c **** 
1245:libscpi/src/parser.c ****         if (!result) {
1246:libscpi/src/parser.c ****             SCPI_ErrorPush(context, SCPI_ERROR_ILLEGAL_PARAMETER_VALUE);
1247:libscpi/src/parser.c ****         }
1248:libscpi/src/parser.c ****     } else {
1249:libscpi/src/parser.c ****         SCPI_ErrorPush(context, SCPI_ERROR_DATA_TYPE_ERROR);
1250:libscpi/src/parser.c ****     }
1251:libscpi/src/parser.c **** 
1252:libscpi/src/parser.c ****     return result;
1253:libscpi/src/parser.c **** }
1254:libscpi/src/parser.c **** 
1255:libscpi/src/parser.c **** /**
1256:libscpi/src/parser.c ****  * Find tag in choices and returns its first textual representation
1257:libscpi/src/parser.c ****  * @param options specifications of choices numbers (patterns)
1258:libscpi/src/parser.c ****  * @param tag numerical representatio of choice
1259:libscpi/src/parser.c ****  * @param text result text
1260:libscpi/src/parser.c ****  * @return TRUE if succesfule, else FALSE
1261:libscpi/src/parser.c ****  */
1262:libscpi/src/parser.c **** scpi_bool_t SCPI_ChoiceToName(const scpi_choice_def_t * options, int32_t tag, const char ** text) {
1263:libscpi/src/parser.c ****     int i;
1264:libscpi/src/parser.c **** 
1265:libscpi/src/parser.c ****     for (i = 0; options[i].name != NULL; i++) {
1266:libscpi/src/parser.c ****         if (options[i].tag == tag) {
1267:libscpi/src/parser.c ****             *text = options[i].name;
1268:libscpi/src/parser.c ****             return TRUE;
1269:libscpi/src/parser.c ****         }
1270:libscpi/src/parser.c ****     }
1271:libscpi/src/parser.c **** 
1272:libscpi/src/parser.c ****     return FALSE;
1273:libscpi/src/parser.c **** }
1274:libscpi/src/parser.c **** 
1275:libscpi/src/parser.c **** /*
1276:libscpi/src/parser.c ****  * Definition of BOOL choice list
1277:libscpi/src/parser.c ****  */
1278:libscpi/src/parser.c **** const scpi_choice_def_t scpi_bool_def[] = {
1279:libscpi/src/parser.c ****     {"OFF", 0},
1280:libscpi/src/parser.c ****     {"ON", 1},
1281:libscpi/src/parser.c ****     SCPI_CHOICE_LIST_END /* termination of option list */
ARM GAS  /tmp/ccJs7hvj.s 			page 73


1282:libscpi/src/parser.c **** };
1283:libscpi/src/parser.c **** 
1284:libscpi/src/parser.c **** /**
1285:libscpi/src/parser.c ****  * Read BOOL parameter (0,1,ON,OFF)
1286:libscpi/src/parser.c ****  * @param context
1287:libscpi/src/parser.c ****  * @param value
1288:libscpi/src/parser.c ****  * @param mandatory
1289:libscpi/src/parser.c ****  * @return
1290:libscpi/src/parser.c ****  */
1291:libscpi/src/parser.c **** scpi_bool_t SCPI_ParamBool(scpi_t * context, scpi_bool_t * value, scpi_bool_t mandatory) {
1292:libscpi/src/parser.c ****     scpi_bool_t result;
1293:libscpi/src/parser.c ****     scpi_parameter_t param;
1294:libscpi/src/parser.c ****     int32_t intval;
1295:libscpi/src/parser.c **** 
1296:libscpi/src/parser.c ****     if (!value) {
1297:libscpi/src/parser.c ****         SCPI_ErrorPush(context, SCPI_ERROR_SYSTEM_ERROR);
1298:libscpi/src/parser.c ****         return FALSE;
1299:libscpi/src/parser.c ****     }
1300:libscpi/src/parser.c **** 
1301:libscpi/src/parser.c ****     result = SCPI_Parameter(context, &param, mandatory);
1302:libscpi/src/parser.c **** 
1303:libscpi/src/parser.c ****     if (result) {
1304:libscpi/src/parser.c ****         if (param.type == SCPI_TOKEN_DECIMAL_NUMERIC_PROGRAM_DATA) {
1305:libscpi/src/parser.c ****             SCPI_ParamToInt32(context, &param, &intval);
1306:libscpi/src/parser.c ****             *value = intval ? TRUE : FALSE;
1307:libscpi/src/parser.c ****         } else {
1308:libscpi/src/parser.c ****             result = SCPI_ParamToChoice(context, &param, scpi_bool_def, &intval);
1309:libscpi/src/parser.c ****             if (result) {
1310:libscpi/src/parser.c ****                 *value = intval ? TRUE : FALSE;
1311:libscpi/src/parser.c ****             }
1312:libscpi/src/parser.c ****         }
1313:libscpi/src/parser.c ****     }
1314:libscpi/src/parser.c **** 
1315:libscpi/src/parser.c ****     return result;
1316:libscpi/src/parser.c **** }
1317:libscpi/src/parser.c **** 
1318:libscpi/src/parser.c **** /**
1319:libscpi/src/parser.c ****  * Read value from list of options
1320:libscpi/src/parser.c ****  * @param context
1321:libscpi/src/parser.c ****  * @param options
1322:libscpi/src/parser.c ****  * @param value
1323:libscpi/src/parser.c ****  * @param mandatory
1324:libscpi/src/parser.c ****  * @return
1325:libscpi/src/parser.c ****  */
1326:libscpi/src/parser.c **** scpi_bool_t SCPI_ParamChoice(scpi_t * context, const scpi_choice_def_t * options, int32_t * value, 
1327:libscpi/src/parser.c ****     scpi_bool_t result;
1328:libscpi/src/parser.c ****     scpi_parameter_t param;
1329:libscpi/src/parser.c **** 
1330:libscpi/src/parser.c ****     if (!options || !value) {
1331:libscpi/src/parser.c ****         SCPI_ErrorPush(context, SCPI_ERROR_SYSTEM_ERROR);
1332:libscpi/src/parser.c ****         return FALSE;
1333:libscpi/src/parser.c ****     }
1334:libscpi/src/parser.c **** 
1335:libscpi/src/parser.c ****     result = SCPI_Parameter(context, &param, mandatory);
1336:libscpi/src/parser.c ****     if (result) {
1337:libscpi/src/parser.c ****         result = SCPI_ParamToChoice(context, &param, options, value);
1338:libscpi/src/parser.c ****     }
ARM GAS  /tmp/ccJs7hvj.s 			page 74


1339:libscpi/src/parser.c **** 
1340:libscpi/src/parser.c ****     return result;
1341:libscpi/src/parser.c **** }
1342:libscpi/src/parser.c **** 
1343:libscpi/src/parser.c **** /**
1344:libscpi/src/parser.c ****  * Parse one parameter and detect type
1345:libscpi/src/parser.c ****  * @param state
1346:libscpi/src/parser.c ****  * @param token
1347:libscpi/src/parser.c ****  * @return
1348:libscpi/src/parser.c ****  */
1349:libscpi/src/parser.c **** int scpiParser_parseProgramData(lex_state_t * state, scpi_token_t * token) {
1350:libscpi/src/parser.c ****     scpi_token_t tmp;
1351:libscpi/src/parser.c ****     int result = 0;
1352:libscpi/src/parser.c ****     int wsLen;
1353:libscpi/src/parser.c ****     int suffixLen;
1354:libscpi/src/parser.c ****     int realLen = 0;
1355:libscpi/src/parser.c ****     realLen += scpiLex_WhiteSpace(state, &tmp);
1356:libscpi/src/parser.c **** 
1357:libscpi/src/parser.c ****     if (result == 0) result = scpiLex_NondecimalNumericData(state, token);
1358:libscpi/src/parser.c ****     if (result == 0) result = scpiLex_CharacterProgramData(state, token);
1359:libscpi/src/parser.c ****     if (result == 0) {
1360:libscpi/src/parser.c ****         result = scpiLex_DecimalNumericProgramData(state, token);
1361:libscpi/src/parser.c ****         if (result != 0) {
1362:libscpi/src/parser.c ****             wsLen = scpiLex_WhiteSpace(state, &tmp);
1363:libscpi/src/parser.c ****             suffixLen = scpiLex_SuffixProgramData(state, &tmp);
1364:libscpi/src/parser.c ****             if (suffixLen > 0) {
1365:libscpi/src/parser.c ****                 token->len += wsLen + suffixLen;
1366:libscpi/src/parser.c ****                 token->type = SCPI_TOKEN_DECIMAL_NUMERIC_PROGRAM_DATA_WITH_SUFFIX;
1367:libscpi/src/parser.c ****                 result = token->len;
1368:libscpi/src/parser.c ****             }
1369:libscpi/src/parser.c ****         }
1370:libscpi/src/parser.c ****     }
1371:libscpi/src/parser.c **** 
1372:libscpi/src/parser.c ****     if (result == 0) result = scpiLex_StringProgramData(state, token);
1373:libscpi/src/parser.c ****     if (result == 0) result = scpiLex_ArbitraryBlockProgramData(state, token);
1374:libscpi/src/parser.c ****     if (result == 0) result = scpiLex_ProgramExpression(state, token);
1375:libscpi/src/parser.c **** 
1376:libscpi/src/parser.c ****     realLen += scpiLex_WhiteSpace(state, &tmp);
1377:libscpi/src/parser.c **** 
1378:libscpi/src/parser.c ****     return result + realLen;
1379:libscpi/src/parser.c **** }
1380:libscpi/src/parser.c **** 
1381:libscpi/src/parser.c **** /**
1382:libscpi/src/parser.c ****  * Skip all parameters to correctly detect end of command line.
1383:libscpi/src/parser.c ****  * @param state
1384:libscpi/src/parser.c ****  * @param token
1385:libscpi/src/parser.c ****  * @param numberOfParameters
1386:libscpi/src/parser.c ****  * @return
1387:libscpi/src/parser.c ****  */
1388:libscpi/src/parser.c **** int scpiParser_parseAllProgramData(lex_state_t * state, scpi_token_t * token, int * numberOfParamet
1389:libscpi/src/parser.c **** 
1390:libscpi/src/parser.c ****     int result;
1391:libscpi/src/parser.c ****     scpi_token_t tmp;
1392:libscpi/src/parser.c ****     int paramCount = 0;
1393:libscpi/src/parser.c **** 
1394:libscpi/src/parser.c ****     token->len = -1;
1395:libscpi/src/parser.c ****     token->type = SCPI_TOKEN_ALL_PROGRAM_DATA;
ARM GAS  /tmp/ccJs7hvj.s 			page 75


1396:libscpi/src/parser.c ****     token->ptr = state->pos;
1397:libscpi/src/parser.c **** 
1398:libscpi/src/parser.c **** 
1399:libscpi/src/parser.c ****     for (result = 1; result != 0; result = scpiLex_Comma(state, &tmp)) {
1400:libscpi/src/parser.c ****         token->len += result;
1401:libscpi/src/parser.c **** 
1402:libscpi/src/parser.c ****         if (result == 0) {
1403:libscpi/src/parser.c ****             token->type = SCPI_TOKEN_UNKNOWN;
1404:libscpi/src/parser.c ****             token->len = 0;
1405:libscpi/src/parser.c ****             paramCount = -1;
1406:libscpi/src/parser.c ****             break;
1407:libscpi/src/parser.c ****         }
1408:libscpi/src/parser.c **** 
1409:libscpi/src/parser.c ****         result = scpiParser_parseProgramData(state, &tmp);
1410:libscpi/src/parser.c ****         if (tmp.type != SCPI_TOKEN_UNKNOWN) {
1411:libscpi/src/parser.c ****             token->len += result;
1412:libscpi/src/parser.c ****         } else {
1413:libscpi/src/parser.c ****             token->type = SCPI_TOKEN_UNKNOWN;
1414:libscpi/src/parser.c ****             token->len = 0;
1415:libscpi/src/parser.c ****             paramCount = -1;
1416:libscpi/src/parser.c ****             break;
1417:libscpi/src/parser.c ****         }
1418:libscpi/src/parser.c ****         paramCount++;
1419:libscpi/src/parser.c ****     }
1420:libscpi/src/parser.c **** 
1421:libscpi/src/parser.c ****     if (token->len == -1) {
1422:libscpi/src/parser.c ****         token->len = 0;
1423:libscpi/src/parser.c ****     }
1424:libscpi/src/parser.c **** 
1425:libscpi/src/parser.c ****     if (numberOfParameters != NULL) {
1426:libscpi/src/parser.c ****         *numberOfParameters = paramCount;
1427:libscpi/src/parser.c ****     }
1428:libscpi/src/parser.c ****     return token->len;
1429:libscpi/src/parser.c **** }
1430:libscpi/src/parser.c **** 
1431:libscpi/src/parser.c **** /**
1432:libscpi/src/parser.c ****  * Skip complete command line - program header and parameters
1433:libscpi/src/parser.c ****  * @param state
1434:libscpi/src/parser.c ****  * @param buffer
1435:libscpi/src/parser.c ****  * @param len
1436:libscpi/src/parser.c ****  * @return
1437:libscpi/src/parser.c ****  */
1438:libscpi/src/parser.c **** int scpiParser_detectProgramMessageUnit(scpi_parser_state_t * state, char * buffer, int len) {
1439:libscpi/src/parser.c ****     lex_state_t lex_state;
1440:libscpi/src/parser.c ****     scpi_token_t tmp;
1441:libscpi/src/parser.c ****     int result = 0;
1442:libscpi/src/parser.c **** 
1443:libscpi/src/parser.c ****     lex_state.buffer = lex_state.pos = buffer;
1444:libscpi/src/parser.c ****     lex_state.len = len;
1445:libscpi/src/parser.c ****     state->numberOfParameters = 0;
1446:libscpi/src/parser.c **** 
1447:libscpi/src/parser.c ****     /* ignore whitespace at the begginig */
1448:libscpi/src/parser.c ****     scpiLex_WhiteSpace(&lex_state, &tmp);
1449:libscpi/src/parser.c **** 
1450:libscpi/src/parser.c ****     if (scpiLex_ProgramHeader(&lex_state, &state->programHeader) >= 0) {
1451:libscpi/src/parser.c ****         if (scpiLex_WhiteSpace(&lex_state, &tmp) > 0) {
1452:libscpi/src/parser.c ****             scpiParser_parseAllProgramData(&lex_state, &state->programData, &state->numberOfParamet
ARM GAS  /tmp/ccJs7hvj.s 			page 76


1453:libscpi/src/parser.c ****         } else {
1454:libscpi/src/parser.c ****             invalidateToken(&state->programData, lex_state.pos);
1455:libscpi/src/parser.c ****         }
1456:libscpi/src/parser.c ****     } else {
1457:libscpi/src/parser.c ****         invalidateToken(&state->programHeader, lex_state.buffer);
1458:libscpi/src/parser.c ****         invalidateToken(&state->programData, lex_state.buffer);
1459:libscpi/src/parser.c ****     }
1460:libscpi/src/parser.c **** 
1461:libscpi/src/parser.c ****     if (result == 0) result = scpiLex_NewLine(&lex_state, &tmp);
1462:libscpi/src/parser.c ****     if (result == 0) result = scpiLex_Semicolon(&lex_state, &tmp);
1463:libscpi/src/parser.c **** 
1464:libscpi/src/parser.c ****     if (!scpiLex_IsEos(&lex_state) && (result == 0)) {
1465:libscpi/src/parser.c ****         lex_state.pos++;
1466:libscpi/src/parser.c **** 
1467:libscpi/src/parser.c ****         state->programHeader.len = 1;
1468:libscpi/src/parser.c ****         state->programHeader.type = SCPI_TOKEN_INVALID;
1469:libscpi/src/parser.c **** 
1470:libscpi/src/parser.c ****         invalidateToken(&state->programData, lex_state.buffer);
1471:libscpi/src/parser.c ****     }
1472:libscpi/src/parser.c **** 
1473:libscpi/src/parser.c ****     if (SCPI_TOKEN_SEMICOLON == tmp.type) {
1474:libscpi/src/parser.c ****         state->termination = SCPI_MESSAGE_TERMINATION_SEMICOLON;
1475:libscpi/src/parser.c ****     } else if (SCPI_TOKEN_NL == tmp.type) {
1476:libscpi/src/parser.c ****         state->termination = SCPI_MESSAGE_TERMINATION_NL;
1477:libscpi/src/parser.c ****     } else {
1478:libscpi/src/parser.c ****         state->termination = SCPI_MESSAGE_TERMINATION_NONE;
1479:libscpi/src/parser.c ****     }
1480:libscpi/src/parser.c **** 
1481:libscpi/src/parser.c ****     return lex_state.pos - lex_state.buffer;
1482:libscpi/src/parser.c **** }
1483:libscpi/src/parser.c **** 
1484:libscpi/src/parser.c **** /**
1485:libscpi/src/parser.c ****  * Check current command
1486:libscpi/src/parser.c ****  *  - suitable for one handle to multiple commands
1487:libscpi/src/parser.c ****  * @param context
1488:libscpi/src/parser.c ****  * @param cmd
1489:libscpi/src/parser.c ****  * @return
1490:libscpi/src/parser.c ****  */
1491:libscpi/src/parser.c **** scpi_bool_t SCPI_IsCmd(scpi_t * context, const char * cmd) {
1492:libscpi/src/parser.c ****     const char * pattern;
1493:libscpi/src/parser.c **** 
1494:libscpi/src/parser.c ****     if (!context->param_list.cmd) {
1495:libscpi/src/parser.c ****         return FALSE;
1496:libscpi/src/parser.c ****     }
1497:libscpi/src/parser.c **** 
1498:libscpi/src/parser.c ****     pattern = context->param_list.cmd->pattern;
1499:libscpi/src/parser.c ****     return matchCommand(pattern, cmd, strlen(cmd), NULL, 0, 0);
1500:libscpi/src/parser.c **** }
1501:libscpi/src/parser.c **** 
1502:libscpi/src/parser.c **** #if USE_COMMAND_TAGS
1503:libscpi/src/parser.c **** 
1504:libscpi/src/parser.c **** /**
1505:libscpi/src/parser.c ****  * Return the .tag field of the matching scpi_command_t
1506:libscpi/src/parser.c ****  * @param context
1507:libscpi/src/parser.c ****  * @return
1508:libscpi/src/parser.c ****  */
1509:libscpi/src/parser.c **** int32_t SCPI_CmdTag(scpi_t * context) {
ARM GAS  /tmp/ccJs7hvj.s 			page 77


1510:libscpi/src/parser.c ****     if (context->param_list.cmd) {
1511:libscpi/src/parser.c ****         return context->param_list.cmd->tag;
1512:libscpi/src/parser.c ****     } else {
1513:libscpi/src/parser.c ****         return 0;
1514:libscpi/src/parser.c ****     }
1515:libscpi/src/parser.c **** }
1516:libscpi/src/parser.c **** #endif /* USE_COMMAND_TAGS */
1517:libscpi/src/parser.c **** 
1518:libscpi/src/parser.c **** scpi_bool_t SCPI_Match(const char * pattern, const char * value, size_t len) {
1519:libscpi/src/parser.c ****     return matchCommand(pattern, value, len, NULL, 0, 0);
1520:libscpi/src/parser.c **** }
1521:libscpi/src/parser.c **** 
1522:libscpi/src/parser.c **** scpi_bool_t SCPI_CommandNumbers(scpi_t * context, int32_t * numbers, size_t len, int32_t default_va
1523:libscpi/src/parser.c ****     return matchCommand(context->param_list.cmd->pattern, context->param_list.cmd_raw.data, context
1524:libscpi/src/parser.c **** }
1525:libscpi/src/parser.c **** 
1526:libscpi/src/parser.c **** /**
1527:libscpi/src/parser.c ****  * If SCPI_Parameter() returns FALSE, this function can detect, if the parameter
1528:libscpi/src/parser.c ****  * is just missing (TRUE) or if there was an error during processing of the command (FALSE)
1529:libscpi/src/parser.c ****  * @param parameter
1530:libscpi/src/parser.c ****  * @return
1531:libscpi/src/parser.c ****  */
1532:libscpi/src/parser.c **** scpi_bool_t SCPI_ParamIsValid(scpi_parameter_t * parameter) {
1533:libscpi/src/parser.c ****     return parameter->type == SCPI_TOKEN_UNKNOWN ? FALSE : TRUE;
1534:libscpi/src/parser.c **** }
1535:libscpi/src/parser.c **** 
1536:libscpi/src/parser.c **** /**
1537:libscpi/src/parser.c ****  * Returns TRUE if there was an error during parameter handling
1538:libscpi/src/parser.c ****  * @param context
1539:libscpi/src/parser.c ****  * @return
1540:libscpi/src/parser.c ****  */
1541:libscpi/src/parser.c **** scpi_bool_t SCPI_ParamErrorOccurred(scpi_t * context) {
1542:libscpi/src/parser.c ****     return context->cmd_error;
1543:libscpi/src/parser.c **** }
1544:libscpi/src/parser.c **** 
1545:libscpi/src/parser.c **** /**
1546:libscpi/src/parser.c ****  * Result binary array and swap bytes if needed (native endiannes != required endiannes)
1547:libscpi/src/parser.c ****  * @param context
1548:libscpi/src/parser.c ****  * @param array
1549:libscpi/src/parser.c ****  * @param count
1550:libscpi/src/parser.c ****  * @param item_size
1551:libscpi/src/parser.c ****  * @param format
1552:libscpi/src/parser.c ****  * @return
1553:libscpi/src/parser.c ****  */
1554:libscpi/src/parser.c **** static size_t produceResultArrayBinary(scpi_t * context, const void * array, size_t count, size_t i
 2392              		.loc 1 1554 138 is_stmt 1 view -0
 2393              		.cfi_startproc
 2394              		@ args = 4, pretend = 0, frame = 8
 2395              		@ frame_needed = 0, uses_anonymous_args = 0
 2396              		.loc 1 1554 138 is_stmt 0 view .LVU586
 2397 0000 F0B5     		push	{r4, r5, r6, r7, lr}
 2398              	.LCFI37:
 2399              		.cfi_def_cfa_offset 20
 2400              		.cfi_offset 4, -20
 2401              		.cfi_offset 5, -16
 2402              		.cfi_offset 6, -12
 2403              		.cfi_offset 7, -8
ARM GAS  /tmp/ccJs7hvj.s 			page 78


 2404              		.cfi_offset 14, -4
 2405 0002 CE46     		mov	lr, r9
 2406 0004 4746     		mov	r7, r8
 2407 0006 80B5     		push	{r7, lr}
 2408              	.LCFI38:
 2409              		.cfi_def_cfa_offset 28
 2410              		.cfi_offset 8, -28
 2411              		.cfi_offset 9, -24
 2412 0008 83B0     		sub	sp, sp, #12
 2413              	.LCFI39:
 2414              		.cfi_def_cfa_offset 40
 2415 000a 0700     		movs	r7, r0
 2416 000c 8846     		mov	r8, r1
 2417 000e 1600     		movs	r6, r2
 2418 0010 1C00     		movs	r4, r3
 2419 0012 0AAB     		add	r3, sp, #40
 2420              	.LVL302:
 2421              		.loc 1 1554 138 view .LVU587
 2422 0014 1D78     		ldrb	r5, [r3]
1555:libscpi/src/parser.c **** 
1556:libscpi/src/parser.c ****     if (SCPI_GetNativeFormat() == format) {
 2423              		.loc 1 1556 5 is_stmt 1 view .LVU588
 2424              		.loc 1 1556 9 is_stmt 0 view .LVU589
 2425 0016 FFF7FEFF 		bl	SCPI_GetNativeFormat
 2426              	.LVL303:
 2427              		.loc 1 1556 8 view .LVU590
 2428 001a A842     		cmp	r0, r5
 2429 001c 2AD0     		beq	.L141
 2430              	.LBB3:
1557:libscpi/src/parser.c ****         switch (item_size) {
1558:libscpi/src/parser.c ****             case 1:
1559:libscpi/src/parser.c ****             case 2:
1560:libscpi/src/parser.c ****             case 4:
1561:libscpi/src/parser.c ****             case 8:
1562:libscpi/src/parser.c ****                 return SCPI_ResultArbitraryBlock(context, array, count * item_size);
1563:libscpi/src/parser.c ****             default:
1564:libscpi/src/parser.c ****                 SCPI_ErrorPush(context, SCPI_ERROR_SYSTEM_ERROR);
1565:libscpi/src/parser.c ****                 return 0;
1566:libscpi/src/parser.c ****         }
1567:libscpi/src/parser.c ****     } else {
1568:libscpi/src/parser.c ****         size_t result = 0;
 2431              		.loc 1 1568 9 is_stmt 1 view .LVU591
 2432              	.LVL304:
1569:libscpi/src/parser.c ****         size_t i;
 2433              		.loc 1 1569 9 view .LVU592
1570:libscpi/src/parser.c ****         switch (item_size) {
 2434              		.loc 1 1570 9 view .LVU593
 2435 001e 082C     		cmp	r4, #8
 2436 0020 57D8     		bhi	.L128
 2437 0022 0123     		movs	r3, #1
 2438 0024 A340     		lsls	r3, r3, r4
 2439 0026 8B22     		movs	r2, #139
 2440 0028 5200     		lsls	r2, r2, #1
 2441 002a 1342     		tst	r3, r2
 2442 002c 51D0     		beq	.L128
1571:libscpi/src/parser.c ****             case 1:
1572:libscpi/src/parser.c ****             case 2:
ARM GAS  /tmp/ccJs7hvj.s 			page 79


1573:libscpi/src/parser.c ****             case 4:
1574:libscpi/src/parser.c ****             case 8:
1575:libscpi/src/parser.c ****                 result += SCPI_ResultArbitraryBlockHeader(context, count * item_size);
 2443              		.loc 1 1575 17 view .LVU594
 2444              		.loc 1 1575 27 is_stmt 0 view .LVU595
 2445 002e 3100     		movs	r1, r6
 2446 0030 6143     		muls	r1, r4
 2447 0032 3800     		movs	r0, r7
 2448 0034 FFF7FEFF 		bl	SCPI_ResultArbitraryBlockHeader
 2449              	.LVL305:
 2450 0038 0500     		movs	r5, r0
 2451              	.LVL306:
1576:libscpi/src/parser.c ****                 break;
 2452              		.loc 1 1576 17 is_stmt 1 view .LVU596
1577:libscpi/src/parser.c ****             default:
1578:libscpi/src/parser.c ****                 SCPI_ErrorPush(context, SCPI_ERROR_SYSTEM_ERROR);
1579:libscpi/src/parser.c ****                 return 0;
1580:libscpi/src/parser.c ****         }
1581:libscpi/src/parser.c **** 
1582:libscpi/src/parser.c ****         switch (item_size) {
 2453              		.loc 1 1582 9 view .LVU597
 2454 003a 042C     		cmp	r4, #4
 2455 003c 5BD0     		beq	.L138
 2456 003e 2FD8     		bhi	.L130
 2457 0040 012C     		cmp	r4, #1
 2458 0042 51D0     		beq	.L131
 2459 0044 022C     		cmp	r4, #2
 2460 0046 49D1     		bne	.L124
 2461 0048 0023     		movs	r3, #0
 2462 004a 9946     		mov	r9, r3
 2463              	.LVL307:
 2464              	.L132:
1583:libscpi/src/parser.c ****             case 1:
1584:libscpi/src/parser.c ****                 result += SCPI_ResultArbitraryBlockData(context, array, count);
1585:libscpi/src/parser.c ****                 break;
1586:libscpi/src/parser.c ****             case 2:
1587:libscpi/src/parser.c ****                 for (i = 0; i < count; i++) {
 2465              		.loc 1 1587 29 discriminator 1 view .LVU598
 2466              		.loc 1 1587 17 is_stmt 0 discriminator 1 view .LVU599
 2467 004c B145     		cmp	r9, r6
 2468 004e 45D2     		bcs	.L124
 2469              	.LBB4:
1588:libscpi/src/parser.c ****                     uint16_t val = SCPI_Swap16(((uint16_t*) array)[i]);
 2470              		.loc 1 1588 21 is_stmt 1 discriminator 3 view .LVU600
 2471              		.loc 1 1588 67 is_stmt 0 discriminator 3 view .LVU601
 2472 0050 4B46     		mov	r3, r9
 2473 0052 5B00     		lsls	r3, r3, #1
 2474              		.loc 1 1588 36 discriminator 3 view .LVU602
 2475 0054 4246     		mov	r2, r8
 2476 0056 D05A     		ldrh	r0, [r2, r3]
 2477 0058 FFF7FEFF 		bl	SCPI_Swap16
 2478              	.LVL308:
 2479              		.loc 1 1588 30 discriminator 3 view .LVU603
 2480 005c 6B46     		mov	r3, sp
 2481 005e 1880     		strh	r0, [r3]
1589:libscpi/src/parser.c ****                     result += SCPI_ResultArbitraryBlockData(context, &val, item_size);
 2482              		.loc 1 1589 21 is_stmt 1 discriminator 3 view .LVU604
ARM GAS  /tmp/ccJs7hvj.s 			page 80


 2483              		.loc 1 1589 31 is_stmt 0 discriminator 3 view .LVU605
 2484 0060 2200     		movs	r2, r4
 2485 0062 6946     		mov	r1, sp
 2486 0064 3800     		movs	r0, r7
 2487 0066 FFF7FEFF 		bl	SCPI_ResultArbitraryBlockData
 2488              	.LVL309:
 2489              		.loc 1 1589 28 discriminator 3 view .LVU606
 2490 006a 2D18     		adds	r5, r5, r0
 2491              	.LVL310:
 2492              		.loc 1 1589 28 discriminator 3 view .LVU607
 2493              	.LBE4:
1587:libscpi/src/parser.c ****                     uint16_t val = SCPI_Swap16(((uint16_t*) array)[i]);
 2494              		.loc 1 1587 40 is_stmt 1 discriminator 3 view .LVU608
1587:libscpi/src/parser.c ****                     uint16_t val = SCPI_Swap16(((uint16_t*) array)[i]);
 2495              		.loc 1 1587 41 is_stmt 0 discriminator 3 view .LVU609
 2496 006c 0123     		movs	r3, #1
 2497 006e 9C46     		mov	ip, r3
 2498 0070 E144     		add	r9, r9, ip
 2499              	.LVL311:
1587:libscpi/src/parser.c ****                     uint16_t val = SCPI_Swap16(((uint16_t*) array)[i]);
 2500              		.loc 1 1587 41 discriminator 3 view .LVU610
 2501 0072 EBE7     		b	.L132
 2502              	.LVL312:
 2503              	.L141:
1587:libscpi/src/parser.c ****                     uint16_t val = SCPI_Swap16(((uint16_t*) array)[i]);
 2504              		.loc 1 1587 41 discriminator 3 view .LVU611
 2505              	.LBE3:
1557:libscpi/src/parser.c ****             case 1:
 2506              		.loc 1 1557 9 is_stmt 1 view .LVU612
 2507 0074 082C     		cmp	r4, #8
 2508 0076 0DD8     		bhi	.L126
 2509 0078 0123     		movs	r3, #1
 2510 007a A340     		lsls	r3, r3, r4
 2511 007c 8B22     		movs	r2, #139
 2512 007e 5200     		lsls	r2, r2, #1
 2513 0080 1342     		tst	r3, r2
 2514 0082 07D0     		beq	.L126
1562:libscpi/src/parser.c ****             default:
 2515              		.loc 1 1562 17 view .LVU613
1562:libscpi/src/parser.c ****             default:
 2516              		.loc 1 1562 24 is_stmt 0 view .LVU614
 2517 0084 3200     		movs	r2, r6
 2518 0086 6243     		muls	r2, r4
 2519 0088 4146     		mov	r1, r8
 2520 008a 3800     		movs	r0, r7
 2521 008c FFF7FEFF 		bl	SCPI_ResultArbitraryBlock
 2522              	.LVL313:
 2523 0090 0500     		movs	r5, r0
 2524 0092 23E0     		b	.L124
 2525              	.L126:
1564:libscpi/src/parser.c ****                 return 0;
 2526              		.loc 1 1564 17 is_stmt 1 view .LVU615
 2527 0094 2249     		ldr	r1, .L142
 2528 0096 3800     		movs	r0, r7
 2529 0098 FFF7FEFF 		bl	SCPI_ErrorPush
 2530              	.LVL314:
1565:libscpi/src/parser.c ****         }
ARM GAS  /tmp/ccJs7hvj.s 			page 81


 2531              		.loc 1 1565 17 view .LVU616
1565:libscpi/src/parser.c ****         }
 2532              		.loc 1 1565 24 is_stmt 0 view .LVU617
 2533 009c 0025     		movs	r5, #0
 2534 009e 1DE0     		b	.L124
 2535              	.LVL315:
 2536              	.L130:
 2537              	.LBB7:
1582:libscpi/src/parser.c ****             case 1:
 2538              		.loc 1 1582 9 view .LVU618
 2539 00a0 082C     		cmp	r4, #8
 2540 00a2 1BD1     		bne	.L124
 2541 00a4 0023     		movs	r3, #0
 2542 00a6 9946     		mov	r9, r3
 2543              	.LVL316:
 2544              	.L134:
1590:libscpi/src/parser.c ****                 }
1591:libscpi/src/parser.c ****                 break;
1592:libscpi/src/parser.c ****             case 4:
1593:libscpi/src/parser.c ****                 for (i = 0; i < count; i++) {
1594:libscpi/src/parser.c ****                     uint32_t val = SCPI_Swap32(((uint32_t*) array)[i]);
1595:libscpi/src/parser.c ****                     result += SCPI_ResultArbitraryBlockData(context, &val, item_size);
1596:libscpi/src/parser.c ****                 }
1597:libscpi/src/parser.c ****                 break;
1598:libscpi/src/parser.c ****             case 8:
1599:libscpi/src/parser.c ****                 for (i = 0; i < count; i++) {
 2545              		.loc 1 1599 29 is_stmt 1 discriminator 1 view .LVU619
 2546              		.loc 1 1599 17 is_stmt 0 discriminator 1 view .LVU620
 2547 00a8 B145     		cmp	r9, r6
 2548 00aa 17D2     		bcs	.L124
 2549              	.LBB5:
1600:libscpi/src/parser.c ****                     uint64_t val = SCPI_Swap64(((uint64_t*) array)[i]);
 2550              		.loc 1 1600 21 is_stmt 1 discriminator 3 view .LVU621
 2551              		.loc 1 1600 67 is_stmt 0 discriminator 3 view .LVU622
 2552 00ac 4B46     		mov	r3, r9
 2553 00ae DB00     		lsls	r3, r3, #3
 2554 00b0 4344     		add	r3, r3, r8
 2555              		.loc 1 1600 36 discriminator 3 view .LVU623
 2556 00b2 1868     		ldr	r0, [r3]
 2557 00b4 5968     		ldr	r1, [r3, #4]
 2558 00b6 FFF7FEFF 		bl	SCPI_Swap64
 2559              	.LVL317:
 2560              		.loc 1 1600 30 discriminator 3 view .LVU624
 2561 00ba 0090     		str	r0, [sp]
 2562 00bc 0191     		str	r1, [sp, #4]
1601:libscpi/src/parser.c ****                     result += SCPI_ResultArbitraryBlockData(context, &val, item_size);
 2563              		.loc 1 1601 21 is_stmt 1 discriminator 3 view .LVU625
 2564              		.loc 1 1601 31 is_stmt 0 discriminator 3 view .LVU626
 2565 00be 2200     		movs	r2, r4
 2566 00c0 6946     		mov	r1, sp
 2567 00c2 3800     		movs	r0, r7
 2568 00c4 FFF7FEFF 		bl	SCPI_ResultArbitraryBlockData
 2569              	.LVL318:
 2570              		.loc 1 1601 28 discriminator 3 view .LVU627
 2571 00c8 2D18     		adds	r5, r5, r0
 2572              	.LVL319:
 2573              		.loc 1 1601 28 discriminator 3 view .LVU628
ARM GAS  /tmp/ccJs7hvj.s 			page 82


 2574              	.LBE5:
1599:libscpi/src/parser.c ****                     uint64_t val = SCPI_Swap64(((uint64_t*) array)[i]);
 2575              		.loc 1 1599 40 is_stmt 1 discriminator 3 view .LVU629
1599:libscpi/src/parser.c ****                     uint64_t val = SCPI_Swap64(((uint64_t*) array)[i]);
 2576              		.loc 1 1599 41 is_stmt 0 discriminator 3 view .LVU630
 2577 00ca 0123     		movs	r3, #1
 2578 00cc 9C46     		mov	ip, r3
 2579 00ce E144     		add	r9, r9, ip
 2580              	.LVL320:
1599:libscpi/src/parser.c ****                     uint64_t val = SCPI_Swap64(((uint64_t*) array)[i]);
 2581              		.loc 1 1599 41 discriminator 3 view .LVU631
 2582 00d0 EAE7     		b	.L134
 2583              	.LVL321:
 2584              	.L128:
1578:libscpi/src/parser.c ****                 return 0;
 2585              		.loc 1 1578 17 is_stmt 1 view .LVU632
 2586 00d2 1349     		ldr	r1, .L142
 2587 00d4 3800     		movs	r0, r7
 2588 00d6 FFF7FEFF 		bl	SCPI_ErrorPush
 2589              	.LVL322:
1579:libscpi/src/parser.c ****         }
 2590              		.loc 1 1579 17 view .LVU633
1579:libscpi/src/parser.c ****         }
 2591              		.loc 1 1579 24 is_stmt 0 view .LVU634
 2592 00da 0025     		movs	r5, #0
 2593              	.LVL323:
 2594              	.L124:
1579:libscpi/src/parser.c ****         }
 2595              		.loc 1 1579 24 view .LVU635
 2596              	.LBE7:
1602:libscpi/src/parser.c ****                 }
1603:libscpi/src/parser.c ****                 break;
1604:libscpi/src/parser.c ****         }
1605:libscpi/src/parser.c **** 
1606:libscpi/src/parser.c ****         return result;
1607:libscpi/src/parser.c ****     }
1608:libscpi/src/parser.c **** }
 2597              		.loc 1 1608 1 view .LVU636
 2598 00dc 2800     		movs	r0, r5
 2599 00de 03B0     		add	sp, sp, #12
 2600              		@ sp needed
 2601              	.LVL324:
 2602              	.LVL325:
 2603              	.LVL326:
 2604              	.LVL327:
 2605              		.loc 1 1608 1 view .LVU637
 2606 00e0 0CBC     		pop	{r2, r3}
 2607 00e2 9046     		mov	r8, r2
 2608 00e4 9946     		mov	r9, r3
 2609 00e6 F0BD     		pop	{r4, r5, r6, r7, pc}
 2610              	.LVL328:
 2611              	.L131:
 2612              	.LBB8:
1584:libscpi/src/parser.c ****                 break;
 2613              		.loc 1 1584 17 is_stmt 1 view .LVU638
1584:libscpi/src/parser.c ****                 break;
 2614              		.loc 1 1584 27 is_stmt 0 view .LVU639
ARM GAS  /tmp/ccJs7hvj.s 			page 83


 2615 00e8 3200     		movs	r2, r6
 2616 00ea 4146     		mov	r1, r8
 2617 00ec 3800     		movs	r0, r7
 2618              	.LVL329:
1584:libscpi/src/parser.c ****                 break;
 2619              		.loc 1 1584 27 view .LVU640
 2620 00ee FFF7FEFF 		bl	SCPI_ResultArbitraryBlockData
 2621              	.LVL330:
1584:libscpi/src/parser.c ****                 break;
 2622              		.loc 1 1584 24 view .LVU641
 2623 00f2 2D18     		adds	r5, r5, r0
 2624              	.LVL331:
1585:libscpi/src/parser.c ****             case 2:
 2625              		.loc 1 1585 17 is_stmt 1 view .LVU642
 2626 00f4 F2E7     		b	.L124
 2627              	.LVL332:
 2628              	.L138:
1582:libscpi/src/parser.c ****             case 1:
 2629              		.loc 1 1582 9 is_stmt 0 view .LVU643
 2630 00f6 0023     		movs	r3, #0
 2631 00f8 9946     		mov	r9, r3
 2632              	.LVL333:
 2633              	.L129:
1593:libscpi/src/parser.c ****                     uint32_t val = SCPI_Swap32(((uint32_t*) array)[i]);
 2634              		.loc 1 1593 29 is_stmt 1 discriminator 1 view .LVU644
1593:libscpi/src/parser.c ****                     uint32_t val = SCPI_Swap32(((uint32_t*) array)[i]);
 2635              		.loc 1 1593 17 is_stmt 0 discriminator 1 view .LVU645
 2636 00fa B145     		cmp	r9, r6
 2637 00fc EED2     		bcs	.L124
 2638              	.LBB6:
1594:libscpi/src/parser.c ****                     result += SCPI_ResultArbitraryBlockData(context, &val, item_size);
 2639              		.loc 1 1594 21 is_stmt 1 discriminator 3 view .LVU646
1594:libscpi/src/parser.c ****                     result += SCPI_ResultArbitraryBlockData(context, &val, item_size);
 2640              		.loc 1 1594 67 is_stmt 0 discriminator 3 view .LVU647
 2641 00fe 4B46     		mov	r3, r9
 2642 0100 9B00     		lsls	r3, r3, #2
1594:libscpi/src/parser.c ****                     result += SCPI_ResultArbitraryBlockData(context, &val, item_size);
 2643              		.loc 1 1594 36 discriminator 3 view .LVU648
 2644 0102 4246     		mov	r2, r8
 2645 0104 D058     		ldr	r0, [r2, r3]
 2646 0106 FFF7FEFF 		bl	SCPI_Swap32
 2647              	.LVL334:
1594:libscpi/src/parser.c ****                     result += SCPI_ResultArbitraryBlockData(context, &val, item_size);
 2648              		.loc 1 1594 30 discriminator 3 view .LVU649
 2649 010a 0090     		str	r0, [sp]
1595:libscpi/src/parser.c ****                 }
 2650              		.loc 1 1595 21 is_stmt 1 discriminator 3 view .LVU650
1595:libscpi/src/parser.c ****                 }
 2651              		.loc 1 1595 31 is_stmt 0 discriminator 3 view .LVU651
 2652 010c 2200     		movs	r2, r4
 2653 010e 6946     		mov	r1, sp
 2654 0110 3800     		movs	r0, r7
 2655 0112 FFF7FEFF 		bl	SCPI_ResultArbitraryBlockData
 2656              	.LVL335:
1595:libscpi/src/parser.c ****                 }
 2657              		.loc 1 1595 28 discriminator 3 view .LVU652
 2658 0116 2D18     		adds	r5, r5, r0
ARM GAS  /tmp/ccJs7hvj.s 			page 84


 2659              	.LVL336:
1595:libscpi/src/parser.c ****                 }
 2660              		.loc 1 1595 28 discriminator 3 view .LVU653
 2661              	.LBE6:
1593:libscpi/src/parser.c ****                     uint32_t val = SCPI_Swap32(((uint32_t*) array)[i]);
 2662              		.loc 1 1593 40 is_stmt 1 discriminator 3 view .LVU654
1593:libscpi/src/parser.c ****                     uint32_t val = SCPI_Swap32(((uint32_t*) array)[i]);
 2663              		.loc 1 1593 41 is_stmt 0 discriminator 3 view .LVU655
 2664 0118 0123     		movs	r3, #1
 2665 011a 9C46     		mov	ip, r3
 2666 011c E144     		add	r9, r9, ip
 2667              	.LVL337:
1593:libscpi/src/parser.c ****                     uint32_t val = SCPI_Swap32(((uint32_t*) array)[i]);
 2668              		.loc 1 1593 41 discriminator 3 view .LVU656
 2669 011e ECE7     		b	.L129
 2670              	.L143:
 2671              		.align	2
 2672              	.L142:
 2673 0120 CAFEFFFF 		.word	-310
 2674              	.LBE8:
 2675              		.cfi_endproc
 2676              	.LFE61:
 2678              		.section	.text.SCPI_ResultBool,"ax",%progbits
 2679              		.align	1
 2680              		.global	SCPI_ResultBool
 2681              		.syntax unified
 2682              		.code	16
 2683              		.thumb_func
 2684              		.fpu softvfp
 2686              	SCPI_ResultBool:
 2687              	.LVL338:
 2688              	.LFB25:
 664:libscpi/src/parser.c ****     return resultUInt32BaseSign(context, val ? 1 : 0, 10, FALSE);
 2689              		.loc 1 664 59 is_stmt 1 view -0
 2690              		.cfi_startproc
 2691              		@ args = 0, pretend = 0, frame = 0
 2692              		@ frame_needed = 0, uses_anonymous_args = 0
 664:libscpi/src/parser.c ****     return resultUInt32BaseSign(context, val ? 1 : 0, 10, FALSE);
 2693              		.loc 1 664 59 is_stmt 0 view .LVU658
 2694 0000 10B5     		push	{r4, lr}
 2695              	.LCFI40:
 2696              		.cfi_def_cfa_offset 8
 2697              		.cfi_offset 4, -8
 2698              		.cfi_offset 14, -4
 665:libscpi/src/parser.c **** }
 2699              		.loc 1 665 5 is_stmt 1 view .LVU659
 665:libscpi/src/parser.c **** }
 2700              		.loc 1 665 12 is_stmt 0 view .LVU660
 2701 0002 0023     		movs	r3, #0
 2702 0004 0A22     		movs	r2, #10
 2703 0006 FFF7FEFF 		bl	resultUInt32BaseSign
 2704              	.LVL339:
 666:libscpi/src/parser.c **** 
 2705              		.loc 1 666 1 view .LVU661
 2706              		@ sp needed
 2707 000a 10BD     		pop	{r4, pc}
 2708              		.cfi_endproc
ARM GAS  /tmp/ccJs7hvj.s 			page 85


 2709              	.LFE25:
 2711              		.section	.text.SCPI_ParamIsNumber,"ax",%progbits
 2712              		.align	1
 2713              		.global	SCPI_ParamIsNumber
 2714              		.syntax unified
 2715              		.code	16
 2716              		.thumb_func
 2717              		.fpu softvfp
 2719              	SCPI_ParamIsNumber:
 2720              	.LVL340:
 2721              	.LFB28:
 746:libscpi/src/parser.c ****     switch (parameter->type) {
 2722              		.loc 1 746 89 is_stmt 1 view -0
 2723              		.cfi_startproc
 2724              		@ args = 0, pretend = 0, frame = 0
 2725              		@ frame_needed = 0, uses_anonymous_args = 0
 2726              		@ link register save eliminated.
 747:libscpi/src/parser.c ****         case SCPI_TOKEN_HEXNUM:
 2727              		.loc 1 747 5 view .LVU663
 747:libscpi/src/parser.c ****         case SCPI_TOKEN_HEXNUM:
 2728              		.loc 1 747 22 is_stmt 0 view .LVU664
 2729 0000 0378     		ldrb	r3, [r0]
 747:libscpi/src/parser.c ****         case SCPI_TOKEN_HEXNUM:
 2730              		.loc 1 747 5 view .LVU665
 2731 0002 0A2B     		cmp	r3, #10
 2732 0004 0AD0     		beq	.L148
 2733 0006 03D9     		bls	.L151
 2734 0008 0B2B     		cmp	r3, #11
 2735 000a 0BD1     		bne	.L150
 754:libscpi/src/parser.c ****         default:
 2736              		.loc 1 754 20 view .LVU666
 2737 000c 0800     		movs	r0, r1
 2738              	.LVL341:
 2739              	.L146:
 758:libscpi/src/parser.c **** 
 2740              		.loc 1 758 1 view .LVU667
 2741              		@ sp needed
 2742 000e 7047     		bx	lr
 2743              	.LVL342:
 2744              	.L151:
 747:libscpi/src/parser.c ****         case SCPI_TOKEN_HEXNUM:
 2745              		.loc 1 747 5 view .LVU668
 2746 0010 063B     		subs	r3, r3, #6
 2747 0012 DBB2     		uxtb	r3, r3
 2748 0014 022B     		cmp	r3, #2
 2749 0016 03D9     		bls	.L149
 756:libscpi/src/parser.c ****     }
 2750              		.loc 1 756 20 view .LVU669
 2751 0018 0020     		movs	r0, #0
 2752              	.LVL343:
 756:libscpi/src/parser.c ****     }
 2753              		.loc 1 756 20 view .LVU670
 2754 001a F8E7     		b	.L146
 2755              	.LVL344:
 2756              	.L148:
 747:libscpi/src/parser.c ****         case SCPI_TOKEN_HEXNUM:
 2757              		.loc 1 747 5 view .LVU671
ARM GAS  /tmp/ccJs7hvj.s 			page 86


 2758 001c 0120     		movs	r0, #1
 2759              	.LVL345:
 747:libscpi/src/parser.c ****         case SCPI_TOKEN_HEXNUM:
 2760              		.loc 1 747 5 view .LVU672
 2761 001e F6E7     		b	.L146
 2762              	.LVL346:
 2763              	.L149:
 747:libscpi/src/parser.c ****         case SCPI_TOKEN_HEXNUM:
 2764              		.loc 1 747 5 view .LVU673
 2765 0020 0120     		movs	r0, #1
 2766              	.LVL347:
 747:libscpi/src/parser.c ****         case SCPI_TOKEN_HEXNUM:
 2767              		.loc 1 747 5 view .LVU674
 2768 0022 F4E7     		b	.L146
 2769              	.LVL348:
 2770              	.L150:
 756:libscpi/src/parser.c ****     }
 2771              		.loc 1 756 20 view .LVU675
 2772 0024 0020     		movs	r0, #0
 2773              	.LVL349:
 756:libscpi/src/parser.c ****     }
 2774              		.loc 1 756 20 view .LVU676
 2775 0026 F2E7     		b	.L146
 2776              		.cfi_endproc
 2777              	.LFE28:
 2779              		.section	.text.SCPI_ParamToInt32,"ax",%progbits
 2780              		.align	1
 2781              		.global	SCPI_ParamToInt32
 2782              		.syntax unified
 2783              		.code	16
 2784              		.thumb_func
 2785              		.fpu softvfp
 2787              	SCPI_ParamToInt32:
 2788              	.LVL350:
 2789              	.LFB31:
 835:libscpi/src/parser.c ****     return ParamSignToUInt32(context, parameter, (uint32_t *) value, TRUE);
 2790              		.loc 1 835 96 is_stmt 1 view -0
 2791              		.cfi_startproc
 2792              		@ args = 0, pretend = 0, frame = 0
 2793              		@ frame_needed = 0, uses_anonymous_args = 0
 835:libscpi/src/parser.c ****     return ParamSignToUInt32(context, parameter, (uint32_t *) value, TRUE);
 2794              		.loc 1 835 96 is_stmt 0 view .LVU678
 2795 0000 10B5     		push	{r4, lr}
 2796              	.LCFI41:
 2797              		.cfi_def_cfa_offset 8
 2798              		.cfi_offset 4, -8
 2799              		.cfi_offset 14, -4
 836:libscpi/src/parser.c **** }
 2800              		.loc 1 836 5 is_stmt 1 view .LVU679
 836:libscpi/src/parser.c **** }
 2801              		.loc 1 836 12 is_stmt 0 view .LVU680
 2802 0002 0123     		movs	r3, #1
 2803 0004 FFF7FEFF 		bl	ParamSignToUInt32
 2804              	.LVL351:
 837:libscpi/src/parser.c **** 
 2805              		.loc 1 837 1 view .LVU681
 2806              		@ sp needed
ARM GAS  /tmp/ccJs7hvj.s 			page 87


 2807 0008 10BD     		pop	{r4, pc}
 2808              		.cfi_endproc
 2809              	.LFE31:
 2811              		.section	.text.SCPI_ParamToUInt32,"ax",%progbits
 2812              		.align	1
 2813              		.global	SCPI_ParamToUInt32
 2814              		.syntax unified
 2815              		.code	16
 2816              		.thumb_func
 2817              		.fpu softvfp
 2819              	SCPI_ParamToUInt32:
 2820              	.LVL352:
 2821              	.LFB32:
 846:libscpi/src/parser.c ****     return ParamSignToUInt32(context, parameter, value, FALSE);
 2822              		.loc 1 846 98 is_stmt 1 view -0
 2823              		.cfi_startproc
 2824              		@ args = 0, pretend = 0, frame = 0
 2825              		@ frame_needed = 0, uses_anonymous_args = 0
 846:libscpi/src/parser.c ****     return ParamSignToUInt32(context, parameter, value, FALSE);
 2826              		.loc 1 846 98 is_stmt 0 view .LVU683
 2827 0000 10B5     		push	{r4, lr}
 2828              	.LCFI42:
 2829              		.cfi_def_cfa_offset 8
 2830              		.cfi_offset 4, -8
 2831              		.cfi_offset 14, -4
 847:libscpi/src/parser.c **** }
 2832              		.loc 1 847 5 is_stmt 1 view .LVU684
 847:libscpi/src/parser.c **** }
 2833              		.loc 1 847 12 is_stmt 0 view .LVU685
 2834 0002 0023     		movs	r3, #0
 2835 0004 FFF7FEFF 		bl	ParamSignToUInt32
 2836              	.LVL353:
 848:libscpi/src/parser.c **** 
 2837              		.loc 1 848 1 view .LVU686
 2838              		@ sp needed
 2839 0008 10BD     		pop	{r4, pc}
 2840              		.cfi_endproc
 2841              	.LFE32:
 2843              		.section	.text.SCPI_ParamToInt64,"ax",%progbits
 2844              		.align	1
 2845              		.global	SCPI_ParamToInt64
 2846              		.syntax unified
 2847              		.code	16
 2848              		.thumb_func
 2849              		.fpu softvfp
 2851              	SCPI_ParamToInt64:
 2852              	.LVL354:
 2853              	.LFB33:
 857:libscpi/src/parser.c ****     return ParamSignToUInt64(context, parameter, (uint64_t *) value, TRUE);
 2854              		.loc 1 857 96 is_stmt 1 view -0
 2855              		.cfi_startproc
 2856              		@ args = 0, pretend = 0, frame = 0
 2857              		@ frame_needed = 0, uses_anonymous_args = 0
 857:libscpi/src/parser.c ****     return ParamSignToUInt64(context, parameter, (uint64_t *) value, TRUE);
 2858              		.loc 1 857 96 is_stmt 0 view .LVU688
 2859 0000 10B5     		push	{r4, lr}
 2860              	.LCFI43:
ARM GAS  /tmp/ccJs7hvj.s 			page 88


 2861              		.cfi_def_cfa_offset 8
 2862              		.cfi_offset 4, -8
 2863              		.cfi_offset 14, -4
 858:libscpi/src/parser.c **** }
 2864              		.loc 1 858 5 is_stmt 1 view .LVU689
 858:libscpi/src/parser.c **** }
 2865              		.loc 1 858 12 is_stmt 0 view .LVU690
 2866 0002 0123     		movs	r3, #1
 2867 0004 FFF7FEFF 		bl	ParamSignToUInt64
 2868              	.LVL355:
 859:libscpi/src/parser.c **** 
 2869              		.loc 1 859 1 view .LVU691
 2870              		@ sp needed
 2871 0008 10BD     		pop	{r4, pc}
 2872              		.cfi_endproc
 2873              	.LFE33:
 2875              		.section	.text.SCPI_ParamToUInt64,"ax",%progbits
 2876              		.align	1
 2877              		.global	SCPI_ParamToUInt64
 2878              		.syntax unified
 2879              		.code	16
 2880              		.thumb_func
 2881              		.fpu softvfp
 2883              	SCPI_ParamToUInt64:
 2884              	.LVL356:
 2885              	.LFB34:
 868:libscpi/src/parser.c ****     return ParamSignToUInt64(context, parameter, value, FALSE);
 2886              		.loc 1 868 98 is_stmt 1 view -0
 2887              		.cfi_startproc
 2888              		@ args = 0, pretend = 0, frame = 0
 2889              		@ frame_needed = 0, uses_anonymous_args = 0
 868:libscpi/src/parser.c ****     return ParamSignToUInt64(context, parameter, value, FALSE);
 2890              		.loc 1 868 98 is_stmt 0 view .LVU693
 2891 0000 10B5     		push	{r4, lr}
 2892              	.LCFI44:
 2893              		.cfi_def_cfa_offset 8
 2894              		.cfi_offset 4, -8
 2895              		.cfi_offset 14, -4
 869:libscpi/src/parser.c **** }
 2896              		.loc 1 869 5 is_stmt 1 view .LVU694
 869:libscpi/src/parser.c **** }
 2897              		.loc 1 869 12 is_stmt 0 view .LVU695
 2898 0002 0023     		movs	r3, #0
 2899 0004 FFF7FEFF 		bl	ParamSignToUInt64
 2900              	.LVL357:
 870:libscpi/src/parser.c **** 
 2901              		.loc 1 870 1 view .LVU696
 2902              		@ sp needed
 2903 0008 10BD     		pop	{r4, pc}
 2904              		.cfi_endproc
 2905              	.LFE34:
 2907              		.global	__aeabi_ui2f
 2908              		.section	.text.SCPI_ParamToFloat,"ax",%progbits
 2909              		.align	1
 2910              		.global	SCPI_ParamToFloat
 2911              		.syntax unified
 2912              		.code	16
ARM GAS  /tmp/ccJs7hvj.s 			page 89


 2913              		.thumb_func
 2914              		.fpu softvfp
 2916              	SCPI_ParamToFloat:
 2917              	.LVL358:
 2918              	.LFB35:
 879:libscpi/src/parser.c ****     scpi_bool_t result;
 2919              		.loc 1 879 94 is_stmt 1 view -0
 2920              		.cfi_startproc
 2921              		@ args = 0, pretend = 0, frame = 8
 2922              		@ frame_needed = 0, uses_anonymous_args = 0
 879:libscpi/src/parser.c ****     scpi_bool_t result;
 2923              		.loc 1 879 94 is_stmt 0 view .LVU698
 2924 0000 30B5     		push	{r4, r5, lr}
 2925              	.LCFI45:
 2926              		.cfi_def_cfa_offset 12
 2927              		.cfi_offset 4, -12
 2928              		.cfi_offset 5, -8
 2929              		.cfi_offset 14, -4
 2930 0002 83B0     		sub	sp, sp, #12
 2931              	.LCFI46:
 2932              		.cfi_def_cfa_offset 24
 2933 0004 141E     		subs	r4, r2, #0
 880:libscpi/src/parser.c ****     uint32_t valint;
 2934              		.loc 1 880 5 is_stmt 1 view .LVU699
 881:libscpi/src/parser.c **** 
 2935              		.loc 1 881 5 view .LVU700
 883:libscpi/src/parser.c ****         SCPI_ErrorPush(context, SCPI_ERROR_SYSTEM_ERROR);
 2936              		.loc 1 883 5 view .LVU701
 883:libscpi/src/parser.c ****         SCPI_ErrorPush(context, SCPI_ERROR_SYSTEM_ERROR);
 2937              		.loc 1 883 8 is_stmt 0 view .LVU702
 2938 0006 0ED0     		beq	.L164
 888:libscpi/src/parser.c ****         case SCPI_TOKEN_HEXNUM:
 2939              		.loc 1 888 5 is_stmt 1 view .LVU703
 888:libscpi/src/parser.c ****         case SCPI_TOKEN_HEXNUM:
 2940              		.loc 1 888 22 is_stmt 0 view .LVU704
 2941 0008 0B78     		ldrb	r3, [r1]
 888:libscpi/src/parser.c ****         case SCPI_TOKEN_HEXNUM:
 2942              		.loc 1 888 5 view .LVU705
 2943 000a 082B     		cmp	r3, #8
 2944 000c 10D9     		bls	.L165
 2945 000e 0A3B     		subs	r3, r3, #10
 2946 0010 DBB2     		uxtb	r3, r3
 2947 0012 012B     		cmp	r3, #1
 2948 0014 1BD8     		bhi	.L166
 897:libscpi/src/parser.c ****             break;
 2949              		.loc 1 897 13 is_stmt 1 view .LVU706
 897:libscpi/src/parser.c ****             break;
 2950              		.loc 1 897 42 is_stmt 0 view .LVU707
 2951 0016 4868     		ldr	r0, [r1, #4]
 2952              	.LVL359:
 897:libscpi/src/parser.c ****             break;
 2953              		.loc 1 897 22 view .LVU708
 2954 0018 1100     		movs	r1, r2
 2955              	.LVL360:
 897:libscpi/src/parser.c ****             break;
 2956              		.loc 1 897 22 view .LVU709
 2957 001a FFF7FEFF 		bl	strToFloat
ARM GAS  /tmp/ccJs7hvj.s 			page 90


 2958              	.LVL361:
 897:libscpi/src/parser.c ****             break;
 2959              		.loc 1 897 20 view .LVU710
 2960 001e 451E     		subs	r5, r0, #1
 2961 0020 A841     		sbcs	r0, r0, r5
 2962 0022 C5B2     		uxtb	r5, r0
 2963              	.LVL362:
 898:libscpi/src/parser.c ****         default:
 2964              		.loc 1 898 13 is_stmt 1 view .LVU711
 2965 0024 07E0     		b	.L158
 2966              	.LVL363:
 2967              	.L164:
 884:libscpi/src/parser.c ****         return FALSE;
 2968              		.loc 1 884 9 view .LVU712
 2969 0026 0B49     		ldr	r1, .L167
 2970              	.LVL364:
 884:libscpi/src/parser.c ****         return FALSE;
 2971              		.loc 1 884 9 is_stmt 0 view .LVU713
 2972 0028 FFF7FEFF 		bl	SCPI_ErrorPush
 2973              	.LVL365:
 885:libscpi/src/parser.c ****     }
 2974              		.loc 1 885 9 is_stmt 1 view .LVU714
 885:libscpi/src/parser.c ****     }
 2975              		.loc 1 885 16 is_stmt 0 view .LVU715
 2976 002c 0025     		movs	r5, #0
 2977 002e 02E0     		b	.L158
 2978              	.LVL366:
 2979              	.L165:
 888:libscpi/src/parser.c ****         case SCPI_TOKEN_HEXNUM:
 2980              		.loc 1 888 5 view .LVU716
 2981 0030 062B     		cmp	r3, #6
 2982 0032 03D2     		bcs	.L160
 2983 0034 0025     		movs	r5, #0
 2984              	.LVL367:
 2985              	.L158:
 903:libscpi/src/parser.c **** 
 2986              		.loc 1 903 1 view .LVU717
 2987 0036 2800     		movs	r0, r5
 2988 0038 03B0     		add	sp, sp, #12
 2989              		@ sp needed
 2990              	.LVL368:
