ARM GAS  /tmp/ccJs7hvj.s 			page 1


   1              		.cpu cortex-m0
   2              		.eabi_attribute 20, 1
   3              		.eabi_attribute 21, 1
   4              		.eabi_attribute 23, 3
   5              		.eabi_attribute 24, 1
   6              		.eabi_attribute 25, 1
   7              		.eabi_attribute 26, 1
   8              		.eabi_attribute 30, 1
   9              		.eabi_attribute 34, 0
  10              		.eabi_attribute 18, 4
  11              		.file	"parser.c"
  12              		.text
  13              	.Ltext0:
  14              		.cfi_sections	.debug_frame
  15              		.section	.text.writeData,"ax",%progbits
  16              		.align	1
  17              		.arch armv6s-m
  18              		.syntax unified
  19              		.code	16
  20              		.thumb_func
  21              		.fpu softvfp
  23              	writeData:
  24              	.LVL0:
  25              	.LFB0:
  26              		.file 1 "libscpi/src/parser.c"
   1:libscpi/src/parser.c **** /*-
   2:libscpi/src/parser.c ****  * BSD 2-Clause License
   3:libscpi/src/parser.c ****  *
   4:libscpi/src/parser.c ****  * Copyright (c) 2012-2018, Jan Breuer
   5:libscpi/src/parser.c ****  * All rights reserved.
   6:libscpi/src/parser.c ****  *
   7:libscpi/src/parser.c ****  * Redistribution and use in source and binary forms, with or without
   8:libscpi/src/parser.c ****  * modification, are permitted provided that the following conditions are met:
   9:libscpi/src/parser.c ****  *
  10:libscpi/src/parser.c ****  * * Redistributions of source code must retain the above copyright notice, this
  11:libscpi/src/parser.c ****  *   list of conditions and the following disclaimer.
  12:libscpi/src/parser.c ****  *
  13:libscpi/src/parser.c ****  * * Redistributions in binary form must reproduce the above copyright notice,
  14:libscpi/src/parser.c ****  *   this list of conditions and the following disclaimer in the documentation
  15:libscpi/src/parser.c ****  *   and/or other materials provided with the distribution.
  16:libscpi/src/parser.c ****  *
  17:libscpi/src/parser.c ****  * THIS SOFTWARE IS PROVIDED BY THE COPYRIGHT HOLDERS AND CONTRIBUTORS "AS IS"
  18:libscpi/src/parser.c ****  * AND ANY EXPRESS OR IMPLIED WARRANTIES, INCLUDING, BUT NOT LIMITED TO, THE
  19:libscpi/src/parser.c ****  * IMPLIED WARRANTIES OF MERCHANTABILITY AND FITNESS FOR A PARTICULAR PURPOSE ARE
  20:libscpi/src/parser.c ****  * DISCLAIMED. IN NO EVENT SHALL THE COPYRIGHT HOLDER OR CONTRIBUTORS BE LIABLE
  21:libscpi/src/parser.c ****  * FOR ANY DIRECT, INDIRECT, INCIDENTAL, SPECIAL, EXEMPLARY, OR CONSEQUENTIAL
  22:libscpi/src/parser.c ****  * DAMAGES (INCLUDING, BUT NOT LIMITED TO, PROCUREMENT OF SUBSTITUTE GOODS OR
  23:libscpi/src/parser.c ****  * SERVICES; LOSS OF USE, DATA, OR PROFITS; OR BUSINESS INTERRUPTION) HOWEVER
  24:libscpi/src/parser.c ****  * CAUSED AND ON ANY THEORY OF LIABILITY, WHETHER IN CONTRACT, STRICT LIABILITY,
  25:libscpi/src/parser.c ****  * OR TORT (INCLUDING NEGLIGENCE OR OTHERWISE) ARISING IN ANY WAY OUT OF THE USE
  26:libscpi/src/parser.c ****  * OF THIS SOFTWARE, EVEN IF ADVISED OF THE POSSIBILITY OF SUCH DAMAGE.
  27:libscpi/src/parser.c ****  */
  28:libscpi/src/parser.c **** 
  29:libscpi/src/parser.c **** /**
  30:libscpi/src/parser.c ****  * @file   scpi_parser.c
  31:libscpi/src/parser.c ****  * @date   Thu Nov 15 10:58:45 UTC 2012
  32:libscpi/src/parser.c ****  *
ARM GAS  /tmp/ccJs7hvj.s 			page 2


  33:libscpi/src/parser.c ****  * @brief  SCPI parser implementation
  34:libscpi/src/parser.c ****  *
  35:libscpi/src/parser.c ****  *
  36:libscpi/src/parser.c ****  */
  37:libscpi/src/parser.c **** 
  38:libscpi/src/parser.c **** #include <ctype.h>
  39:libscpi/src/parser.c **** #include <string.h>
  40:libscpi/src/parser.c **** 
  41:libscpi/src/parser.c **** #include "scpi/config.h"
  42:libscpi/src/parser.c **** #include "scpi/parser.h"
  43:libscpi/src/parser.c **** #include "parser_private.h"
  44:libscpi/src/parser.c **** #include "lexer_private.h"
  45:libscpi/src/parser.c **** #include "scpi/error.h"
  46:libscpi/src/parser.c **** #include "scpi/constants.h"
  47:libscpi/src/parser.c **** #include "scpi/utils.h"
  48:libscpi/src/parser.c **** 
  49:libscpi/src/parser.c **** /**
  50:libscpi/src/parser.c ****  * Write data to SCPI output
  51:libscpi/src/parser.c ****  * @param context
  52:libscpi/src/parser.c ****  * @param data
  53:libscpi/src/parser.c ****  * @param len - lenght of data to be written
  54:libscpi/src/parser.c ****  * @return number of bytes written
  55:libscpi/src/parser.c ****  */
  56:libscpi/src/parser.c **** static size_t writeData(scpi_t * context, const char * data, size_t len) {
  27              		.loc 1 56 74 view -0
  28              		.cfi_startproc
  29              		@ args = 0, pretend = 0, frame = 0
  30              		@ frame_needed = 0, uses_anonymous_args = 0
  31              		.loc 1 56 74 is_stmt 0 view .LVU1
  32 0000 10B5     		push	{r4, lr}
  33              	.LCFI0:
  34              		.cfi_def_cfa_offset 8
  35              		.cfi_offset 4, -8
  36              		.cfi_offset 14, -4
  57:libscpi/src/parser.c ****     if (len > 0) {
  37              		.loc 1 57 5 is_stmt 1 view .LVU2
  38              		.loc 1 57 8 is_stmt 0 view .LVU3
  39 0002 002A     		cmp	r2, #0
  40 0004 03D0     		beq	.L2
  58:libscpi/src/parser.c ****         return context->interface->write(context, data, len);
  41              		.loc 1 58 9 is_stmt 1 view .LVU4
  42              		.loc 1 58 23 is_stmt 0 view .LVU5
  43 0006 C36A     		ldr	r3, [r0, #44]
  44              		.loc 1 58 34 view .LVU6
  45 0008 5B68     		ldr	r3, [r3, #4]
  46              		.loc 1 58 16 view .LVU7
  47 000a 9847     		blx	r3
  48              	.LVL1:
  49              		.loc 1 58 16 view .LVU8
  50 000c 0200     		movs	r2, r0
  51              	.L2:
  59:libscpi/src/parser.c ****     } else {
  60:libscpi/src/parser.c ****         return 0;
  61:libscpi/src/parser.c ****     }
  62:libscpi/src/parser.c **** }
  52              		.loc 1 62 1 view .LVU9
  53 000e 1000     		movs	r0, r2
ARM GAS  /tmp/ccJs7hvj.s 			page 3


  54              		@ sp needed
  55 0010 10BD     		pop	{r4, pc}
  56              		.cfi_endproc
  57              	.LFE0:
  59              		.section	.text.flushData,"ax",%progbits
  60              		.align	1
  61              		.syntax unified
  62              		.code	16
  63              		.thumb_func
  64              		.fpu softvfp
  66              	flushData:
  67              	.LVL2:
  68              	.LFB1:
  63:libscpi/src/parser.c **** 
  64:libscpi/src/parser.c **** /**
  65:libscpi/src/parser.c ****  * Flush data to SCPI output
  66:libscpi/src/parser.c ****  * @param context
  67:libscpi/src/parser.c ****  * @return
  68:libscpi/src/parser.c ****  */
  69:libscpi/src/parser.c **** static int flushData(scpi_t * context) {
  69              		.loc 1 69 40 is_stmt 1 view -0
  70              		.cfi_startproc
  71              		@ args = 0, pretend = 0, frame = 0
  72              		@ frame_needed = 0, uses_anonymous_args = 0
  73              		.loc 1 69 40 is_stmt 0 view .LVU11
  74 0000 10B5     		push	{r4, lr}
  75              	.LCFI1:
  76              		.cfi_def_cfa_offset 8
  77              		.cfi_offset 4, -8
  78              		.cfi_offset 14, -4
  70:libscpi/src/parser.c ****     if (context && context->interface && context->interface->flush) {
  79              		.loc 1 70 5 is_stmt 1 view .LVU12
  80              		.loc 1 70 8 is_stmt 0 view .LVU13
  81 0002 0028     		cmp	r0, #0
  82 0004 07D0     		beq	.L5
  83              		.loc 1 70 27 discriminator 1 view .LVU14
  84 0006 C36A     		ldr	r3, [r0, #44]
  85              		.loc 1 70 17 discriminator 1 view .LVU15
  86 0008 002B     		cmp	r3, #0
  87 000a 06D0     		beq	.L6
  88              		.loc 1 70 60 discriminator 2 view .LVU16
  89 000c DB68     		ldr	r3, [r3, #12]
  90              		.loc 1 70 39 discriminator 2 view .LVU17
  91 000e 002B     		cmp	r3, #0
  92 0010 05D0     		beq	.L7
  71:libscpi/src/parser.c ****         return context->interface->flush(context);
  93              		.loc 1 71 9 is_stmt 1 view .LVU18
  94              		.loc 1 71 16 is_stmt 0 view .LVU19
  95 0012 9847     		blx	r3
  96              	.LVL3:
  97              	.L3:
  72:libscpi/src/parser.c ****     } else {
  73:libscpi/src/parser.c ****         return SCPI_RES_OK;
  74:libscpi/src/parser.c ****     }
  75:libscpi/src/parser.c **** }
  98              		.loc 1 75 1 view .LVU20
  99              		@ sp needed
ARM GAS  /tmp/ccJs7hvj.s 			page 4


 100 0014 10BD     		pop	{r4, pc}
 101              	.LVL4:
 102              	.L5:
  73:libscpi/src/parser.c ****     }
 103              		.loc 1 73 16 view .LVU21
 104 0016 0120     		movs	r0, #1
 105              	.LVL5:
  73:libscpi/src/parser.c ****     }
 106              		.loc 1 73 16 view .LVU22
 107 0018 FCE7     		b	.L3
 108              	.LVL6:
 109              	.L6:
  73:libscpi/src/parser.c ****     }
 110              		.loc 1 73 16 view .LVU23
 111 001a 0120     		movs	r0, #1
 112              	.LVL7:
  73:libscpi/src/parser.c ****     }
 113              		.loc 1 73 16 view .LVU24
 114 001c FAE7     		b	.L3
 115              	.LVL8:
 116              	.L7:
  73:libscpi/src/parser.c ****     }
 117              		.loc 1 73 16 view .LVU25
 118 001e 0120     		movs	r0, #1
 119              	.LVL9:
  73:libscpi/src/parser.c ****     }
 120              		.loc 1 73 16 view .LVU26
 121 0020 F8E7     		b	.L3
 122              		.cfi_endproc
 123              	.LFE1:
 125              		.section	.rodata.writeDelimiter.str1.4,"aMS",%progbits,1
 126              		.align	2
 127              	.LC0:
 128 0000 2C00     		.ascii	",\000"
 129              		.section	.text.writeDelimiter,"ax",%progbits
 130              		.align	1
 131              		.syntax unified
 132              		.code	16
 133              		.thumb_func
 134              		.fpu softvfp
 136              	writeDelimiter:
 137              	.LVL10:
 138              	.LFB2:
  76:libscpi/src/parser.c **** 
  77:libscpi/src/parser.c **** /**
  78:libscpi/src/parser.c ****  * Write result delimiter to output
  79:libscpi/src/parser.c ****  * @param context
  80:libscpi/src/parser.c ****  * @return number of bytes written
  81:libscpi/src/parser.c ****  */
  82:libscpi/src/parser.c **** static size_t writeDelimiter(scpi_t * context) {
 139              		.loc 1 82 48 is_stmt 1 view -0
 140              		.cfi_startproc
 141              		@ args = 0, pretend = 0, frame = 0
 142              		@ frame_needed = 0, uses_anonymous_args = 0
 143              		.loc 1 82 48 is_stmt 0 view .LVU28
 144 0000 10B5     		push	{r4, lr}
 145              	.LCFI2:
ARM GAS  /tmp/ccJs7hvj.s 			page 5


 146              		.cfi_def_cfa_offset 8
 147              		.cfi_offset 4, -8
 148              		.cfi_offset 14, -4
  83:libscpi/src/parser.c ****     if (context->output_count > 0) {
 149              		.loc 1 83 5 is_stmt 1 view .LVU29
 150              		.loc 1 83 8 is_stmt 0 view .LVU30
 151 0002 036B     		ldr	r3, [r0, #48]
 152 0004 002B     		cmp	r3, #0
 153 0006 01DC     		bgt	.L11
  84:libscpi/src/parser.c ****         return writeData(context, ",", 1);
  85:libscpi/src/parser.c ****     } else {
  86:libscpi/src/parser.c ****         return 0;
 154              		.loc 1 86 16 view .LVU31
 155 0008 0020     		movs	r0, #0
 156              	.LVL11:
 157              	.L8:
  87:libscpi/src/parser.c ****     }
  88:libscpi/src/parser.c **** }
 158              		.loc 1 88 1 view .LVU32
 159              		@ sp needed
 160 000a 10BD     		pop	{r4, pc}
 161              	.LVL12:
 162              	.L11:
  84:libscpi/src/parser.c ****         return writeData(context, ",", 1);
 163              		.loc 1 84 9 is_stmt 1 view .LVU33
  84:libscpi/src/parser.c ****         return writeData(context, ",", 1);
 164              		.loc 1 84 16 is_stmt 0 view .LVU34
 165 000c 0122     		movs	r2, #1
 166 000e 0249     		ldr	r1, .L12
 167 0010 FFF7FEFF 		bl	writeData
 168              	.LVL13:
  84:libscpi/src/parser.c ****         return writeData(context, ",", 1);
 169              		.loc 1 84 16 view .LVU35
 170 0014 F9E7     		b	.L8
 171              	.L13:
 172 0016 C046     		.align	2
 173              	.L12:
 174 0018 00000000 		.word	.LC0
 175              		.cfi_endproc
 176              	.LFE2:
 178              		.section	.rodata.writeNewLine.str1.4,"aMS",%progbits,1
 179              		.align	2
 180              	.LC2:
 181 0000 0D0A00   		.ascii	"\015\012\000"
 182              		.section	.text.writeNewLine,"ax",%progbits
 183              		.align	1
 184              		.syntax unified
 185              		.code	16
 186              		.thumb_func
 187              		.fpu softvfp
 189              	writeNewLine:
 190              	.LVL14:
 191              	.LFB3:
  89:libscpi/src/parser.c **** 
  90:libscpi/src/parser.c **** /**
  91:libscpi/src/parser.c ****  * Conditionaly write "New Line"
  92:libscpi/src/parser.c ****  * @param context
ARM GAS  /tmp/ccJs7hvj.s 			page 6


  93:libscpi/src/parser.c ****  * @return number of characters written
  94:libscpi/src/parser.c ****  */
  95:libscpi/src/parser.c **** static size_t writeNewLine(scpi_t * context) {
 192              		.loc 1 95 46 is_stmt 1 view -0
 193              		.cfi_startproc
 194              		@ args = 0, pretend = 0, frame = 0
 195              		@ frame_needed = 0, uses_anonymous_args = 0
 196              		.loc 1 95 46 is_stmt 0 view .LVU37
 197 0000 70B5     		push	{r4, r5, r6, lr}
 198              	.LCFI3:
 199              		.cfi_def_cfa_offset 16
 200              		.cfi_offset 4, -16
 201              		.cfi_offset 5, -12
 202              		.cfi_offset 6, -8
 203              		.cfi_offset 14, -4
 204 0002 0400     		movs	r4, r0
  96:libscpi/src/parser.c ****     if (context->output_count > 0) {
 205              		.loc 1 96 5 is_stmt 1 view .LVU38
 206              		.loc 1 96 8 is_stmt 0 view .LVU39
 207 0004 036B     		ldr	r3, [r0, #48]
 208 0006 002B     		cmp	r3, #0
 209 0008 02DC     		bgt	.L17
  97:libscpi/src/parser.c ****         size_t len;
  98:libscpi/src/parser.c **** #ifndef SCPI_LINE_ENDING
  99:libscpi/src/parser.c **** #error no termination character defined
 100:libscpi/src/parser.c **** #endif
 101:libscpi/src/parser.c ****         len = writeData(context, SCPI_LINE_ENDING, strlen(SCPI_LINE_ENDING));
 102:libscpi/src/parser.c ****         flushData(context);
 103:libscpi/src/parser.c ****         return len;
 104:libscpi/src/parser.c ****     } else {
 105:libscpi/src/parser.c ****         return 0;
 210              		.loc 1 105 16 view .LVU40
 211 000a 0025     		movs	r5, #0
 212              	.LVL15:
 213              	.L14:
 106:libscpi/src/parser.c ****     }
 107:libscpi/src/parser.c **** }
 214              		.loc 1 107 1 view .LVU41
 215 000c 2800     		movs	r0, r5
 216              		@ sp needed
 217              	.LVL16:
 218              		.loc 1 107 1 view .LVU42
 219 000e 70BD     		pop	{r4, r5, r6, pc}
 220              	.LVL17:
 221              	.L17:
 222              	.LBB2:
  97:libscpi/src/parser.c ****         size_t len;
 223              		.loc 1 97 9 is_stmt 1 view .LVU43
 101:libscpi/src/parser.c ****         flushData(context);
 224              		.loc 1 101 9 view .LVU44
 101:libscpi/src/parser.c ****         flushData(context);
 225              		.loc 1 101 15 is_stmt 0 view .LVU45
 226 0010 0222     		movs	r2, #2
 227 0012 0449     		ldr	r1, .L18
 228 0014 FFF7FEFF 		bl	writeData
 229              	.LVL18:
 101:libscpi/src/parser.c ****         flushData(context);
ARM GAS  /tmp/ccJs7hvj.s 			page 7


 230              		.loc 1 101 15 view .LVU46
 231 0018 0500     		movs	r5, r0
 232              	.LVL19:
 102:libscpi/src/parser.c ****         return len;
 233              		.loc 1 102 9 is_stmt 1 view .LVU47
 234 001a 2000     		movs	r0, r4
 235              	.LVL20:
 102:libscpi/src/parser.c ****         return len;
 236              		.loc 1 102 9 is_stmt 0 view .LVU48
 237 001c FFF7FEFF 		bl	flushData
 238              	.LVL21:
 103:libscpi/src/parser.c ****     } else {
 239              		.loc 1 103 9 is_stmt 1 view .LVU49
 103:libscpi/src/parser.c ****     } else {
 240              		.loc 1 103 16 is_stmt 0 view .LVU50
 241 0020 F4E7     		b	.L14
 242              	.L19:
 243 0022 C046     		.align	2
 244              	.L18:
 245 0024 00000000 		.word	.LC2
 246              	.LBE2:
 247              		.cfi_endproc
 248              	.LFE3:
 250              		.section	.rodata.writeSemicolon.str1.4,"aMS",%progbits,1
 251              		.align	2
 252              	.LC4:
 253 0000 3B00     		.ascii	";\000"
 254              		.section	.text.writeSemicolon,"ax",%progbits
 255              		.align	1
 256              		.syntax unified
 257              		.code	16
 258              		.thumb_func
 259              		.fpu softvfp
 261              	writeSemicolon:
 262              	.LVL22:
 263              	.LFB4:
 108:libscpi/src/parser.c **** 
 109:libscpi/src/parser.c **** /**
 110:libscpi/src/parser.c ****  * Conditionaly write ";"
 111:libscpi/src/parser.c ****  * @param context
 112:libscpi/src/parser.c ****  * @return number of characters written
 113:libscpi/src/parser.c ****  */
 114:libscpi/src/parser.c **** static size_t writeSemicolon(scpi_t * context) {
 264              		.loc 1 114 48 is_stmt 1 view -0
 265              		.cfi_startproc
 266              		@ args = 0, pretend = 0, frame = 0
 267              		@ frame_needed = 0, uses_anonymous_args = 0
 268              		.loc 1 114 48 is_stmt 0 view .LVU52
 269 0000 10B5     		push	{r4, lr}
 270              	.LCFI4:
 271              		.cfi_def_cfa_offset 8
 272              		.cfi_offset 4, -8
 273              		.cfi_offset 14, -4
 115:libscpi/src/parser.c ****     if (context->output_count > 0) {
 274              		.loc 1 115 5 is_stmt 1 view .LVU53
 275              		.loc 1 115 8 is_stmt 0 view .LVU54
 276 0002 036B     		ldr	r3, [r0, #48]
ARM GAS  /tmp/ccJs7hvj.s 			page 8


 277 0004 002B     		cmp	r3, #0
 278 0006 01DC     		bgt	.L23
 116:libscpi/src/parser.c ****         return writeData(context, ";", 1);
 117:libscpi/src/parser.c ****     } else {
 118:libscpi/src/parser.c ****         return 0;
 279              		.loc 1 118 16 view .LVU55
 280 0008 0020     		movs	r0, #0
 281              	.LVL23:
 282              	.L20:
 119:libscpi/src/parser.c ****     }
 120:libscpi/src/parser.c **** }
 283              		.loc 1 120 1 view .LVU56
 284              		@ sp needed
 285 000a 10BD     		pop	{r4, pc}
 286              	.LVL24:
 287              	.L23:
 116:libscpi/src/parser.c ****         return writeData(context, ";", 1);
 288              		.loc 1 116 9 is_stmt 1 view .LVU57
 116:libscpi/src/parser.c ****         return writeData(context, ";", 1);
 289              		.loc 1 116 16 is_stmt 0 view .LVU58
 290 000c 0122     		movs	r2, #1
 291 000e 0249     		ldr	r1, .L24
 292 0010 FFF7FEFF 		bl	writeData
 293              	.LVL25:
 116:libscpi/src/parser.c ****         return writeData(context, ";", 1);
 294              		.loc 1 116 16 view .LVU59
 295 0014 F9E7     		b	.L20
 296              	.L25:
 297 0016 C046     		.align	2
 298              	.L24:
 299 0018 00000000 		.word	.LC4
 300              		.cfi_endproc
 301              	.LFE4:
 303              		.section	.rodata.getBasePrefix.str1.4,"aMS",%progbits,1
 304              		.align	2
 305              	.LC6:
 306 0000 234800   		.ascii	"#H\000"
 307 0003 00       		.align	2
 308              	.LC8:
 309 0004 235100   		.ascii	"#Q\000"
 310 0007 00       		.align	2
 311              	.LC10:
 312 0008 234200   		.ascii	"#B\000"
 313              		.section	.text.getBasePrefix,"ax",%progbits
 314              		.align	1
 315              		.syntax unified
 316              		.code	16
 317              		.thumb_func
 318              		.fpu softvfp
 320              	getBasePrefix:
 321              	.LVL26:
 322              	.LFB11:
 121:libscpi/src/parser.c **** 
 122:libscpi/src/parser.c **** /**
 123:libscpi/src/parser.c ****  * Process command
 124:libscpi/src/parser.c ****  * @param context
 125:libscpi/src/parser.c ****  */
ARM GAS  /tmp/ccJs7hvj.s 			page 9


 126:libscpi/src/parser.c **** static scpi_bool_t processCommand(scpi_t * context) {
 127:libscpi/src/parser.c ****     const scpi_command_t * cmd = context->param_list.cmd;
 128:libscpi/src/parser.c ****     lex_state_t * state = &context->param_list.lex_state;
 129:libscpi/src/parser.c ****     scpi_bool_t result = TRUE;
 130:libscpi/src/parser.c **** 
 131:libscpi/src/parser.c ****     /* conditionaly write ; */
 132:libscpi/src/parser.c ****     writeSemicolon(context);
 133:libscpi/src/parser.c **** 
 134:libscpi/src/parser.c ****     context->cmd_error = FALSE;
 135:libscpi/src/parser.c ****     context->output_count = 0;
 136:libscpi/src/parser.c ****     context->input_count = 0;
 137:libscpi/src/parser.c ****     context->arbitrary_reminding = 0;
 138:libscpi/src/parser.c **** 
 139:libscpi/src/parser.c ****     /* if callback exists - call command callback */
 140:libscpi/src/parser.c ****     if (cmd->callback != NULL) {
 141:libscpi/src/parser.c ****         if ((cmd->callback(context) != SCPI_RES_OK)) {
 142:libscpi/src/parser.c ****             if (!context->cmd_error) {
 143:libscpi/src/parser.c ****                 SCPI_ErrorPush(context, SCPI_ERROR_EXECUTION_ERROR);
 144:libscpi/src/parser.c ****             }
 145:libscpi/src/parser.c ****             result = FALSE;
 146:libscpi/src/parser.c ****         } else {
 147:libscpi/src/parser.c ****             if (context->cmd_error) {
 148:libscpi/src/parser.c ****                 result = FALSE;
 149:libscpi/src/parser.c ****             }
 150:libscpi/src/parser.c ****         }
 151:libscpi/src/parser.c ****     }
 152:libscpi/src/parser.c **** 
 153:libscpi/src/parser.c ****     /* set error if command callback did not read all parameters */
 154:libscpi/src/parser.c ****     if (state->pos < (state->buffer + state->len) && !context->cmd_error) {
 155:libscpi/src/parser.c ****         SCPI_ErrorPush(context, SCPI_ERROR_PARAMETER_NOT_ALLOWED);
 156:libscpi/src/parser.c ****         result = FALSE;
 157:libscpi/src/parser.c ****     }
 158:libscpi/src/parser.c **** 
 159:libscpi/src/parser.c ****     return result;
 160:libscpi/src/parser.c **** }
 161:libscpi/src/parser.c **** 
 162:libscpi/src/parser.c **** /**
 163:libscpi/src/parser.c ****  * Cycle all patterns and search matching pattern. Execute command callback.
 164:libscpi/src/parser.c ****  * @param context
 165:libscpi/src/parser.c ****  * @result TRUE if context->paramlist is filled with correct values
 166:libscpi/src/parser.c ****  */
 167:libscpi/src/parser.c **** static scpi_bool_t findCommandHeader(scpi_t * context, const char * header, int len) {
 168:libscpi/src/parser.c ****     int32_t i;
 169:libscpi/src/parser.c ****     const scpi_command_t * cmd;
 170:libscpi/src/parser.c **** 
 171:libscpi/src/parser.c ****     for (i = 0; context->cmdlist[i].pattern != NULL; i++) {
 172:libscpi/src/parser.c ****         cmd = &context->cmdlist[i];
 173:libscpi/src/parser.c ****         if (matchCommand(cmd->pattern, header, len, NULL, 0, 0)) {
 174:libscpi/src/parser.c ****             context->param_list.cmd = cmd;
 175:libscpi/src/parser.c ****             return TRUE;
 176:libscpi/src/parser.c ****         }
 177:libscpi/src/parser.c ****     }
 178:libscpi/src/parser.c ****     return FALSE;
 179:libscpi/src/parser.c **** }
 180:libscpi/src/parser.c **** 
 181:libscpi/src/parser.c **** /**
 182:libscpi/src/parser.c ****  * Parse one command line
ARM GAS  /tmp/ccJs7hvj.s 			page 10


 183:libscpi/src/parser.c ****  * @param context
 184:libscpi/src/parser.c ****  * @param data - complete command line
 185:libscpi/src/parser.c ****  * @param len - command line length
 186:libscpi/src/parser.c ****  * @return FALSE if there was some error during evaluation of commands
 187:libscpi/src/parser.c ****  */
 188:libscpi/src/parser.c **** scpi_bool_t SCPI_Parse(scpi_t * context, char * data, int len) {
 189:libscpi/src/parser.c ****     scpi_bool_t result = TRUE;
 190:libscpi/src/parser.c ****     scpi_parser_state_t * state;
 191:libscpi/src/parser.c ****     int r;
 192:libscpi/src/parser.c ****     scpi_token_t cmd_prev = {SCPI_TOKEN_UNKNOWN, NULL, 0};
 193:libscpi/src/parser.c **** 
 194:libscpi/src/parser.c ****     if (context == NULL) {
 195:libscpi/src/parser.c ****         return FALSE;
 196:libscpi/src/parser.c ****     }
 197:libscpi/src/parser.c **** 
 198:libscpi/src/parser.c ****     state = &context->parser_state;
 199:libscpi/src/parser.c ****     context->output_count = 0;
 200:libscpi/src/parser.c **** 
 201:libscpi/src/parser.c ****     while (1) {
 202:libscpi/src/parser.c ****         r = scpiParser_detectProgramMessageUnit(state, data, len);
 203:libscpi/src/parser.c **** 
 204:libscpi/src/parser.c ****         if (state->programHeader.type == SCPI_TOKEN_INVALID) {
 205:libscpi/src/parser.c ****             SCPI_ErrorPush(context, SCPI_ERROR_INVALID_CHARACTER);
 206:libscpi/src/parser.c ****             result = FALSE;
 207:libscpi/src/parser.c ****         } else if (state->programHeader.len > 0) {
 208:libscpi/src/parser.c **** 
 209:libscpi/src/parser.c ****             composeCompoundCommand(&cmd_prev, &state->programHeader);
 210:libscpi/src/parser.c **** 
 211:libscpi/src/parser.c ****             if (findCommandHeader(context, state->programHeader.ptr, state->programHeader.len)) {
 212:libscpi/src/parser.c **** 
 213:libscpi/src/parser.c ****                 context->param_list.lex_state.buffer = state->programData.ptr;
 214:libscpi/src/parser.c ****                 context->param_list.lex_state.pos = context->param_list.lex_state.buffer;
 215:libscpi/src/parser.c ****                 context->param_list.lex_state.len = state->programData.len;
 216:libscpi/src/parser.c ****                 context->param_list.cmd_raw.data = state->programHeader.ptr;
 217:libscpi/src/parser.c ****                 context->param_list.cmd_raw.position = 0;
 218:libscpi/src/parser.c ****                 context->param_list.cmd_raw.length = state->programHeader.len;
 219:libscpi/src/parser.c **** 
 220:libscpi/src/parser.c ****                 result &= processCommand(context);
 221:libscpi/src/parser.c ****                 cmd_prev = state->programHeader;
 222:libscpi/src/parser.c ****             } else {
 223:libscpi/src/parser.c ****                 /* place undefined header with error */
 224:libscpi/src/parser.c ****                 /* calculate length of errornouse header and trim \r\n */
 225:libscpi/src/parser.c ****                 size_t r2 = r;
 226:libscpi/src/parser.c ****                 while (r2 > 0 && (data[r2 - 1] == '\r' || data[r2 - 1] == '\n')) r2--;
 227:libscpi/src/parser.c ****                 SCPI_ErrorPushEx(context, SCPI_ERROR_UNDEFINED_HEADER, data, r2);
 228:libscpi/src/parser.c ****                 result = FALSE;
 229:libscpi/src/parser.c ****             }
 230:libscpi/src/parser.c ****         }
 231:libscpi/src/parser.c **** 
 232:libscpi/src/parser.c ****         if (r < len) {
 233:libscpi/src/parser.c ****             data += r;
 234:libscpi/src/parser.c ****             len -= r;
 235:libscpi/src/parser.c ****         } else {
 236:libscpi/src/parser.c ****             break;
 237:libscpi/src/parser.c ****         }
 238:libscpi/src/parser.c **** 
 239:libscpi/src/parser.c ****     }
ARM GAS  /tmp/ccJs7hvj.s 			page 11


 240:libscpi/src/parser.c **** 
 241:libscpi/src/parser.c ****     /* conditionaly write new line */
 242:libscpi/src/parser.c ****     writeNewLine(context);
 243:libscpi/src/parser.c **** 
 244:libscpi/src/parser.c ****     return result;
 245:libscpi/src/parser.c **** }
 246:libscpi/src/parser.c **** 
 247:libscpi/src/parser.c **** /**
 248:libscpi/src/parser.c ****  * Initialize SCPI context structure
 249:libscpi/src/parser.c ****  * @param context
 250:libscpi/src/parser.c ****  * @param commands
 251:libscpi/src/parser.c ****  * @param interface
 252:libscpi/src/parser.c ****  * @param units
 253:libscpi/src/parser.c ****  * @param idn1
 254:libscpi/src/parser.c ****  * @param idn2
 255:libscpi/src/parser.c ****  * @param idn3
 256:libscpi/src/parser.c ****  * @param idn4
 257:libscpi/src/parser.c ****  * @param input_buffer
 258:libscpi/src/parser.c ****  * @param input_buffer_length
 259:libscpi/src/parser.c ****  * @param error_queue_data
 260:libscpi/src/parser.c ****  * @param error_queue_size
 261:libscpi/src/parser.c ****  */
 262:libscpi/src/parser.c **** void SCPI_Init(scpi_t * context,
 263:libscpi/src/parser.c ****         const scpi_command_t * commands,
 264:libscpi/src/parser.c ****         scpi_interface_t * interface,
 265:libscpi/src/parser.c ****         const scpi_unit_def_t * units,
 266:libscpi/src/parser.c ****         const char * idn1, const char * idn2, const char * idn3, const char * idn4,
 267:libscpi/src/parser.c ****         char * input_buffer, size_t input_buffer_length,
 268:libscpi/src/parser.c ****         scpi_error_t * error_queue_data, int16_t error_queue_size) {
 269:libscpi/src/parser.c ****     memset(context, 0, sizeof (*context));
 270:libscpi/src/parser.c ****     context->cmdlist = commands;
 271:libscpi/src/parser.c ****     context->interface = interface;
 272:libscpi/src/parser.c ****     context->units = units;
 273:libscpi/src/parser.c ****     context->idn[0] = idn1;
 274:libscpi/src/parser.c ****     context->idn[1] = idn2;
 275:libscpi/src/parser.c ****     context->idn[2] = idn3;
 276:libscpi/src/parser.c ****     context->idn[3] = idn4;
 277:libscpi/src/parser.c ****     context->buffer.data = input_buffer;
 278:libscpi/src/parser.c ****     context->buffer.length = input_buffer_length;
 279:libscpi/src/parser.c ****     context->buffer.position = 0;
 280:libscpi/src/parser.c ****     SCPI_ErrorInit(context, error_queue_data, error_queue_size);
 281:libscpi/src/parser.c **** }
 282:libscpi/src/parser.c **** 
 283:libscpi/src/parser.c **** #if USE_DEVICE_DEPENDENT_ERROR_INFORMATION && !USE_MEMORY_ALLOCATION_FREE
 284:libscpi/src/parser.c **** 
 285:libscpi/src/parser.c **** /**
 286:libscpi/src/parser.c ****  * Initialize context's
 287:libscpi/src/parser.c ****  * @param context
 288:libscpi/src/parser.c ****  * @param data
 289:libscpi/src/parser.c ****  * @param len
 290:libscpi/src/parser.c ****  * @return
 291:libscpi/src/parser.c ****  */
 292:libscpi/src/parser.c **** void SCPI_InitHeap(scpi_t * context,
 293:libscpi/src/parser.c ****         char * error_info_heap, size_t error_info_heap_length) {
 294:libscpi/src/parser.c ****     scpiheap_init(&context->error_info_heap, error_info_heap, error_info_heap_length);
 295:libscpi/src/parser.c **** }
 296:libscpi/src/parser.c **** #endif
ARM GAS  /tmp/ccJs7hvj.s 			page 12


 297:libscpi/src/parser.c **** 
 298:libscpi/src/parser.c **** /**
 299:libscpi/src/parser.c ****  * Interface to the application. Adds data to system buffer and try to search
 300:libscpi/src/parser.c ****  * command line termination. If the termination is found or if len=0, command
 301:libscpi/src/parser.c ****  * parser is called.
 302:libscpi/src/parser.c ****  *
 303:libscpi/src/parser.c ****  * @param context
 304:libscpi/src/parser.c ****  * @param data - data to process
 305:libscpi/src/parser.c ****  * @param len - length of data
 306:libscpi/src/parser.c ****  * @return
 307:libscpi/src/parser.c ****  */
 308:libscpi/src/parser.c **** scpi_bool_t SCPI_Input(scpi_t * context, const char * data, int len) {
 309:libscpi/src/parser.c ****     scpi_bool_t result = TRUE;
 310:libscpi/src/parser.c ****     size_t totcmdlen = 0;
 311:libscpi/src/parser.c ****     int cmdlen = 0;
 312:libscpi/src/parser.c **** 
 313:libscpi/src/parser.c ****     if (len == 0) {
 314:libscpi/src/parser.c ****         context->buffer.data[context->buffer.position] = 0;
 315:libscpi/src/parser.c ****         result = SCPI_Parse(context, context->buffer.data, context->buffer.position);
 316:libscpi/src/parser.c ****         context->buffer.position = 0;
 317:libscpi/src/parser.c ****     } else {
 318:libscpi/src/parser.c ****         int buffer_free;
 319:libscpi/src/parser.c **** 
 320:libscpi/src/parser.c ****         buffer_free = context->buffer.length - context->buffer.position;
 321:libscpi/src/parser.c ****         if (len > (buffer_free - 1)) {
 322:libscpi/src/parser.c ****             /* Input buffer overrun - invalidate buffer */
 323:libscpi/src/parser.c ****             context->buffer.position = 0;
 324:libscpi/src/parser.c ****             context->buffer.data[context->buffer.position] = 0;
 325:libscpi/src/parser.c ****             SCPI_ErrorPush(context, SCPI_ERROR_INPUT_BUFFER_OVERRUN);
 326:libscpi/src/parser.c ****             return FALSE;
 327:libscpi/src/parser.c ****         }
 328:libscpi/src/parser.c ****         memcpy(&context->buffer.data[context->buffer.position], data, len);
 329:libscpi/src/parser.c ****         context->buffer.position += len;
 330:libscpi/src/parser.c ****         context->buffer.data[context->buffer.position] = 0;
 331:libscpi/src/parser.c **** 
 332:libscpi/src/parser.c **** 
 333:libscpi/src/parser.c ****         while (1) {
 334:libscpi/src/parser.c ****             cmdlen = scpiParser_detectProgramMessageUnit(&context->parser_state, context->buffer.da
 335:libscpi/src/parser.c ****             totcmdlen += cmdlen;
 336:libscpi/src/parser.c **** 
 337:libscpi/src/parser.c ****             if (context->parser_state.termination == SCPI_MESSAGE_TERMINATION_NL) {
 338:libscpi/src/parser.c ****                 result = SCPI_Parse(context, context->buffer.data, totcmdlen);
 339:libscpi/src/parser.c ****                 memmove(context->buffer.data, context->buffer.data + totcmdlen, context->buffer.pos
 340:libscpi/src/parser.c ****                 context->buffer.position -= totcmdlen;
 341:libscpi/src/parser.c ****                 totcmdlen = 0;
 342:libscpi/src/parser.c ****             } else {
 343:libscpi/src/parser.c ****                 if (context->parser_state.programHeader.type == SCPI_TOKEN_UNKNOWN
 344:libscpi/src/parser.c ****                         && context->parser_state.termination == SCPI_MESSAGE_TERMINATION_NONE) brea
 345:libscpi/src/parser.c ****                 if (totcmdlen >= context->buffer.position) break;
 346:libscpi/src/parser.c ****             }
 347:libscpi/src/parser.c ****         }
 348:libscpi/src/parser.c ****     }
 349:libscpi/src/parser.c **** 
 350:libscpi/src/parser.c ****     return result;
 351:libscpi/src/parser.c **** }
 352:libscpi/src/parser.c **** 
 353:libscpi/src/parser.c **** /* writing results */
ARM GAS  /tmp/ccJs7hvj.s 			page 13


 354:libscpi/src/parser.c **** 
 355:libscpi/src/parser.c **** /**
 356:libscpi/src/parser.c ****  * Write raw string result to the output
 357:libscpi/src/parser.c ****  * @param context
 358:libscpi/src/parser.c ****  * @param data
 359:libscpi/src/parser.c ****  * @return
 360:libscpi/src/parser.c ****  */
 361:libscpi/src/parser.c **** size_t SCPI_ResultCharacters(scpi_t * context, const char * data, size_t len) {
 362:libscpi/src/parser.c ****     size_t result = 0;
 363:libscpi/src/parser.c ****     result += writeDelimiter(context);
 364:libscpi/src/parser.c ****     result += writeData(context, data, len);
 365:libscpi/src/parser.c ****     context->output_count++;
 366:libscpi/src/parser.c ****     return result;
 367:libscpi/src/parser.c **** }
 368:libscpi/src/parser.c **** 
 369:libscpi/src/parser.c **** /**
 370:libscpi/src/parser.c ****  * Return prefix of nondecimal base
 371:libscpi/src/parser.c ****  * @param base
 372:libscpi/src/parser.c ****  * @return
 373:libscpi/src/parser.c ****  */
 374:libscpi/src/parser.c **** static const char * getBasePrefix(int8_t base) {
 323              		.loc 1 374 48 is_stmt 1 view -0
 324              		.cfi_startproc
 325              		@ args = 0, pretend = 0, frame = 0
 326              		@ frame_needed = 0, uses_anonymous_args = 0
 327              		@ link register save eliminated.
 375:libscpi/src/parser.c ****     switch (base) {
 328              		.loc 1 375 5 view .LVU61
 329 0000 0828     		cmp	r0, #8
 330 0002 07D0     		beq	.L28
 331 0004 1028     		cmp	r0, #16
 332 0006 07D0     		beq	.L29
 333 0008 0228     		cmp	r0, #2
 334 000a 01D0     		beq	.L31
 376:libscpi/src/parser.c ****         case 2: return "#B";
 377:libscpi/src/parser.c ****         case 8: return "#Q";
 378:libscpi/src/parser.c ****         case 16: return "#H";
 379:libscpi/src/parser.c ****         default: return NULL;
 335              		.loc 1 379 25 is_stmt 0 view .LVU62
 336 000c 0020     		movs	r0, #0
 337              	.LVL27:
 338              	.L26:
 380:libscpi/src/parser.c ****     }
 381:libscpi/src/parser.c **** }
 339              		.loc 1 381 1 view .LVU63
 340              		@ sp needed
 341 000e 7047     		bx	lr
 342              	.LVL28:
 343              	.L31:
 375:libscpi/src/parser.c ****         case 2: return "#B";
 344              		.loc 1 375 5 view .LVU64
 345 0010 0248     		ldr	r0, .L32
 346              	.LVL29:
 375:libscpi/src/parser.c ****         case 2: return "#B";
 347              		.loc 1 375 5 view .LVU65
 348 0012 FCE7     		b	.L26
 349              	.LVL30:
ARM GAS  /tmp/ccJs7hvj.s 			page 14


 350              	.L28:
 377:libscpi/src/parser.c ****         case 16: return "#H";
 351              		.loc 1 377 24 view .LVU66
 352 0014 0248     		ldr	r0, .L32+4
 353              	.LVL31:
 377:libscpi/src/parser.c ****         case 16: return "#H";
 354              		.loc 1 377 24 view .LVU67
 355 0016 FAE7     		b	.L26
 356              	.LVL32:
 357              	.L29:
 378:libscpi/src/parser.c ****         default: return NULL;
 358              		.loc 1 378 25 view .LVU68
 359 0018 0248     		ldr	r0, .L32+8
 360              	.LVL33:
 378:libscpi/src/parser.c ****         default: return NULL;
 361              		.loc 1 378 25 view .LVU69
 362 001a F8E7     		b	.L26
 363              	.L33:
 364              		.align	2
 365              	.L32:
 366 001c 08000000 		.word	.LC10
 367 0020 04000000 		.word	.LC8
 368 0024 00000000 		.word	.LC6
 369              		.cfi_endproc
 370              	.LFE11:
 372              		.section	.text.invalidateToken,"ax",%progbits
 373              		.align	1
 374              		.syntax unified
 375              		.code	16
 376              		.thumb_func
 377              		.fpu softvfp
 379              	invalidateToken:
 380              	.LVL34:
 381              	.LFB26:
 382:libscpi/src/parser.c **** 
 383:libscpi/src/parser.c **** /**
 384:libscpi/src/parser.c ****  * Write signed/unsigned 32 bit integer value in specific base to the result
 385:libscpi/src/parser.c ****  * @param context
 386:libscpi/src/parser.c ****  * @param val
 387:libscpi/src/parser.c ****  * @param base
 388:libscpi/src/parser.c ****  * @param sign
 389:libscpi/src/parser.c ****  * @return
 390:libscpi/src/parser.c ****  */
 391:libscpi/src/parser.c **** static size_t resultUInt32BaseSign(scpi_t * context, uint32_t val, int8_t base, scpi_bool_t sign) {
 392:libscpi/src/parser.c ****     char buffer[32 + 1];
 393:libscpi/src/parser.c ****     const char * basePrefix;
 394:libscpi/src/parser.c ****     size_t result = 0;
 395:libscpi/src/parser.c ****     size_t len;
 396:libscpi/src/parser.c **** 
 397:libscpi/src/parser.c ****     len = UInt32ToStrBaseSign(val, buffer, sizeof (buffer), base, sign);
 398:libscpi/src/parser.c ****     basePrefix = getBasePrefix(base);
 399:libscpi/src/parser.c **** 
 400:libscpi/src/parser.c ****     result += writeDelimiter(context);
 401:libscpi/src/parser.c ****     if (basePrefix != NULL) {
 402:libscpi/src/parser.c ****         result += writeData(context, basePrefix, 2);
 403:libscpi/src/parser.c ****     }
 404:libscpi/src/parser.c ****     result += writeData(context, buffer, len);
ARM GAS  /tmp/ccJs7hvj.s 			page 15


 405:libscpi/src/parser.c ****     context->output_count++;
 406:libscpi/src/parser.c ****     return result;
 407:libscpi/src/parser.c **** }
 408:libscpi/src/parser.c **** 
 409:libscpi/src/parser.c **** /**
 410:libscpi/src/parser.c ****  * Write signed/unsigned 64 bit integer value in specific base to the result
 411:libscpi/src/parser.c ****  * @param context
 412:libscpi/src/parser.c ****  * @param val
 413:libscpi/src/parser.c ****  * @param base
 414:libscpi/src/parser.c ****  * @param sign
 415:libscpi/src/parser.c ****  * @return
 416:libscpi/src/parser.c ****  */
 417:libscpi/src/parser.c **** static size_t resultUInt64BaseSign(scpi_t * context, uint64_t val, int8_t base, scpi_bool_t sign) {
 418:libscpi/src/parser.c ****     char buffer[64 + 1];
 419:libscpi/src/parser.c ****     const char * basePrefix;
 420:libscpi/src/parser.c ****     size_t result = 0;
 421:libscpi/src/parser.c ****     size_t len;
 422:libscpi/src/parser.c **** 
 423:libscpi/src/parser.c ****     len = UInt64ToStrBaseSign(val, buffer, sizeof (buffer), base, sign);
 424:libscpi/src/parser.c ****     basePrefix = getBasePrefix(base);
 425:libscpi/src/parser.c **** 
 426:libscpi/src/parser.c ****     result += writeDelimiter(context);
 427:libscpi/src/parser.c ****     if (basePrefix != NULL) {
 428:libscpi/src/parser.c ****         result += writeData(context, basePrefix, 2);
 429:libscpi/src/parser.c ****     }
 430:libscpi/src/parser.c ****     result += writeData(context, buffer, len);
 431:libscpi/src/parser.c ****     context->output_count++;
 432:libscpi/src/parser.c ****     return result;
 433:libscpi/src/parser.c **** }
 434:libscpi/src/parser.c **** 
 435:libscpi/src/parser.c **** /**
 436:libscpi/src/parser.c ****  * Write signed 32 bit integer value to the result
 437:libscpi/src/parser.c ****  * @param context
 438:libscpi/src/parser.c ****  * @param val
 439:libscpi/src/parser.c ****  * @return
 440:libscpi/src/parser.c ****  */
 441:libscpi/src/parser.c **** size_t SCPI_ResultInt32(scpi_t * context, int32_t val) {
 442:libscpi/src/parser.c ****     return resultUInt32BaseSign(context, val, 10, TRUE);
 443:libscpi/src/parser.c **** }
 444:libscpi/src/parser.c **** 
 445:libscpi/src/parser.c **** /**
 446:libscpi/src/parser.c ****  * Write unsigned 32 bit integer value in specific base to the result
 447:libscpi/src/parser.c ****  * Write signed/unsigned 32 bit integer value in specific base to the result
 448:libscpi/src/parser.c ****  * @param context
 449:libscpi/src/parser.c ****  * @param val
 450:libscpi/src/parser.c ****  * @return
 451:libscpi/src/parser.c ****  */
 452:libscpi/src/parser.c **** size_t SCPI_ResultUInt32Base(scpi_t * context, uint32_t val, int8_t base) {
 453:libscpi/src/parser.c ****     return resultUInt32BaseSign(context, val, base, FALSE);
 454:libscpi/src/parser.c **** }
 455:libscpi/src/parser.c **** 
 456:libscpi/src/parser.c **** /**
 457:libscpi/src/parser.c ****  * Write signed 64 bit integer value to the result
 458:libscpi/src/parser.c ****  * @param context
 459:libscpi/src/parser.c ****  * @param val
 460:libscpi/src/parser.c ****  * @return
 461:libscpi/src/parser.c ****  */
ARM GAS  /tmp/ccJs7hvj.s 			page 16


 462:libscpi/src/parser.c **** size_t SCPI_ResultInt64(scpi_t * context, int64_t val) {
 463:libscpi/src/parser.c ****     return resultUInt64BaseSign(context, val, 10, TRUE);
 464:libscpi/src/parser.c **** }
 465:libscpi/src/parser.c **** 
 466:libscpi/src/parser.c **** /**
 467:libscpi/src/parser.c ****  * Write unsigned 64 bit integer value in specific base to the result
 468:libscpi/src/parser.c ****  * @param context
 469:libscpi/src/parser.c ****  * @param val
 470:libscpi/src/parser.c ****  * @return
 471:libscpi/src/parser.c ****  */
 472:libscpi/src/parser.c **** size_t SCPI_ResultUInt64Base(scpi_t * context, uint64_t val, int8_t base) {
 473:libscpi/src/parser.c ****     return resultUInt64BaseSign(context, val, base, FALSE);
 474:libscpi/src/parser.c **** }
 475:libscpi/src/parser.c **** 
 476:libscpi/src/parser.c **** /**
 477:libscpi/src/parser.c ****  * Write float (32 bit) value to the result
 478:libscpi/src/parser.c ****  * @param context
 479:libscpi/src/parser.c ****  * @param val
 480:libscpi/src/parser.c ****  * @return
 481:libscpi/src/parser.c ****  */
 482:libscpi/src/parser.c **** size_t SCPI_ResultFloat(scpi_t * context, float val) {
 483:libscpi/src/parser.c ****     char buffer[32];
 484:libscpi/src/parser.c ****     size_t result = 0;
 485:libscpi/src/parser.c ****     size_t len = SCPI_FloatToStr(val, buffer, sizeof (buffer));
 486:libscpi/src/parser.c ****     result += writeDelimiter(context);
 487:libscpi/src/parser.c ****     result += writeData(context, buffer, len);
 488:libscpi/src/parser.c ****     context->output_count++;
 489:libscpi/src/parser.c ****     return result;
 490:libscpi/src/parser.c **** }
 491:libscpi/src/parser.c **** 
 492:libscpi/src/parser.c **** /**
 493:libscpi/src/parser.c ****  * Write double (64bit) value to the result
 494:libscpi/src/parser.c ****  * @param context
 495:libscpi/src/parser.c ****  * @param val
 496:libscpi/src/parser.c ****  * @return
 497:libscpi/src/parser.c ****  */
 498:libscpi/src/parser.c **** size_t SCPI_ResultDouble(scpi_t * context, double val) {
 499:libscpi/src/parser.c ****     char buffer[32];
 500:libscpi/src/parser.c ****     size_t result = 0;
 501:libscpi/src/parser.c ****     size_t len = SCPI_DoubleToStr(val, buffer, sizeof (buffer));
 502:libscpi/src/parser.c ****     result += writeDelimiter(context);
 503:libscpi/src/parser.c ****     result += writeData(context, buffer, len);
 504:libscpi/src/parser.c ****     context->output_count++;
 505:libscpi/src/parser.c ****     return result;
 506:libscpi/src/parser.c **** }
 507:libscpi/src/parser.c **** 
 508:libscpi/src/parser.c **** /**
 509:libscpi/src/parser.c ****  * Write string withn " to the result
 510:libscpi/src/parser.c ****  * @param context
 511:libscpi/src/parser.c ****  * @param data
 512:libscpi/src/parser.c ****  * @return
 513:libscpi/src/parser.c ****  */
 514:libscpi/src/parser.c **** size_t SCPI_ResultText(scpi_t * context, const char * data) {
 515:libscpi/src/parser.c ****     size_t result = 0;
 516:libscpi/src/parser.c ****     size_t len = strlen(data);
 517:libscpi/src/parser.c ****     const char * quote;
 518:libscpi/src/parser.c ****     result += writeDelimiter(context);
ARM GAS  /tmp/ccJs7hvj.s 			page 17


 519:libscpi/src/parser.c ****     result += writeData(context, "\"", 1);
 520:libscpi/src/parser.c ****     while ((quote = strnpbrk(data, len, "\""))) {
 521:libscpi/src/parser.c ****         result += writeData(context, data, quote - data + 1);
 522:libscpi/src/parser.c ****         result += writeData(context, "\"", 1);
 523:libscpi/src/parser.c ****         len -= quote - data + 1;
 524:libscpi/src/parser.c ****         data = quote + 1;
 525:libscpi/src/parser.c ****     }
 526:libscpi/src/parser.c ****     result += writeData(context, data, len);
 527:libscpi/src/parser.c ****     result += writeData(context, "\"", 1);
 528:libscpi/src/parser.c ****     context->output_count++;
 529:libscpi/src/parser.c ****     return result;
 530:libscpi/src/parser.c **** }
 531:libscpi/src/parser.c **** 
 532:libscpi/src/parser.c **** /**
 533:libscpi/src/parser.c ****  * SCPI-99:21.8 Device-dependent error information.
 534:libscpi/src/parser.c ****  * Write error information with the following syntax:
 535:libscpi/src/parser.c ****  * <Error/event_number>,"<Error/event_description>[;<Device-dependent_info>]"
 536:libscpi/src/parser.c ****  * The maximum string length of <Error/event_description> plus <Device-dependent_info>
 537:libscpi/src/parser.c ****  * is SCPI_STD_ERROR_DESC_MAX_STRING_LENGTH (255) characters.
 538:libscpi/src/parser.c ****  *
 539:libscpi/src/parser.c ****  * @param context
 540:libscpi/src/parser.c ****  * @param error
 541:libscpi/src/parser.c ****  * @return
 542:libscpi/src/parser.c ****  */
 543:libscpi/src/parser.c **** size_t SCPI_ResultError(scpi_t * context, scpi_error_t * error) {
 544:libscpi/src/parser.c ****     size_t result = 0;
 545:libscpi/src/parser.c ****     size_t outputlimit = SCPI_STD_ERROR_DESC_MAX_STRING_LENGTH;
 546:libscpi/src/parser.c ****     size_t step = 0;
 547:libscpi/src/parser.c ****     const char * quote;
 548:libscpi/src/parser.c **** 
 549:libscpi/src/parser.c ****     const char * data[SCPIDEFINE_DESCRIPTION_MAX_PARTS];
 550:libscpi/src/parser.c ****     size_t len[SCPIDEFINE_DESCRIPTION_MAX_PARTS];
 551:libscpi/src/parser.c ****     size_t i;
 552:libscpi/src/parser.c **** 
 553:libscpi/src/parser.c ****     data[0] = SCPI_ErrorTranslate(error->error_code);
 554:libscpi/src/parser.c ****     len[0] = strlen(data[0]);
 555:libscpi/src/parser.c **** 
 556:libscpi/src/parser.c **** #if USE_DEVICE_DEPENDENT_ERROR_INFORMATION
 557:libscpi/src/parser.c ****     data[1] = error->device_dependent_info;
 558:libscpi/src/parser.c **** #if USE_MEMORY_ALLOCATION_FREE
 559:libscpi/src/parser.c ****     len[1] = error->device_dependent_info ? strlen(data[1]) : 0;
 560:libscpi/src/parser.c **** #else
 561:libscpi/src/parser.c ****     SCPIDEFINE_get_parts(&context->error_info_heap, data[1], &len[1], &data[2], &len[2]);
 562:libscpi/src/parser.c **** #endif
 563:libscpi/src/parser.c **** #endif
 564:libscpi/src/parser.c **** 
 565:libscpi/src/parser.c ****     result += SCPI_ResultInt32(context, error->error_code);
 566:libscpi/src/parser.c ****     result += writeDelimiter(context);
 567:libscpi/src/parser.c ****     result += writeData(context, "\"", 1);
 568:libscpi/src/parser.c **** 
 569:libscpi/src/parser.c ****     for (i = 0; (i < SCPIDEFINE_DESCRIPTION_MAX_PARTS) && data[i] && outputlimit; i++) {
 570:libscpi/src/parser.c ****         if (i == 1) {
 571:libscpi/src/parser.c ****             result += writeSemicolon(context);
 572:libscpi/src/parser.c ****             outputlimit -= 1;
 573:libscpi/src/parser.c ****         }
 574:libscpi/src/parser.c ****         if (len[i] > outputlimit) {
 575:libscpi/src/parser.c ****             len[i] = outputlimit;
ARM GAS  /tmp/ccJs7hvj.s 			page 18


 576:libscpi/src/parser.c ****         }
 577:libscpi/src/parser.c **** 
 578:libscpi/src/parser.c ****         while ((quote = strnpbrk(data[i], len[i], "\""))) {
 579:libscpi/src/parser.c ****             if ((step = quote - data[i] + 1) >= outputlimit) {
 580:libscpi/src/parser.c ****                 len[i] -= 1;
 581:libscpi/src/parser.c ****                 outputlimit -= 1;
 582:libscpi/src/parser.c ****                 break;
 583:libscpi/src/parser.c ****             }
 584:libscpi/src/parser.c ****             result += writeData(context, data[i], step);
 585:libscpi/src/parser.c ****             result += writeData(context, "\"", 1);
 586:libscpi/src/parser.c ****             len[i] -= step;
 587:libscpi/src/parser.c ****             outputlimit -= step + 1;
 588:libscpi/src/parser.c ****             data[i] = quote + 1;
 589:libscpi/src/parser.c ****             if (len[i] > outputlimit) {
 590:libscpi/src/parser.c ****                 len[i] = outputlimit;
 591:libscpi/src/parser.c ****             }
 592:libscpi/src/parser.c ****         }
 593:libscpi/src/parser.c **** 
 594:libscpi/src/parser.c ****         result += writeData(context, data[i], len[i]);
 595:libscpi/src/parser.c ****         outputlimit -= len[i];
 596:libscpi/src/parser.c ****     }
 597:libscpi/src/parser.c ****     result += writeData(context, "\"", 1);
 598:libscpi/src/parser.c **** 
 599:libscpi/src/parser.c ****     return result;
 600:libscpi/src/parser.c **** }
 601:libscpi/src/parser.c **** 
 602:libscpi/src/parser.c **** /**
 603:libscpi/src/parser.c ****  * Write arbitrary block header with length
 604:libscpi/src/parser.c ****  * @param context
 605:libscpi/src/parser.c ****  * @param len
 606:libscpi/src/parser.c ****  * @return
 607:libscpi/src/parser.c ****  */
 608:libscpi/src/parser.c **** size_t SCPI_ResultArbitraryBlockHeader(scpi_t * context, size_t len) {
 609:libscpi/src/parser.c ****     char block_header[12];
 610:libscpi/src/parser.c ****     size_t header_len;
 611:libscpi/src/parser.c ****     block_header[0] = '#';
 612:libscpi/src/parser.c ****     SCPI_UInt32ToStrBase((uint32_t) len, block_header + 2, 10, 10);
 613:libscpi/src/parser.c **** 
 614:libscpi/src/parser.c ****     header_len = strlen(block_header + 2);
 615:libscpi/src/parser.c ****     block_header[1] = (char) (header_len + '0');
 616:libscpi/src/parser.c **** 
 617:libscpi/src/parser.c ****     context->arbitrary_reminding = len;
 618:libscpi/src/parser.c ****     return writeData(context, block_header, header_len + 2);
 619:libscpi/src/parser.c **** }
 620:libscpi/src/parser.c **** 
 621:libscpi/src/parser.c **** /**
 622:libscpi/src/parser.c ****  * Add data to arbitrary block
 623:libscpi/src/parser.c ****  * @param context
 624:libscpi/src/parser.c ****  * @param data
 625:libscpi/src/parser.c ****  * @param len
 626:libscpi/src/parser.c ****  * @return
 627:libscpi/src/parser.c ****  */
 628:libscpi/src/parser.c **** size_t SCPI_ResultArbitraryBlockData(scpi_t * context, const void * data, size_t len) {
 629:libscpi/src/parser.c **** 
 630:libscpi/src/parser.c ****     if (context->arbitrary_reminding < len) {
 631:libscpi/src/parser.c ****         SCPI_ErrorPush(context, SCPI_ERROR_SYSTEM_ERROR);
 632:libscpi/src/parser.c ****         return 0;
ARM GAS  /tmp/ccJs7hvj.s 			page 19


 633:libscpi/src/parser.c ****     }
 634:libscpi/src/parser.c **** 
 635:libscpi/src/parser.c ****     context->arbitrary_reminding -= len;
 636:libscpi/src/parser.c **** 
 637:libscpi/src/parser.c ****     if (context->arbitrary_reminding == 0) {
 638:libscpi/src/parser.c ****         context->output_count++;
 639:libscpi/src/parser.c ****     }
 640:libscpi/src/parser.c **** 
 641:libscpi/src/parser.c ****     return writeData(context, (const char *) data, len);
 642:libscpi/src/parser.c **** }
 643:libscpi/src/parser.c **** 
 644:libscpi/src/parser.c **** /**
 645:libscpi/src/parser.c ****  * Write arbitrary block program data to the result
 646:libscpi/src/parser.c ****  * @param context
 647:libscpi/src/parser.c ****  * @param data
 648:libscpi/src/parser.c ****  * @param len
 649:libscpi/src/parser.c ****  * @return
 650:libscpi/src/parser.c ****  */
 651:libscpi/src/parser.c **** size_t SCPI_ResultArbitraryBlock(scpi_t * context, const void * data, size_t len) {
 652:libscpi/src/parser.c ****     size_t result = 0;
 653:libscpi/src/parser.c ****     result += SCPI_ResultArbitraryBlockHeader(context, len);
 654:libscpi/src/parser.c ****     result += SCPI_ResultArbitraryBlockData(context, data, len);
 655:libscpi/src/parser.c ****     return result;
 656:libscpi/src/parser.c **** }
 657:libscpi/src/parser.c **** 
 658:libscpi/src/parser.c **** /**
 659:libscpi/src/parser.c ****  * Write boolean value to the result
 660:libscpi/src/parser.c ****  * @param context
 661:libscpi/src/parser.c ****  * @param val
 662:libscpi/src/parser.c ****  * @return
 663:libscpi/src/parser.c ****  */
 664:libscpi/src/parser.c **** size_t SCPI_ResultBool(scpi_t * context, scpi_bool_t val) {
 665:libscpi/src/parser.c ****     return resultUInt32BaseSign(context, val ? 1 : 0, 10, FALSE);
 666:libscpi/src/parser.c **** }
 667:libscpi/src/parser.c **** 
 668:libscpi/src/parser.c **** /* parsing parameters */
 669:libscpi/src/parser.c **** 
 670:libscpi/src/parser.c **** /**
 671:libscpi/src/parser.c ****  * Invalidate token
 672:libscpi/src/parser.c ****  * @param token
 673:libscpi/src/parser.c ****  * @param ptr
 674:libscpi/src/parser.c ****  */
 675:libscpi/src/parser.c **** static void invalidateToken(scpi_token_t * token, char * ptr) {
 382              		.loc 1 675 63 is_stmt 1 view -0
 383              		.cfi_startproc
 384              		@ args = 0, pretend = 0, frame = 0
 385              		@ frame_needed = 0, uses_anonymous_args = 0
 386              		@ link register save eliminated.
 676:libscpi/src/parser.c ****     token->len = 0;
 387              		.loc 1 676 5 view .LVU71
 388              		.loc 1 676 16 is_stmt 0 view .LVU72
 389 0000 0023     		movs	r3, #0
 390 0002 8360     		str	r3, [r0, #8]
 677:libscpi/src/parser.c ****     token->ptr = ptr;
 391              		.loc 1 677 5 is_stmt 1 view .LVU73
 392              		.loc 1 677 16 is_stmt 0 view .LVU74
 393 0004 4160     		str	r1, [r0, #4]
ARM GAS  /tmp/ccJs7hvj.s 			page 20


 678:libscpi/src/parser.c ****     token->type = SCPI_TOKEN_UNKNOWN;
 394              		.loc 1 678 5 is_stmt 1 view .LVU75
 395              		.loc 1 678 17 is_stmt 0 view .LVU76
 396 0006 1A33     		adds	r3, r3, #26
 397 0008 0370     		strb	r3, [r0]
 679:libscpi/src/parser.c **** }
 398              		.loc 1 679 1 view .LVU77
 399              		@ sp needed
 400 000a 7047     		bx	lr
 401              		.cfi_endproc
 402              	.LFE26:
 404              		.section	.text.processCommand,"ax",%progbits
 405              		.align	1
 406              		.syntax unified
 407              		.code	16
 408              		.thumb_func
 409              		.fpu softvfp
 411              	processCommand:
 412              	.LVL35:
 413              	.LFB5:
 126:libscpi/src/parser.c ****     const scpi_command_t * cmd = context->param_list.cmd;
 414              		.loc 1 126 53 is_stmt 1 view -0
 415              		.cfi_startproc
 416              		@ args = 0, pretend = 0, frame = 0
 417              		@ frame_needed = 0, uses_anonymous_args = 0
 126:libscpi/src/parser.c ****     const scpi_command_t * cmd = context->param_list.cmd;
 418              		.loc 1 126 53 is_stmt 0 view .LVU79
 419 0000 70B5     		push	{r4, r5, r6, lr}
 420              	.LCFI5:
 421              		.cfi_def_cfa_offset 16
 422              		.cfi_offset 4, -16
 423              		.cfi_offset 5, -12
 424              		.cfi_offset 6, -8
 425              		.cfi_offset 14, -4
 426 0002 0400     		movs	r4, r0
 127:libscpi/src/parser.c ****     lex_state_t * state = &context->param_list.lex_state;
 427              		.loc 1 127 5 is_stmt 1 view .LVU80
 127:libscpi/src/parser.c ****     lex_state_t * state = &context->param_list.lex_state;
 428              		.loc 1 127 28 is_stmt 0 view .LVU81
 429 0004 0569     		ldr	r5, [r0, #16]
 430              	.LVL36:
 128:libscpi/src/parser.c ****     scpi_bool_t result = TRUE;
 431              		.loc 1 128 5 is_stmt 1 view .LVU82
 129:libscpi/src/parser.c **** 
 432              		.loc 1 129 5 view .LVU83
 132:libscpi/src/parser.c **** 
 433              		.loc 1 132 5 view .LVU84
 434 0006 FFF7FEFF 		bl	writeSemicolon
 435              	.LVL37:
 134:libscpi/src/parser.c ****     context->output_count = 0;
 436              		.loc 1 134 5 view .LVU85
 134:libscpi/src/parser.c ****     context->output_count = 0;
 437              		.loc 1 134 24 is_stmt 0 view .LVU86
 438 000a 0023     		movs	r3, #0
 439 000c 3822     		movs	r2, #56
 440 000e A354     		strb	r3, [r4, r2]
 135:libscpi/src/parser.c ****     context->input_count = 0;
ARM GAS  /tmp/ccJs7hvj.s 			page 21


 441              		.loc 1 135 5 is_stmt 1 view .LVU87
 135:libscpi/src/parser.c ****     context->input_count = 0;
 442              		.loc 1 135 27 is_stmt 0 view .LVU88
 443 0010 2363     		str	r3, [r4, #48]
 136:libscpi/src/parser.c ****     context->arbitrary_reminding = 0;
 444              		.loc 1 136 5 is_stmt 1 view .LVU89
 136:libscpi/src/parser.c ****     context->arbitrary_reminding = 0;
 445              		.loc 1 136 26 is_stmt 0 view .LVU90
 446 0012 6363     		str	r3, [r4, #52]
 137:libscpi/src/parser.c **** 
 447              		.loc 1 137 5 is_stmt 1 view .LVU91
 137:libscpi/src/parser.c **** 
 448              		.loc 1 137 34 is_stmt 0 view .LVU92
 449 0014 5C32     		adds	r2, r2, #92
 450 0016 A350     		str	r3, [r4, r2]
 140:libscpi/src/parser.c ****         if ((cmd->callback(context) != SCPI_RES_OK)) {
 451              		.loc 1 140 5 is_stmt 1 view .LVU93
 140:libscpi/src/parser.c ****         if ((cmd->callback(context) != SCPI_RES_OK)) {
 452              		.loc 1 140 12 is_stmt 0 view .LVU94
 453 0018 6B68     		ldr	r3, [r5, #4]
 140:libscpi/src/parser.c ****         if ((cmd->callback(context) != SCPI_RES_OK)) {
 454              		.loc 1 140 8 view .LVU95
 455 001a 002B     		cmp	r3, #0
 456 001c 21D0     		beq	.L39
 141:libscpi/src/parser.c ****             if (!context->cmd_error) {
 457              		.loc 1 141 9 is_stmt 1 view .LVU96
 141:libscpi/src/parser.c ****             if (!context->cmd_error) {
 458              		.loc 1 141 14 is_stmt 0 view .LVU97
 459 001e 2000     		movs	r0, r4
 460 0020 9847     		blx	r3
 461              	.LVL38:
 141:libscpi/src/parser.c ****             if (!context->cmd_error) {
 462              		.loc 1 141 12 view .LVU98
 463 0022 0128     		cmp	r0, #1
 464 0024 17D0     		beq	.L37
 142:libscpi/src/parser.c ****                 SCPI_ErrorPush(context, SCPI_ERROR_EXECUTION_ERROR);
 465              		.loc 1 142 13 is_stmt 1 view .LVU99
 142:libscpi/src/parser.c ****                 SCPI_ErrorPush(context, SCPI_ERROR_EXECUTION_ERROR);
 466              		.loc 1 142 25 is_stmt 0 view .LVU100
 467 0026 3823     		movs	r3, #56
 468 0028 E55C     		ldrb	r5, [r4, r3]
 469              	.LVL39:
 142:libscpi/src/parser.c ****                 SCPI_ErrorPush(context, SCPI_ERROR_EXECUTION_ERROR);
 470              		.loc 1 142 16 view .LVU101
 471 002a 002D     		cmp	r5, #0
 472 002c 0DD0     		beq	.L42
 145:libscpi/src/parser.c ****         } else {
 473              		.loc 1 145 20 view .LVU102
 474 002e 0025     		movs	r5, #0
 475              	.L36:
 476              	.LVL40:
 154:libscpi/src/parser.c ****         SCPI_ErrorPush(context, SCPI_ERROR_PARAMETER_NOT_ALLOWED);
 477              		.loc 1 154 5 is_stmt 1 view .LVU103
 154:libscpi/src/parser.c ****         SCPI_ErrorPush(context, SCPI_ERROR_PARAMETER_NOT_ALLOWED);
 478              		.loc 1 154 37 is_stmt 0 view .LVU104
 479 0030 6369     		ldr	r3, [r4, #20]
 480 0032 E269     		ldr	r2, [r4, #28]
ARM GAS  /tmp/ccJs7hvj.s 			page 22


 481 0034 9446     		mov	ip, r2
 482 0036 6344     		add	r3, r3, ip
 154:libscpi/src/parser.c ****         SCPI_ErrorPush(context, SCPI_ERROR_PARAMETER_NOT_ALLOWED);
 483              		.loc 1 154 8 view .LVU105
 484 0038 A269     		ldr	r2, [r4, #24]
 485 003a 9A42     		cmp	r2, r3
 486 003c 03D2     		bcs	.L38
 154:libscpi/src/parser.c ****         SCPI_ErrorPush(context, SCPI_ERROR_PARAMETER_NOT_ALLOWED);
 487              		.loc 1 154 62 discriminator 1 view .LVU106
 488 003e 3823     		movs	r3, #56
 489 0040 E65C     		ldrb	r6, [r4, r3]
 154:libscpi/src/parser.c ****         SCPI_ErrorPush(context, SCPI_ERROR_PARAMETER_NOT_ALLOWED);
 490              		.loc 1 154 51 discriminator 1 view .LVU107
 491 0042 002E     		cmp	r6, #0
 492 0044 11D0     		beq	.L43
 493              	.LVL41:
 494              	.L38:
 159:libscpi/src/parser.c **** }
 495              		.loc 1 159 5 is_stmt 1 view .LVU108
 160:libscpi/src/parser.c **** 
 496              		.loc 1 160 1 is_stmt 0 view .LVU109
 497 0046 2800     		movs	r0, r5
 498              		@ sp needed
 499              	.LVL42:
 500              	.LVL43:
 160:libscpi/src/parser.c **** 
 501              		.loc 1 160 1 view .LVU110
 502 0048 70BD     		pop	{r4, r5, r6, pc}
 503              	.LVL44:
 504              	.L42:
 143:libscpi/src/parser.c ****             }
 505              		.loc 1 143 17 is_stmt 1 view .LVU111
 506 004a C821     		movs	r1, #200
 507 004c 4942     		rsbs	r1, r1, #0
 508 004e 2000     		movs	r0, r4
 509 0050 FFF7FEFF 		bl	SCPI_ErrorPush
 510              	.LVL45:
 511 0054 ECE7     		b	.L36
 512              	.LVL46:
 513              	.L37:
 147:libscpi/src/parser.c ****                 result = FALSE;
 514              		.loc 1 147 13 view .LVU112
 147:libscpi/src/parser.c ****                 result = FALSE;
 515              		.loc 1 147 24 is_stmt 0 view .LVU113
 516 0056 3823     		movs	r3, #56
 517 0058 E35C     		ldrb	r3, [r4, r3]
 147:libscpi/src/parser.c ****                 result = FALSE;
 518              		.loc 1 147 16 view .LVU114
 519 005a 002B     		cmp	r3, #0
 520 005c 03D1     		bne	.L41
 129:libscpi/src/parser.c **** 
 521              		.loc 1 129 17 view .LVU115
 522 005e 0125     		movs	r5, #1
 523              	.LVL47:
 129:libscpi/src/parser.c **** 
 524              		.loc 1 129 17 view .LVU116
 525 0060 E6E7     		b	.L36
ARM GAS  /tmp/ccJs7hvj.s 			page 23


 526              	.LVL48:
 527              	.L39:
 129:libscpi/src/parser.c **** 
 528              		.loc 1 129 17 view .LVU117
 529 0062 0125     		movs	r5, #1
 530              	.LVL49:
 129:libscpi/src/parser.c **** 
 531              		.loc 1 129 17 view .LVU118
 532 0064 E4E7     		b	.L36
 533              	.LVL50:
 534              	.L41:
 148:libscpi/src/parser.c ****             }
 535              		.loc 1 148 24 view .LVU119
 536 0066 0025     		movs	r5, #0
 537              	.LVL51:
 148:libscpi/src/parser.c ****             }
 538              		.loc 1 148 24 view .LVU120
 539 0068 E2E7     		b	.L36
 540              	.LVL52:
 541              	.L43:
 155:libscpi/src/parser.c ****         result = FALSE;
 542              		.loc 1 155 9 is_stmt 1 view .LVU121
 543 006a 6C21     		movs	r1, #108
 544 006c 4942     		rsbs	r1, r1, #0
 545 006e 2000     		movs	r0, r4
 546 0070 FFF7FEFF 		bl	SCPI_ErrorPush
 547              	.LVL53:
 156:libscpi/src/parser.c ****     }
 548              		.loc 1 156 9 view .LVU122
 156:libscpi/src/parser.c ****     }
 549              		.loc 1 156 16 is_stmt 0 view .LVU123
 550 0074 3500     		movs	r5, r6
 551 0076 E6E7     		b	.L38
 552              		.cfi_endproc
 553              	.LFE5:
 555              		.section	.text.findCommandHeader,"ax",%progbits
 556              		.align	1
 557              		.syntax unified
 558              		.code	16
 559              		.thumb_func
 560              		.fpu softvfp
 562              	findCommandHeader:
 563              	.LVL54:
 564              	.LFB6:
 167:libscpi/src/parser.c ****     int32_t i;
 565              		.loc 1 167 86 is_stmt 1 view -0
 566              		.cfi_startproc
 567              		@ args = 0, pretend = 0, frame = 0
 568              		@ frame_needed = 0, uses_anonymous_args = 0
 167:libscpi/src/parser.c ****     int32_t i;
 569              		.loc 1 167 86 is_stmt 0 view .LVU125
 570 0000 F0B5     		push	{r4, r5, r6, r7, lr}
 571              	.LCFI6:
 572              		.cfi_def_cfa_offset 20
 573              		.cfi_offset 4, -20
 574              		.cfi_offset 5, -16
 575              		.cfi_offset 6, -12
ARM GAS  /tmp/ccJs7hvj.s 			page 24


 576              		.cfi_offset 7, -8
 577              		.cfi_offset 14, -4
 578 0002 C646     		mov	lr, r8
 579 0004 00B5     		push	{lr}
 580              	.LCFI7:
 581              		.cfi_def_cfa_offset 24
 582              		.cfi_offset 8, -24
 583 0006 82B0     		sub	sp, sp, #8
 584              	.LCFI8:
 585              		.cfi_def_cfa_offset 32
 586 0008 0600     		movs	r6, r0
 587 000a 8846     		mov	r8, r1
 588 000c 1700     		movs	r7, r2
 168:libscpi/src/parser.c ****     const scpi_command_t * cmd;
 589              		.loc 1 168 5 is_stmt 1 view .LVU126
 169:libscpi/src/parser.c **** 
 590              		.loc 1 169 5 view .LVU127
 171:libscpi/src/parser.c ****         cmd = &context->cmdlist[i];
 591              		.loc 1 171 5 view .LVU128
 592              	.LVL55:
 171:libscpi/src/parser.c ****         cmd = &context->cmdlist[i];
 593              		.loc 1 171 12 is_stmt 0 view .LVU129
 594 000e 0025     		movs	r5, #0
 595              	.LVL56:
 596              	.L45:
 171:libscpi/src/parser.c ****         cmd = &context->cmdlist[i];
 597              		.loc 1 171 17 is_stmt 1 discriminator 1 view .LVU130
 171:libscpi/src/parser.c ****         cmd = &context->cmdlist[i];
 598              		.loc 1 171 33 is_stmt 0 discriminator 1 view .LVU131
 599 0010 6B00     		lsls	r3, r5, #1
 600 0012 5B19     		adds	r3, r3, r5
 601 0014 9B00     		lsls	r3, r3, #2
 602 0016 3268     		ldr	r2, [r6]
 603 0018 D418     		adds	r4, r2, r3
 171:libscpi/src/parser.c ****         cmd = &context->cmdlist[i];
 604              		.loc 1 171 36 discriminator 1 view .LVU132
 605 001a 2068     		ldr	r0, [r4]
 171:libscpi/src/parser.c ****         cmd = &context->cmdlist[i];
 606              		.loc 1 171 5 discriminator 1 view .LVU133
 607 001c 0028     		cmp	r0, #0
 608 001e 0BD0     		beq	.L47
 172:libscpi/src/parser.c ****         if (matchCommand(cmd->pattern, header, len, NULL, 0, 0)) {
 609              		.loc 1 172 9 is_stmt 1 view .LVU134
 610              	.LVL57:
 173:libscpi/src/parser.c ****             context->param_list.cmd = cmd;
 611              		.loc 1 173 9 view .LVU135
 173:libscpi/src/parser.c ****             context->param_list.cmd = cmd;
 612              		.loc 1 173 13 is_stmt 0 view .LVU136
 613 0020 0023     		movs	r3, #0
 614 0022 0193     		str	r3, [sp, #4]
 615 0024 0093     		str	r3, [sp]
 616 0026 3A00     		movs	r2, r7
 617 0028 4146     		mov	r1, r8
 618 002a FFF7FEFF 		bl	matchCommand
 619              	.LVL58:
 173:libscpi/src/parser.c ****             context->param_list.cmd = cmd;
 620              		.loc 1 173 12 view .LVU137
ARM GAS  /tmp/ccJs7hvj.s 			page 25


 621 002e 0028     		cmp	r0, #0
 622 0030 01D1     		bne	.L49
 171:libscpi/src/parser.c ****         cmd = &context->cmdlist[i];
 623              		.loc 1 171 54 is_stmt 1 discriminator 2 view .LVU138
 171:libscpi/src/parser.c ****         cmd = &context->cmdlist[i];
 624              		.loc 1 171 55 is_stmt 0 discriminator 2 view .LVU139
 625 0032 0135     		adds	r5, r5, #1
 626              	.LVL59:
 171:libscpi/src/parser.c ****         cmd = &context->cmdlist[i];
 627              		.loc 1 171 55 discriminator 2 view .LVU140
 628 0034 ECE7     		b	.L45
 629              	.L49:
 174:libscpi/src/parser.c ****             return TRUE;
 630              		.loc 1 174 13 is_stmt 1 view .LVU141
 174:libscpi/src/parser.c ****             return TRUE;
 631              		.loc 1 174 37 is_stmt 0 view .LVU142
 632 0036 3461     		str	r4, [r6, #16]
 175:libscpi/src/parser.c ****         }
 633              		.loc 1 175 13 is_stmt 1 view .LVU143
 634              	.LVL60:
 635              	.L47:
 179:libscpi/src/parser.c **** 
 636              		.loc 1 179 1 is_stmt 0 view .LVU144
 637 0038 02B0     		add	sp, sp, #8
 638              		@ sp needed
 639              	.LVL61:
 640              	.LVL62:
 641              	.LVL63:
 642              	.LVL64:
 179:libscpi/src/parser.c **** 
 643              		.loc 1 179 1 view .LVU145
 644 003a 04BC     		pop	{r2}
 645 003c 9046     		mov	r8, r2
 646 003e F0BD     		pop	{r4, r5, r6, r7, pc}
 647              		.cfi_endproc
 648              	.LFE6:
 650              		.section	.text.resultUInt32BaseSign,"ax",%progbits
 651              		.align	1
 652              		.syntax unified
 653              		.code	16
 654              		.thumb_func
 655              		.fpu softvfp
 657              	resultUInt32BaseSign:
 658              	.LVL65:
 659              	.LFB12:
 391:libscpi/src/parser.c ****     char buffer[32 + 1];
 660              		.loc 1 391 99 is_stmt 1 view -0
 661              		.cfi_startproc
 662              		@ args = 0, pretend = 0, frame = 40
 663              		@ frame_needed = 0, uses_anonymous_args = 0
 391:libscpi/src/parser.c ****     char buffer[32 + 1];
 664              		.loc 1 391 99 is_stmt 0 view .LVU147
 665 0000 F0B5     		push	{r4, r5, r6, r7, lr}
 666              	.LCFI9:
 667              		.cfi_def_cfa_offset 20
 668              		.cfi_offset 4, -20
 669              		.cfi_offset 5, -16
ARM GAS  /tmp/ccJs7hvj.s 			page 26


 670              		.cfi_offset 6, -12
 671              		.cfi_offset 7, -8
 672              		.cfi_offset 14, -4
 673 0002 8DB0     		sub	sp, sp, #52
 674              	.LCFI10:
 675              		.cfi_def_cfa_offset 72
 676 0004 0400     		movs	r4, r0
 677 0006 0800     		movs	r0, r1
 678              	.LVL66:
 391:libscpi/src/parser.c ****     char buffer[32 + 1];
 679              		.loc 1 391 99 view .LVU148
 680 0008 1500     		movs	r5, r2
 392:libscpi/src/parser.c ****     const char * basePrefix;
 681              		.loc 1 392 5 is_stmt 1 view .LVU149
 393:libscpi/src/parser.c ****     size_t result = 0;
 682              		.loc 1 393 5 view .LVU150
 394:libscpi/src/parser.c ****     size_t len;
 683              		.loc 1 394 5 view .LVU151
 684              	.LVL67:
 395:libscpi/src/parser.c **** 
 685              		.loc 1 395 5 view .LVU152
 397:libscpi/src/parser.c ****     basePrefix = getBasePrefix(base);
 686              		.loc 1 397 5 view .LVU153
 397:libscpi/src/parser.c ****     basePrefix = getBasePrefix(base);
 687              		.loc 1 397 11 is_stmt 0 view .LVU154
 688 000a 0093     		str	r3, [sp]
 689 000c 1300     		movs	r3, r2
 690              	.LVL68:
 397:libscpi/src/parser.c ****     basePrefix = getBasePrefix(base);
 691              		.loc 1 397 11 view .LVU155
 692 000e 2122     		movs	r2, #33
 693              	.LVL69:
 397:libscpi/src/parser.c ****     basePrefix = getBasePrefix(base);
 694              		.loc 1 397 11 view .LVU156
 695 0010 03A9     		add	r1, sp, #12
 696              	.LVL70:
 397:libscpi/src/parser.c ****     basePrefix = getBasePrefix(base);
 697              		.loc 1 397 11 view .LVU157
 698 0012 FFF7FEFF 		bl	UInt32ToStrBaseSign
 699              	.LVL71:
 397:libscpi/src/parser.c ****     basePrefix = getBasePrefix(base);
 700              		.loc 1 397 11 view .LVU158
 701 0016 0700     		movs	r7, r0
 702              	.LVL72:
 398:libscpi/src/parser.c **** 
 703              		.loc 1 398 5 is_stmt 1 view .LVU159
 398:libscpi/src/parser.c **** 
 704              		.loc 1 398 18 is_stmt 0 view .LVU160
 705 0018 2800     		movs	r0, r5
 706              	.LVL73:
 398:libscpi/src/parser.c **** 
 707              		.loc 1 398 18 view .LVU161
 708 001a FFF7FEFF 		bl	getBasePrefix
 709              	.LVL74:
 710 001e 0600     		movs	r6, r0
 711              	.LVL75:
 400:libscpi/src/parser.c ****     if (basePrefix != NULL) {
ARM GAS  /tmp/ccJs7hvj.s 			page 27


 712              		.loc 1 400 5 is_stmt 1 view .LVU162
 400:libscpi/src/parser.c ****     if (basePrefix != NULL) {
 713              		.loc 1 400 15 is_stmt 0 view .LVU163
 714 0020 2000     		movs	r0, r4
 715              	.LVL76:
 400:libscpi/src/parser.c ****     if (basePrefix != NULL) {
 716              		.loc 1 400 15 view .LVU164
 717 0022 FFF7FEFF 		bl	writeDelimiter
 718              	.LVL77:
 719 0026 0500     		movs	r5, r0
 720              	.LVL78:
 401:libscpi/src/parser.c ****         result += writeData(context, basePrefix, 2);
 721              		.loc 1 401 5 is_stmt 1 view .LVU165
 401:libscpi/src/parser.c ****         result += writeData(context, basePrefix, 2);
 722              		.loc 1 401 8 is_stmt 0 view .LVU166
 723 0028 002E     		cmp	r6, #0
 724 002a 05D0     		beq	.L51
 402:libscpi/src/parser.c ****     }
 725              		.loc 1 402 9 is_stmt 1 view .LVU167
 402:libscpi/src/parser.c ****     }
 726              		.loc 1 402 19 is_stmt 0 view .LVU168
 727 002c 0222     		movs	r2, #2
 728 002e 3100     		movs	r1, r6
 729 0030 2000     		movs	r0, r4
 730              	.LVL79:
 402:libscpi/src/parser.c ****     }
 731              		.loc 1 402 19 view .LVU169
 732 0032 FFF7FEFF 		bl	writeData
 733              	.LVL80:
 402:libscpi/src/parser.c ****     }
 734              		.loc 1 402 16 view .LVU170
 735 0036 2D18     		adds	r5, r5, r0
 736              	.LVL81:
 737              	.L51:
 404:libscpi/src/parser.c ****     context->output_count++;
 738              		.loc 1 404 5 is_stmt 1 view .LVU171
 404:libscpi/src/parser.c ****     context->output_count++;
 739              		.loc 1 404 15 is_stmt 0 view .LVU172
 740 0038 3A00     		movs	r2, r7
 741 003a 03A9     		add	r1, sp, #12
 742 003c 2000     		movs	r0, r4
 743 003e FFF7FEFF 		bl	writeData
 744              	.LVL82:
 404:libscpi/src/parser.c ****     context->output_count++;
 745              		.loc 1 404 12 view .LVU173
 746 0042 2818     		adds	r0, r5, r0
 747              	.LVL83:
 405:libscpi/src/parser.c ****     return result;
 748              		.loc 1 405 5 is_stmt 1 view .LVU174
 405:libscpi/src/parser.c ****     return result;
 749              		.loc 1 405 26 is_stmt 0 view .LVU175
 750 0044 236B     		ldr	r3, [r4, #48]
 751 0046 0133     		adds	r3, r3, #1
 752 0048 2363     		str	r3, [r4, #48]
 406:libscpi/src/parser.c **** }
 753              		.loc 1 406 5 is_stmt 1 view .LVU176
 407:libscpi/src/parser.c **** 
ARM GAS  /tmp/ccJs7hvj.s 			page 28


 754              		.loc 1 407 1 is_stmt 0 view .LVU177
 755 004a 0DB0     		add	sp, sp, #52
 756              		@ sp needed
 757              	.LVL84:
 758              	.LVL85:
 759              	.LVL86:
 407:libscpi/src/parser.c **** 
 760              		.loc 1 407 1 view .LVU178
 761 004c F0BD     		pop	{r4, r5, r6, r7, pc}
 762              		.cfi_endproc
 763              	.LFE12:
 765              		.section	.text.resultUInt64BaseSign,"ax",%progbits
 766              		.align	1
 767              		.syntax unified
 768              		.code	16
 769              		.thumb_func
 770              		.fpu softvfp
 772              	resultUInt64BaseSign:
 773              	.LVL87:
 774              	.LFB13:
 417:libscpi/src/parser.c ****     char buffer[64 + 1];
 775              		.loc 1 417 99 is_stmt 1 view -0
 776              		.cfi_startproc
 777              		@ args = 8, pretend = 0, frame = 72
 778              		@ frame_needed = 0, uses_anonymous_args = 0
 417:libscpi/src/parser.c ****     char buffer[64 + 1];
 779              		.loc 1 417 99 is_stmt 0 view .LVU180
 780 0000 F0B5     		push	{r4, r5, r6, r7, lr}
 781              	.LCFI11:
 782              		.cfi_def_cfa_offset 20
 783              		.cfi_offset 4, -20
 784              		.cfi_offset 5, -16
 785              		.cfi_offset 6, -12
 786              		.cfi_offset 7, -8
 787              		.cfi_offset 14, -4
 788 0002 95B0     		sub	sp, sp, #84
 789              	.LCFI12:
 790              		.cfi_def_cfa_offset 104
 791 0004 0400     		movs	r4, r0
 792 0006 1000     		movs	r0, r2
 793              	.LVL88:
 417:libscpi/src/parser.c ****     char buffer[64 + 1];
 794              		.loc 1 417 99 view .LVU181
 795 0008 1900     		movs	r1, r3
 796 000a 1AAB     		add	r3, sp, #104
 797              	.LVL89:
 417:libscpi/src/parser.c ****     char buffer[64 + 1];
 798              		.loc 1 417 99 view .LVU182
 799 000c 0025     		movs	r5, #0
 800 000e 5D57     		ldrsb	r5, [r3, r5]
 801 0010 1BAB     		add	r3, sp, #108
 802              	.LVL90:
 417:libscpi/src/parser.c ****     char buffer[64 + 1];
 803              		.loc 1 417 99 view .LVU183
 804 0012 1B78     		ldrb	r3, [r3]
 805              	.LVL91:
 418:libscpi/src/parser.c ****     const char * basePrefix;
ARM GAS  /tmp/ccJs7hvj.s 			page 29


 806              		.loc 1 418 5 is_stmt 1 view .LVU184
 419:libscpi/src/parser.c ****     size_t result = 0;
 807              		.loc 1 419 5 view .LVU185
 420:libscpi/src/parser.c ****     size_t len;
 808              		.loc 1 420 5 view .LVU186
 421:libscpi/src/parser.c **** 
 809              		.loc 1 421 5 view .LVU187
 423:libscpi/src/parser.c ****     basePrefix = getBasePrefix(base);
 810              		.loc 1 423 5 view .LVU188
 423:libscpi/src/parser.c ****     basePrefix = getBasePrefix(base);
 811              		.loc 1 423 11 is_stmt 0 view .LVU189
 812 0014 0193     		str	r3, [sp, #4]
 813 0016 0095     		str	r5, [sp]
 814 0018 4123     		movs	r3, #65
 815 001a 03AA     		add	r2, sp, #12
 816              	.LVL92:
 423:libscpi/src/parser.c ****     basePrefix = getBasePrefix(base);
 817              		.loc 1 423 11 view .LVU190
 818 001c FFF7FEFF 		bl	UInt64ToStrBaseSign
 819              	.LVL93:
 820 0020 0700     		movs	r7, r0
 821              	.LVL94:
 424:libscpi/src/parser.c **** 
 822              		.loc 1 424 5 is_stmt 1 view .LVU191
 424:libscpi/src/parser.c **** 
 823              		.loc 1 424 18 is_stmt 0 view .LVU192
 824 0022 2800     		movs	r0, r5
 825              	.LVL95:
 424:libscpi/src/parser.c **** 
 826              		.loc 1 424 18 view .LVU193
 827 0024 FFF7FEFF 		bl	getBasePrefix
 828              	.LVL96:
 829 0028 0600     		movs	r6, r0
 830              	.LVL97:
 426:libscpi/src/parser.c ****     if (basePrefix != NULL) {
 831              		.loc 1 426 5 is_stmt 1 view .LVU194
 426:libscpi/src/parser.c ****     if (basePrefix != NULL) {
 832              		.loc 1 426 15 is_stmt 0 view .LVU195
 833 002a 2000     		movs	r0, r4
 834              	.LVL98:
 426:libscpi/src/parser.c ****     if (basePrefix != NULL) {
 835              		.loc 1 426 15 view .LVU196
 836 002c FFF7FEFF 		bl	writeDelimiter
 837              	.LVL99:
 838 0030 0500     		movs	r5, r0
 839              	.LVL100:
 427:libscpi/src/parser.c ****         result += writeData(context, basePrefix, 2);
 840              		.loc 1 427 5 is_stmt 1 view .LVU197
 427:libscpi/src/parser.c ****         result += writeData(context, basePrefix, 2);
 841              		.loc 1 427 8 is_stmt 0 view .LVU198
 842 0032 002E     		cmp	r6, #0
 843 0034 05D0     		beq	.L53
 428:libscpi/src/parser.c ****     }
 844              		.loc 1 428 9 is_stmt 1 view .LVU199
 428:libscpi/src/parser.c ****     }
 845              		.loc 1 428 19 is_stmt 0 view .LVU200
 846 0036 0222     		movs	r2, #2
ARM GAS  /tmp/ccJs7hvj.s 			page 30


 847 0038 3100     		movs	r1, r6
 848 003a 2000     		movs	r0, r4
 849              	.LVL101:
 428:libscpi/src/parser.c ****     }
 850              		.loc 1 428 19 view .LVU201
 851 003c FFF7FEFF 		bl	writeData
 852              	.LVL102:
 428:libscpi/src/parser.c ****     }
 853              		.loc 1 428 16 view .LVU202
 854 0040 2D18     		adds	r5, r5, r0
 855              	.LVL103:
 856              	.L53:
 430:libscpi/src/parser.c ****     context->output_count++;
 857              		.loc 1 430 5 is_stmt 1 view .LVU203
 430:libscpi/src/parser.c ****     context->output_count++;
 858              		.loc 1 430 15 is_stmt 0 view .LVU204
 859 0042 3A00     		movs	r2, r7
 860 0044 03A9     		add	r1, sp, #12
 861 0046 2000     		movs	r0, r4
 862 0048 FFF7FEFF 		bl	writeData
 863              	.LVL104:
 430:libscpi/src/parser.c ****     context->output_count++;
 864              		.loc 1 430 12 view .LVU205
 865 004c 2818     		adds	r0, r5, r0
 866              	.LVL105:
 431:libscpi/src/parser.c ****     return result;
 867              		.loc 1 431 5 is_stmt 1 view .LVU206
 431:libscpi/src/parser.c ****     return result;
 868              		.loc 1 431 26 is_stmt 0 view .LVU207
 869 004e 236B     		ldr	r3, [r4, #48]
 870 0050 0133     		adds	r3, r3, #1
 871 0052 2363     		str	r3, [r4, #48]
 432:libscpi/src/parser.c **** }
 872              		.loc 1 432 5 is_stmt 1 view .LVU208
 433:libscpi/src/parser.c **** 
 873              		.loc 1 433 1 is_stmt 0 view .LVU209
 874 0054 15B0     		add	sp, sp, #84
 875              		@ sp needed
 876              	.LVL106:
 877              	.LVL107:
 878              	.LVL108:
 433:libscpi/src/parser.c **** 
 879              		.loc 1 433 1 view .LVU210
 880 0056 F0BD     		pop	{r4, r5, r6, r7, pc}
 881              		.cfi_endproc
 882              	.LFE13:
 884              		.section	.text.ParamSignToUInt32,"ax",%progbits
 885              		.align	1
 886              		.syntax unified
 887              		.code	16
 888              		.thumb_func
 889              		.fpu softvfp
 891              	ParamSignToUInt32:
 892              	.LVL109:
 893              	.LFB29:
 680:libscpi/src/parser.c **** 
 681:libscpi/src/parser.c **** /**
ARM GAS  /tmp/ccJs7hvj.s 			page 31


 682:libscpi/src/parser.c ****  * Get one parameter from command line
 683:libscpi/src/parser.c ****  * @param context
 684:libscpi/src/parser.c ****  * @param parameter
 685:libscpi/src/parser.c ****  * @param mandatory
 686:libscpi/src/parser.c ****  * @return
 687:libscpi/src/parser.c ****  */
 688:libscpi/src/parser.c **** scpi_bool_t SCPI_Parameter(scpi_t * context, scpi_parameter_t * parameter, scpi_bool_t mandatory) {
 689:libscpi/src/parser.c ****     lex_state_t * state;
 690:libscpi/src/parser.c **** 
 691:libscpi/src/parser.c ****     if (!parameter) {
 692:libscpi/src/parser.c ****         SCPI_ErrorPush(context, SCPI_ERROR_SYSTEM_ERROR);
 693:libscpi/src/parser.c ****         return FALSE;
 694:libscpi/src/parser.c ****     }
 695:libscpi/src/parser.c **** 
 696:libscpi/src/parser.c ****     invalidateToken(parameter, NULL);
 697:libscpi/src/parser.c **** 
 698:libscpi/src/parser.c ****     state = &context->param_list.lex_state;
 699:libscpi/src/parser.c **** 
 700:libscpi/src/parser.c ****     if (state->pos >= (state->buffer + state->len)) {
 701:libscpi/src/parser.c ****         if (mandatory) {
 702:libscpi/src/parser.c ****             SCPI_ErrorPush(context, SCPI_ERROR_MISSING_PARAMETER);
 703:libscpi/src/parser.c ****         } else {
 704:libscpi/src/parser.c ****             parameter->type = SCPI_TOKEN_PROGRAM_MNEMONIC; /* TODO: select something different */
 705:libscpi/src/parser.c ****         }
 706:libscpi/src/parser.c ****         return FALSE;
 707:libscpi/src/parser.c ****     }
 708:libscpi/src/parser.c ****     if (context->input_count != 0) {
 709:libscpi/src/parser.c ****         scpiLex_Comma(state, parameter);
 710:libscpi/src/parser.c ****         if (parameter->type != SCPI_TOKEN_COMMA) {
 711:libscpi/src/parser.c ****             invalidateToken(parameter, NULL);
 712:libscpi/src/parser.c ****             SCPI_ErrorPush(context, SCPI_ERROR_INVALID_SEPARATOR);
 713:libscpi/src/parser.c ****             return FALSE;
 714:libscpi/src/parser.c ****         }
 715:libscpi/src/parser.c ****     }
 716:libscpi/src/parser.c **** 
 717:libscpi/src/parser.c ****     context->input_count++;
 718:libscpi/src/parser.c **** 
 719:libscpi/src/parser.c ****     scpiParser_parseProgramData(&context->param_list.lex_state, parameter);
 720:libscpi/src/parser.c **** 
 721:libscpi/src/parser.c ****     switch (parameter->type) {
 722:libscpi/src/parser.c ****         case SCPI_TOKEN_HEXNUM:
 723:libscpi/src/parser.c ****         case SCPI_TOKEN_OCTNUM:
 724:libscpi/src/parser.c ****         case SCPI_TOKEN_BINNUM:
 725:libscpi/src/parser.c ****         case SCPI_TOKEN_PROGRAM_MNEMONIC:
 726:libscpi/src/parser.c ****         case SCPI_TOKEN_DECIMAL_NUMERIC_PROGRAM_DATA:
 727:libscpi/src/parser.c ****         case SCPI_TOKEN_DECIMAL_NUMERIC_PROGRAM_DATA_WITH_SUFFIX:
 728:libscpi/src/parser.c ****         case SCPI_TOKEN_ARBITRARY_BLOCK_PROGRAM_DATA:
 729:libscpi/src/parser.c ****         case SCPI_TOKEN_SINGLE_QUOTE_PROGRAM_DATA:
 730:libscpi/src/parser.c ****         case SCPI_TOKEN_DOUBLE_QUOTE_PROGRAM_DATA:
 731:libscpi/src/parser.c ****         case SCPI_TOKEN_PROGRAM_EXPRESSION:
 732:libscpi/src/parser.c ****             return TRUE;
 733:libscpi/src/parser.c ****         default:
 734:libscpi/src/parser.c ****             invalidateToken(parameter, NULL);
 735:libscpi/src/parser.c ****             SCPI_ErrorPush(context, SCPI_ERROR_INVALID_STRING_DATA);
 736:libscpi/src/parser.c ****             return FALSE;
 737:libscpi/src/parser.c ****     }
 738:libscpi/src/parser.c **** }
ARM GAS  /tmp/ccJs7hvj.s 			page 32


 739:libscpi/src/parser.c **** 
 740:libscpi/src/parser.c **** /**
 741:libscpi/src/parser.c ****  * Detect if parameter is number
 742:libscpi/src/parser.c ****  * @param parameter
 743:libscpi/src/parser.c ****  * @param suffixAllowed
 744:libscpi/src/parser.c ****  * @return
 745:libscpi/src/parser.c ****  */
 746:libscpi/src/parser.c **** scpi_bool_t SCPI_ParamIsNumber(scpi_parameter_t * parameter, scpi_bool_t suffixAllowed) {
 747:libscpi/src/parser.c ****     switch (parameter->type) {
 748:libscpi/src/parser.c ****         case SCPI_TOKEN_HEXNUM:
 749:libscpi/src/parser.c ****         case SCPI_TOKEN_OCTNUM:
 750:libscpi/src/parser.c ****         case SCPI_TOKEN_BINNUM:
 751:libscpi/src/parser.c ****         case SCPI_TOKEN_DECIMAL_NUMERIC_PROGRAM_DATA:
 752:libscpi/src/parser.c ****             return TRUE;
 753:libscpi/src/parser.c ****         case SCPI_TOKEN_DECIMAL_NUMERIC_PROGRAM_DATA_WITH_SUFFIX:
 754:libscpi/src/parser.c ****             return suffixAllowed;
 755:libscpi/src/parser.c ****         default:
 756:libscpi/src/parser.c ****             return FALSE;
 757:libscpi/src/parser.c ****     }
 758:libscpi/src/parser.c **** }
 759:libscpi/src/parser.c **** 
 760:libscpi/src/parser.c **** /**
 761:libscpi/src/parser.c ****  * Convert parameter to signed/unsigned 32 bit integer
 762:libscpi/src/parser.c ****  * @param context
 763:libscpi/src/parser.c ****  * @param parameter
 764:libscpi/src/parser.c ****  * @param value result
 765:libscpi/src/parser.c ****  * @param sign
 766:libscpi/src/parser.c ****  * @return TRUE if succesful
 767:libscpi/src/parser.c ****  */
 768:libscpi/src/parser.c **** static scpi_bool_t ParamSignToUInt32(scpi_t * context, scpi_parameter_t * parameter, uint32_t * val
 894              		.loc 1 768 122 is_stmt 1 view -0
 895              		.cfi_startproc
 896              		@ args = 0, pretend = 0, frame = 0
 897              		@ frame_needed = 0, uses_anonymous_args = 0
 898              		.loc 1 768 122 is_stmt 0 view .LVU212
 899 0000 10B5     		push	{r4, lr}
 900              	.LCFI13:
 901              		.cfi_def_cfa_offset 8
 902              		.cfi_offset 4, -8
 903              		.cfi_offset 14, -4
 904 0002 0C00     		movs	r4, r1
 905 0004 111E     		subs	r1, r2, #0
 906              	.LVL110:
 769:libscpi/src/parser.c **** 
 770:libscpi/src/parser.c ****     if (!value) {
 907              		.loc 1 770 5 is_stmt 1 view .LVU213
 908              		.loc 1 770 8 is_stmt 0 view .LVU214
 909 0006 0FD0     		beq	.L65
 771:libscpi/src/parser.c ****         SCPI_ErrorPush(context, SCPI_ERROR_SYSTEM_ERROR);
 772:libscpi/src/parser.c ****         return FALSE;
 773:libscpi/src/parser.c ****     }
 774:libscpi/src/parser.c **** 
 775:libscpi/src/parser.c ****     switch (parameter->type) {
 910              		.loc 1 775 5 is_stmt 1 view .LVU215
 911              		.loc 1 775 22 is_stmt 0 view .LVU216
 912 0008 2078     		ldrb	r0, [r4]
 913              	.LVL111:
ARM GAS  /tmp/ccJs7hvj.s 			page 33


 914              		.loc 1 775 5 view .LVU217
 915 000a 0828     		cmp	r0, #8
 916 000c 29D0     		beq	.L57
 917 000e 12D8     		bhi	.L58
 918 0010 0628     		cmp	r0, #6
 919 0012 1ED0     		beq	.L59
 920 0014 0728     		cmp	r0, #7
 921 0016 0CD1     		bne	.L66
 776:libscpi/src/parser.c ****         case SCPI_TOKEN_HEXNUM:
 777:libscpi/src/parser.c ****             return strBaseToUInt32(parameter->ptr, value, 16) > 0 ? TRUE : FALSE;
 778:libscpi/src/parser.c ****         case SCPI_TOKEN_OCTNUM:
 779:libscpi/src/parser.c ****             return strBaseToUInt32(parameter->ptr, value, 8) > 0 ? TRUE : FALSE;
 922              		.loc 1 779 13 is_stmt 1 view .LVU218
 923              		.loc 1 779 45 is_stmt 0 view .LVU219
 924 0018 6068     		ldr	r0, [r4, #4]
 925              		.loc 1 779 20 view .LVU220
 926 001a 0822     		movs	r2, #8
 927              	.LVL112:
 928              		.loc 1 779 20 view .LVU221
 929 001c FFF7FEFF 		bl	strBaseToUInt32
 930              	.LVL113:
 931              		.loc 1 779 73 view .LVU222
 932 0020 431E     		subs	r3, r0, #1
 933 0022 9841     		sbcs	r0, r0, r3
 934 0024 C0B2     		uxtb	r0, r0
 935 0026 2DE0     		b	.L56
 936              	.LVL114:
 937              	.L65:
 771:libscpi/src/parser.c ****         SCPI_ErrorPush(context, SCPI_ERROR_SYSTEM_ERROR);
 938              		.loc 1 771 9 is_stmt 1 view .LVU223
 939 0028 1749     		ldr	r1, .L68
 940              	.LVL115:
 771:libscpi/src/parser.c ****         SCPI_ErrorPush(context, SCPI_ERROR_SYSTEM_ERROR);
 941              		.loc 1 771 9 is_stmt 0 view .LVU224
 942 002a FFF7FEFF 		bl	SCPI_ErrorPush
 943              	.LVL116:
 772:libscpi/src/parser.c ****     }
 944              		.loc 1 772 9 is_stmt 1 view .LVU225
 772:libscpi/src/parser.c ****     }
 945              		.loc 1 772 16 is_stmt 0 view .LVU226
 946 002e 0020     		movs	r0, #0
 947 0030 28E0     		b	.L56
 948              	.LVL117:
 949              	.L66:
 775:libscpi/src/parser.c ****         case SCPI_TOKEN_HEXNUM:
 950              		.loc 1 775 5 view .LVU227
 951 0032 0020     		movs	r0, #0
 952 0034 26E0     		b	.L56
 953              	.L58:
 954 0036 0A38     		subs	r0, r0, #10
 955 0038 C0B2     		uxtb	r0, r0
 956 003a 0128     		cmp	r0, #1
 957 003c 21D8     		bhi	.L67
 780:libscpi/src/parser.c ****         case SCPI_TOKEN_BINNUM:
 781:libscpi/src/parser.c ****             return strBaseToUInt32(parameter->ptr, value, 2) > 0 ? TRUE : FALSE;
 782:libscpi/src/parser.c ****         case SCPI_TOKEN_DECIMAL_NUMERIC_PROGRAM_DATA:
 783:libscpi/src/parser.c ****         case SCPI_TOKEN_DECIMAL_NUMERIC_PROGRAM_DATA_WITH_SUFFIX:
ARM GAS  /tmp/ccJs7hvj.s 			page 34


 784:libscpi/src/parser.c ****             if (sign) {
 958              		.loc 1 784 13 is_stmt 1 view .LVU228
 959              		.loc 1 784 16 is_stmt 0 view .LVU229
 960 003e 002B     		cmp	r3, #0
 961 0040 17D0     		beq	.L62
 785:libscpi/src/parser.c ****                 return strBaseToInt32(parameter->ptr, (int32_t *) value, 10) > 0 ? TRUE : FALSE;
 962              		.loc 1 785 17 is_stmt 1 view .LVU230
 963              		.loc 1 785 48 is_stmt 0 view .LVU231
 964 0042 6068     		ldr	r0, [r4, #4]
 965              		.loc 1 785 24 view .LVU232
 966 0044 0A22     		movs	r2, #10
 967 0046 FFF7FEFF 		bl	strBaseToInt32
 968              	.LVL118:
 969              		.loc 1 785 89 view .LVU233
 970 004a 431E     		subs	r3, r0, #1
 971 004c 9841     		sbcs	r0, r0, r3
 972 004e C0B2     		uxtb	r0, r0
 973 0050 18E0     		b	.L56
 974              	.LVL119:
 975              	.L59:
 777:libscpi/src/parser.c ****         case SCPI_TOKEN_OCTNUM:
 976              		.loc 1 777 13 is_stmt 1 view .LVU234
 777:libscpi/src/parser.c ****         case SCPI_TOKEN_OCTNUM:
 977              		.loc 1 777 45 is_stmt 0 view .LVU235
 978 0052 6068     		ldr	r0, [r4, #4]
 777:libscpi/src/parser.c ****         case SCPI_TOKEN_OCTNUM:
 979              		.loc 1 777 20 view .LVU236
 980 0054 1022     		movs	r2, #16
 981 0056 FFF7FEFF 		bl	strBaseToUInt32
 982              	.LVL120:
 777:libscpi/src/parser.c ****         case SCPI_TOKEN_OCTNUM:
 983              		.loc 1 777 74 view .LVU237
 984 005a 431E     		subs	r3, r0, #1
 985 005c 9841     		sbcs	r0, r0, r3
 986 005e C0B2     		uxtb	r0, r0
 987 0060 10E0     		b	.L56
 988              	.LVL121:
 989              	.L57:
 781:libscpi/src/parser.c ****         case SCPI_TOKEN_DECIMAL_NUMERIC_PROGRAM_DATA:
 990              		.loc 1 781 13 is_stmt 1 view .LVU238
 781:libscpi/src/parser.c ****         case SCPI_TOKEN_DECIMAL_NUMERIC_PROGRAM_DATA:
 991              		.loc 1 781 45 is_stmt 0 view .LVU239
 992 0062 6068     		ldr	r0, [r4, #4]
 781:libscpi/src/parser.c ****         case SCPI_TOKEN_DECIMAL_NUMERIC_PROGRAM_DATA:
 993              		.loc 1 781 20 view .LVU240
 994 0064 0222     		movs	r2, #2
 995 0066 FFF7FEFF 		bl	strBaseToUInt32
 996              	.LVL122:
 781:libscpi/src/parser.c ****         case SCPI_TOKEN_DECIMAL_NUMERIC_PROGRAM_DATA:
 997              		.loc 1 781 73 view .LVU241
 998 006a 431E     		subs	r3, r0, #1
 999 006c 9841     		sbcs	r0, r0, r3
 1000 006e C0B2     		uxtb	r0, r0
 1001 0070 08E0     		b	.L56
 1002              	.LVL123:
 1003              	.L62:
 786:libscpi/src/parser.c ****             } else {
ARM GAS  /tmp/ccJs7hvj.s 			page 35


 787:libscpi/src/parser.c ****                 return strBaseToUInt32(parameter->ptr, value, 10) > 0 ? TRUE : FALSE;
 1004              		.loc 1 787 17 is_stmt 1 view .LVU242
 1005              		.loc 1 787 49 is_stmt 0 view .LVU243
 1006 0072 6068     		ldr	r0, [r4, #4]
 1007              		.loc 1 787 24 view .LVU244
 1008 0074 0A22     		movs	r2, #10
 1009 0076 FFF7FEFF 		bl	strBaseToUInt32
 1010              	.LVL124:
 1011              		.loc 1 787 78 view .LVU245
 1012 007a 431E     		subs	r3, r0, #1
 1013 007c 9841     		sbcs	r0, r0, r3
 1014 007e C0B2     		uxtb	r0, r0
 1015 0080 00E0     		b	.L56
 1016              	.LVL125:
 1017              	.L67:
 775:libscpi/src/parser.c ****         case SCPI_TOKEN_HEXNUM:
 1018              		.loc 1 775 5 view .LVU246
 1019 0082 0020     		movs	r0, #0
 1020              	.LVL126:
 1021              	.L56:
 788:libscpi/src/parser.c ****             }
 789:libscpi/src/parser.c ****         default:
 790:libscpi/src/parser.c ****             return FALSE;
 791:libscpi/src/parser.c ****     }
 792:libscpi/src/parser.c **** }
 1022              		.loc 1 792 1 view .LVU247
 1023              		@ sp needed
 1024              	.LVL127:
 1025              		.loc 1 792 1 view .LVU248
 1026 0084 10BD     		pop	{r4, pc}
 1027              	.L69:
 1028 0086 C046     		.align	2
 1029              	.L68:
 1030 0088 CAFEFFFF 		.word	-310
 1031              		.cfi_endproc
 1032              	.LFE29:
 1034              		.section	.text.ParamSignToUInt64,"ax",%progbits
 1035              		.align	1
 1036              		.syntax unified
 1037              		.code	16
 1038              		.thumb_func
 1039              		.fpu softvfp
 1041              	ParamSignToUInt64:
 1042              	.LVL128:
 1043              	.LFB30:
 793:libscpi/src/parser.c **** 
 794:libscpi/src/parser.c **** /**
 795:libscpi/src/parser.c ****  * Convert parameter to signed/unsigned 64 bit integer
 796:libscpi/src/parser.c ****  * @param context
 797:libscpi/src/parser.c ****  * @param parameter
 798:libscpi/src/parser.c ****  * @param value result
 799:libscpi/src/parser.c ****  * @param sign
 800:libscpi/src/parser.c ****  * @return TRUE if succesful
 801:libscpi/src/parser.c ****  */
 802:libscpi/src/parser.c **** static scpi_bool_t ParamSignToUInt64(scpi_t * context, scpi_parameter_t * parameter, uint64_t * val
 1044              		.loc 1 802 122 is_stmt 1 view -0
 1045              		.cfi_startproc
ARM GAS  /tmp/ccJs7hvj.s 			page 36


 1046              		@ args = 0, pretend = 0, frame = 0
 1047              		@ frame_needed = 0, uses_anonymous_args = 0
 1048              		.loc 1 802 122 is_stmt 0 view .LVU250
 1049 0000 10B5     		push	{r4, lr}
 1050              	.LCFI14:
 1051              		.cfi_def_cfa_offset 8
 1052              		.cfi_offset 4, -8
 1053              		.cfi_offset 14, -4
 1054 0002 0C00     		movs	r4, r1
 1055 0004 111E     		subs	r1, r2, #0
 1056              	.LVL129:
 803:libscpi/src/parser.c **** 
 804:libscpi/src/parser.c ****     if (!value) {
 1057              		.loc 1 804 5 is_stmt 1 view .LVU251
 1058              		.loc 1 804 8 is_stmt 0 view .LVU252
 1059 0006 0FD0     		beq	.L81
 805:libscpi/src/parser.c ****         SCPI_ErrorPush(context, SCPI_ERROR_SYSTEM_ERROR);
 806:libscpi/src/parser.c ****         return FALSE;
 807:libscpi/src/parser.c ****     }
 808:libscpi/src/parser.c **** 
 809:libscpi/src/parser.c ****     switch (parameter->type) {
 1060              		.loc 1 809 5 is_stmt 1 view .LVU253
 1061              		.loc 1 809 22 is_stmt 0 view .LVU254
 1062 0008 2078     		ldrb	r0, [r4]
 1063              	.LVL130:
 1064              		.loc 1 809 5 view .LVU255
 1065 000a 0828     		cmp	r0, #8
 1066 000c 29D0     		beq	.L73
 1067 000e 12D8     		bhi	.L74
 1068 0010 0628     		cmp	r0, #6
 1069 0012 1ED0     		beq	.L75
 1070 0014 0728     		cmp	r0, #7
 1071 0016 0CD1     		bne	.L82
 810:libscpi/src/parser.c ****         case SCPI_TOKEN_HEXNUM:
 811:libscpi/src/parser.c ****             return strBaseToUInt64(parameter->ptr, value, 16) > 0 ? TRUE : FALSE;
 812:libscpi/src/parser.c ****         case SCPI_TOKEN_OCTNUM:
 813:libscpi/src/parser.c ****             return strBaseToUInt64(parameter->ptr, value, 8) > 0 ? TRUE : FALSE;
 1072              		.loc 1 813 13 is_stmt 1 view .LVU256
 1073              		.loc 1 813 45 is_stmt 0 view .LVU257
 1074 0018 6068     		ldr	r0, [r4, #4]
 1075              		.loc 1 813 20 view .LVU258
 1076 001a 0822     		movs	r2, #8
 1077              	.LVL131:
 1078              		.loc 1 813 20 view .LVU259
 1079 001c FFF7FEFF 		bl	strBaseToUInt64
 1080              	.LVL132:
 1081              		.loc 1 813 73 view .LVU260
 1082 0020 431E     		subs	r3, r0, #1
 1083 0022 9841     		sbcs	r0, r0, r3
 1084 0024 C0B2     		uxtb	r0, r0
 1085 0026 2DE0     		b	.L72
 1086              	.LVL133:
 1087              	.L81:
 805:libscpi/src/parser.c ****         SCPI_ErrorPush(context, SCPI_ERROR_SYSTEM_ERROR);
 1088              		.loc 1 805 9 is_stmt 1 view .LVU261
 1089 0028 1749     		ldr	r1, .L84
 1090              	.LVL134:
ARM GAS  /tmp/ccJs7hvj.s 			page 37


 805:libscpi/src/parser.c ****         SCPI_ErrorPush(context, SCPI_ERROR_SYSTEM_ERROR);
 1091              		.loc 1 805 9 is_stmt 0 view .LVU262
 1092 002a FFF7FEFF 		bl	SCPI_ErrorPush
 1093              	.LVL135:
 806:libscpi/src/parser.c ****     }
 1094              		.loc 1 806 9 is_stmt 1 view .LVU263
 806:libscpi/src/parser.c ****     }
 1095              		.loc 1 806 16 is_stmt 0 view .LVU264
 1096 002e 0020     		movs	r0, #0
 1097 0030 28E0     		b	.L72
 1098              	.LVL136:
 1099              	.L82:
 809:libscpi/src/parser.c ****         case SCPI_TOKEN_HEXNUM:
 1100              		.loc 1 809 5 view .LVU265
 1101 0032 0020     		movs	r0, #0
 1102 0034 26E0     		b	.L72
 1103              	.L74:
 1104 0036 0A38     		subs	r0, r0, #10
 1105 0038 C0B2     		uxtb	r0, r0
 1106 003a 0128     		cmp	r0, #1
 1107 003c 21D8     		bhi	.L83
 814:libscpi/src/parser.c ****         case SCPI_TOKEN_BINNUM:
 815:libscpi/src/parser.c ****             return strBaseToUInt64(parameter->ptr, value, 2) > 0 ? TRUE : FALSE;
 816:libscpi/src/parser.c ****         case SCPI_TOKEN_DECIMAL_NUMERIC_PROGRAM_DATA:
 817:libscpi/src/parser.c ****         case SCPI_TOKEN_DECIMAL_NUMERIC_PROGRAM_DATA_WITH_SUFFIX:
 818:libscpi/src/parser.c ****             if (sign) {
 1108              		.loc 1 818 13 is_stmt 1 view .LVU266
 1109              		.loc 1 818 16 is_stmt 0 view .LVU267
 1110 003e 002B     		cmp	r3, #0
 1111 0040 17D0     		beq	.L78
 819:libscpi/src/parser.c ****                 return strBaseToInt64(parameter->ptr, (int64_t *) value, 10) > 0 ? TRUE : FALSE;
 1112              		.loc 1 819 17 is_stmt 1 view .LVU268
 1113              		.loc 1 819 48 is_stmt 0 view .LVU269
 1114 0042 6068     		ldr	r0, [r4, #4]
 1115              		.loc 1 819 24 view .LVU270
 1116 0044 0A22     		movs	r2, #10
 1117 0046 FFF7FEFF 		bl	strBaseToInt64
 1118              	.LVL137:
 1119              		.loc 1 819 89 view .LVU271
 1120 004a 431E     		subs	r3, r0, #1
 1121 004c 9841     		sbcs	r0, r0, r3
 1122 004e C0B2     		uxtb	r0, r0
 1123 0050 18E0     		b	.L72
 1124              	.LVL138:
 1125              	.L75:
 811:libscpi/src/parser.c ****         case SCPI_TOKEN_OCTNUM:
 1126              		.loc 1 811 13 is_stmt 1 view .LVU272
 811:libscpi/src/parser.c ****         case SCPI_TOKEN_OCTNUM:
 1127              		.loc 1 811 45 is_stmt 0 view .LVU273
 1128 0052 6068     		ldr	r0, [r4, #4]
 811:libscpi/src/parser.c ****         case SCPI_TOKEN_OCTNUM:
 1129              		.loc 1 811 20 view .LVU274
 1130 0054 1022     		movs	r2, #16
 1131 0056 FFF7FEFF 		bl	strBaseToUInt64
 1132              	.LVL139:
 811:libscpi/src/parser.c ****         case SCPI_TOKEN_OCTNUM:
 1133              		.loc 1 811 74 view .LVU275
ARM GAS  /tmp/ccJs7hvj.s 			page 38


 1134 005a 431E     		subs	r3, r0, #1
 1135 005c 9841     		sbcs	r0, r0, r3
 1136 005e C0B2     		uxtb	r0, r0
 1137 0060 10E0     		b	.L72
 1138              	.LVL140:
 1139              	.L73:
 815:libscpi/src/parser.c ****         case SCPI_TOKEN_DECIMAL_NUMERIC_PROGRAM_DATA:
 1140              		.loc 1 815 13 is_stmt 1 view .LVU276
 815:libscpi/src/parser.c ****         case SCPI_TOKEN_DECIMAL_NUMERIC_PROGRAM_DATA:
 1141              		.loc 1 815 45 is_stmt 0 view .LVU277
 1142 0062 6068     		ldr	r0, [r4, #4]
 815:libscpi/src/parser.c ****         case SCPI_TOKEN_DECIMAL_NUMERIC_PROGRAM_DATA:
 1143              		.loc 1 815 20 view .LVU278
 1144 0064 0222     		movs	r2, #2
 1145 0066 FFF7FEFF 		bl	strBaseToUInt64
 1146              	.LVL141:
 815:libscpi/src/parser.c ****         case SCPI_TOKEN_DECIMAL_NUMERIC_PROGRAM_DATA:
 1147              		.loc 1 815 73 view .LVU279
 1148 006a 431E     		subs	r3, r0, #1
 1149 006c 9841     		sbcs	r0, r0, r3
 1150 006e C0B2     		uxtb	r0, r0
 1151 0070 08E0     		b	.L72
 1152              	.LVL142:
 1153              	.L78:
 820:libscpi/src/parser.c ****             } else {
 821:libscpi/src/parser.c ****                 return strBaseToUInt64(parameter->ptr, value, 10) > 0 ? TRUE : FALSE;
 1154              		.loc 1 821 17 is_stmt 1 view .LVU280
 1155              		.loc 1 821 49 is_stmt 0 view .LVU281
 1156 0072 6068     		ldr	r0, [r4, #4]
 1157              		.loc 1 821 24 view .LVU282
 1158 0074 0A22     		movs	r2, #10
 1159 0076 FFF7FEFF 		bl	strBaseToUInt64
 1160              	.LVL143:
 1161              		.loc 1 821 78 view .LVU283
 1162 007a 431E     		subs	r3, r0, #1
 1163 007c 9841     		sbcs	r0, r0, r3
 1164 007e C0B2     		uxtb	r0, r0
 1165 0080 00E0     		b	.L72
 1166              	.LVL144:
 1167              	.L83:
 809:libscpi/src/parser.c ****         case SCPI_TOKEN_HEXNUM:
 1168              		.loc 1 809 5 view .LVU284
 1169 0082 0020     		movs	r0, #0
 1170              	.LVL145:
 1171              	.L72:
 822:libscpi/src/parser.c ****             }
 823:libscpi/src/parser.c ****         default:
 824:libscpi/src/parser.c ****             return FALSE;
 825:libscpi/src/parser.c ****     }
 826:libscpi/src/parser.c **** }
 1172              		.loc 1 826 1 view .LVU285
 1173              		@ sp needed
 1174              	.LVL146:
 1175              		.loc 1 826 1 view .LVU286
 1176 0084 10BD     		pop	{r4, pc}
 1177              	.L85:
 1178 0086 C046     		.align	2
ARM GAS  /tmp/ccJs7hvj.s 			page 39


 1179              	.L84:
 1180 0088 CAFEFFFF 		.word	-310
 1181              		.cfi_endproc
 1182              	.LFE30:
 1184              		.section	.text.SCPI_Init,"ax",%progbits
 1185              		.align	1
 1186              		.global	SCPI_Init
 1187              		.syntax unified
 1188              		.code	16
 1189              		.thumb_func
 1190              		.fpu softvfp
 1192              	SCPI_Init:
 1193              	.LVL147:
 1194              	.LFB8:
 268:libscpi/src/parser.c ****     memset(context, 0, sizeof (*context));
 1195              		.loc 1 268 68 is_stmt 1 view -0
 1196              		.cfi_startproc
 1197              		@ args = 32, pretend = 0, frame = 0
 1198              		@ frame_needed = 0, uses_anonymous_args = 0
 268:libscpi/src/parser.c ****     memset(context, 0, sizeof (*context));
 1199              		.loc 1 268 68 is_stmt 0 view .LVU288
 1200 0000 F0B5     		push	{r4, r5, r6, r7, lr}
 1201              	.LCFI15:
 1202              		.cfi_def_cfa_offset 20
 1203              		.cfi_offset 4, -20
 1204              		.cfi_offset 5, -16
 1205              		.cfi_offset 6, -12
 1206              		.cfi_offset 7, -8
 1207              		.cfi_offset 14, -4
 1208 0002 C646     		mov	lr, r8
 1209 0004 00B5     		push	{lr}
 1210              	.LCFI16:
 1211              		.cfi_def_cfa_offset 24
 1212              		.cfi_offset 8, -24
 1213 0006 0400     		movs	r4, r0
 1214 0008 0F00     		movs	r7, r1
 1215 000a 1600     		movs	r6, r2
 1216 000c 1D00     		movs	r5, r3
 1217 000e 0DAB     		add	r3, sp, #52
 1218              	.LVL148:
 268:libscpi/src/parser.c ****     memset(context, 0, sizeof (*context));
 1219              		.loc 1 268 68 view .LVU289
 1220 0010 0022     		movs	r2, #0
 1221 0012 9B5E     		ldrsh	r3, [r3, r2]
 1222              	.LVL149:
 268:libscpi/src/parser.c ****     memset(context, 0, sizeof (*context));
 1223              		.loc 1 268 68 view .LVU290
 1224 0014 9846     		mov	r8, r3
 269:libscpi/src/parser.c ****     context->cmdlist = commands;
 1225              		.loc 1 269 5 is_stmt 1 view .LVU291
 1226 0016 1030     		adds	r0, r0, #16
 1227              	.LVL150:
 269:libscpi/src/parser.c ****     context->cmdlist = commands;
 1228              		.loc 1 269 5 is_stmt 0 view .LVU292
 1229 0018 8822     		movs	r2, #136
 1230 001a 0021     		movs	r1, #0
 1231              	.LVL151:
ARM GAS  /tmp/ccJs7hvj.s 			page 40


 269:libscpi/src/parser.c ****     context->cmdlist = commands;
 1232              		.loc 1 269 5 view .LVU293
 1233 001c FFF7FEFF 		bl	memset
 1234              	.LVL152:
 270:libscpi/src/parser.c ****     context->interface = interface;
 1235              		.loc 1 270 5 is_stmt 1 view .LVU294
 270:libscpi/src/parser.c ****     context->interface = interface;
 1236              		.loc 1 270 22 is_stmt 0 view .LVU295
 1237 0020 2760     		str	r7, [r4]
 271:libscpi/src/parser.c ****     context->units = units;
 1238              		.loc 1 271 5 is_stmt 1 view .LVU296
 271:libscpi/src/parser.c ****     context->units = units;
 1239              		.loc 1 271 24 is_stmt 0 view .LVU297
 1240 0022 E662     		str	r6, [r4, #44]
 272:libscpi/src/parser.c ****     context->idn[0] = idn1;
 1241              		.loc 1 272 5 is_stmt 1 view .LVU298
 272:libscpi/src/parser.c ****     context->idn[0] = idn1;
 1242              		.loc 1 272 20 is_stmt 0 view .LVU299
 1243 0024 E565     		str	r5, [r4, #92]
 273:libscpi/src/parser.c ****     context->idn[1] = idn2;
 1244              		.loc 1 273 5 is_stmt 1 view .LVU300
 273:libscpi/src/parser.c ****     context->idn[1] = idn2;
 1245              		.loc 1 273 21 is_stmt 0 view .LVU301
 1246 0026 8423     		movs	r3, #132
 1247 0028 069A     		ldr	r2, [sp, #24]
 1248 002a E250     		str	r2, [r4, r3]
 274:libscpi/src/parser.c ****     context->idn[2] = idn3;
 1249              		.loc 1 274 5 is_stmt 1 view .LVU302
 274:libscpi/src/parser.c ****     context->idn[2] = idn3;
 1250              		.loc 1 274 21 is_stmt 0 view .LVU303
 1251 002c 0433     		adds	r3, r3, #4
 1252 002e 079A     		ldr	r2, [sp, #28]
 1253 0030 E250     		str	r2, [r4, r3]
 275:libscpi/src/parser.c ****     context->idn[3] = idn4;
 1254              		.loc 1 275 5 is_stmt 1 view .LVU304
 275:libscpi/src/parser.c ****     context->idn[3] = idn4;
 1255              		.loc 1 275 21 is_stmt 0 view .LVU305
 1256 0032 0433     		adds	r3, r3, #4
 1257 0034 089A     		ldr	r2, [sp, #32]
 1258 0036 E250     		str	r2, [r4, r3]
 276:libscpi/src/parser.c ****     context->buffer.data = input_buffer;
 1259              		.loc 1 276 5 is_stmt 1 view .LVU306
 276:libscpi/src/parser.c ****     context->buffer.data = input_buffer;
 1260              		.loc 1 276 21 is_stmt 0 view .LVU307
 1261 0038 0433     		adds	r3, r3, #4
 1262 003a 099A     		ldr	r2, [sp, #36]
 1263 003c E250     		str	r2, [r4, r3]
 277:libscpi/src/parser.c ****     context->buffer.length = input_buffer_length;
 1264              		.loc 1 277 5 is_stmt 1 view .LVU308
 277:libscpi/src/parser.c ****     context->buffer.length = input_buffer_length;
 1265              		.loc 1 277 26 is_stmt 0 view .LVU309
 1266 003e 0A9B     		ldr	r3, [sp, #40]
 1267 0040 E360     		str	r3, [r4, #12]
 278:libscpi/src/parser.c ****     context->buffer.position = 0;
 1268              		.loc 1 278 5 is_stmt 1 view .LVU310
 278:libscpi/src/parser.c ****     context->buffer.position = 0;
 1269              		.loc 1 278 28 is_stmt 0 view .LVU311
ARM GAS  /tmp/ccJs7hvj.s 			page 41


 1270 0042 0B9B     		ldr	r3, [sp, #44]
 1271 0044 6360     		str	r3, [r4, #4]
 279:libscpi/src/parser.c ****     SCPI_ErrorInit(context, error_queue_data, error_queue_size);
 1272              		.loc 1 279 5 is_stmt 1 view .LVU312
 279:libscpi/src/parser.c ****     SCPI_ErrorInit(context, error_queue_data, error_queue_size);
 1273              		.loc 1 279 30 is_stmt 0 view .LVU313
 1274 0046 0023     		movs	r3, #0
 1275 0048 A360     		str	r3, [r4, #8]
 280:libscpi/src/parser.c **** }
 1276              		.loc 1 280 5 is_stmt 1 view .LVU314
 1277 004a 4246     		mov	r2, r8
 1278 004c 0C99     		ldr	r1, [sp, #48]
 1279 004e 2000     		movs	r0, r4
 1280 0050 FFF7FEFF 		bl	SCPI_ErrorInit
 1281              	.LVL153:
 281:libscpi/src/parser.c **** 
 1282              		.loc 1 281 1 is_stmt 0 view .LVU315
 1283              		@ sp needed
 1284              	.LVL154:
 1285              	.LVL155:
 1286              	.LVL156:
 1287              	.LVL157:
 281:libscpi/src/parser.c **** 
 1288              		.loc 1 281 1 view .LVU316
 1289 0054 04BC     		pop	{r2}
 1290 0056 9046     		mov	r8, r2
 1291 0058 F0BD     		pop	{r4, r5, r6, r7, pc}
 1292              		.cfi_endproc
 1293              	.LFE8:
 1295              		.section	.text.SCPI_ResultCharacters,"ax",%progbits
 1296              		.align	1
 1297              		.global	SCPI_ResultCharacters
 1298              		.syntax unified
 1299              		.code	16
 1300              		.thumb_func
 1301              		.fpu softvfp
 1303              	SCPI_ResultCharacters:
 1304              	.LVL158:
 1305              	.LFB10:
 361:libscpi/src/parser.c ****     size_t result = 0;
 1306              		.loc 1 361 79 is_stmt 1 view -0
 1307              		.cfi_startproc
 1308              		@ args = 0, pretend = 0, frame = 0
 1309              		@ frame_needed = 0, uses_anonymous_args = 0
 361:libscpi/src/parser.c ****     size_t result = 0;
 1310              		.loc 1 361 79 is_stmt 0 view .LVU318
 1311 0000 F8B5     		push	{r3, r4, r5, r6, r7, lr}
 1312              	.LCFI17:
 1313              		.cfi_def_cfa_offset 24
 1314              		.cfi_offset 3, -24
 1315              		.cfi_offset 4, -20
 1316              		.cfi_offset 5, -16
 1317              		.cfi_offset 6, -12
 1318              		.cfi_offset 7, -8
 1319              		.cfi_offset 14, -4
 1320 0002 0400     		movs	r4, r0
 1321 0004 0E00     		movs	r6, r1
ARM GAS  /tmp/ccJs7hvj.s 			page 42


 1322 0006 1700     		movs	r7, r2
 362:libscpi/src/parser.c ****     result += writeDelimiter(context);
 1323              		.loc 1 362 5 is_stmt 1 view .LVU319
 1324              	.LVL159:
 363:libscpi/src/parser.c ****     result += writeData(context, data, len);
 1325              		.loc 1 363 5 view .LVU320
 363:libscpi/src/parser.c ****     result += writeData(context, data, len);
 1326              		.loc 1 363 15 is_stmt 0 view .LVU321
 1327 0008 FFF7FEFF 		bl	writeDelimiter
 1328              	.LVL160:
 363:libscpi/src/parser.c ****     result += writeData(context, data, len);
 1329              		.loc 1 363 15 view .LVU322
 1330 000c 0500     		movs	r5, r0
 1331              	.LVL161:
 364:libscpi/src/parser.c ****     context->output_count++;
 1332              		.loc 1 364 5 is_stmt 1 view .LVU323
 364:libscpi/src/parser.c ****     context->output_count++;
 1333              		.loc 1 364 15 is_stmt 0 view .LVU324
 1334 000e 3A00     		movs	r2, r7
 1335 0010 3100     		movs	r1, r6
 1336 0012 2000     		movs	r0, r4
 1337              	.LVL162:
 364:libscpi/src/parser.c ****     context->output_count++;
 1338              		.loc 1 364 15 view .LVU325
 1339 0014 FFF7FEFF 		bl	writeData
 1340              	.LVL163:
 364:libscpi/src/parser.c ****     context->output_count++;
 1341              		.loc 1 364 12 view .LVU326
 1342 0018 2818     		adds	r0, r5, r0
 1343              	.LVL164:
 365:libscpi/src/parser.c ****     return result;
 1344              		.loc 1 365 5 is_stmt 1 view .LVU327
 365:libscpi/src/parser.c ****     return result;
 1345              		.loc 1 365 26 is_stmt 0 view .LVU328
 1346 001a 236B     		ldr	r3, [r4, #48]
 1347 001c 0133     		adds	r3, r3, #1
 1348 001e 2363     		str	r3, [r4, #48]
 366:libscpi/src/parser.c **** }
 1349              		.loc 1 366 5 is_stmt 1 view .LVU329
 367:libscpi/src/parser.c **** 
 1350              		.loc 1 367 1 is_stmt 0 view .LVU330
 1351              		@ sp needed
 1352              	.LVL165:
 1353              	.LVL166:
 1354              	.LVL167:
 367:libscpi/src/parser.c **** 
 1355              		.loc 1 367 1 view .LVU331
 1356 0020 F8BD     		pop	{r3, r4, r5, r6, r7, pc}
 1357              		.cfi_endproc
 1358              	.LFE10:
 1360              		.section	.text.SCPI_ResultInt32,"ax",%progbits
 1361              		.align	1
 1362              		.global	SCPI_ResultInt32
 1363              		.syntax unified
 1364              		.code	16
 1365              		.thumb_func
 1366              		.fpu softvfp
ARM GAS  /tmp/ccJs7hvj.s 			page 43


 1368              	SCPI_ResultInt32:
 1369              	.LVL168:
 1370              	.LFB14:
 441:libscpi/src/parser.c ****     return resultUInt32BaseSign(context, val, 10, TRUE);
 1371              		.loc 1 441 56 is_stmt 1 view -0
 1372              		.cfi_startproc
 1373              		@ args = 0, pretend = 0, frame = 0
 1374              		@ frame_needed = 0, uses_anonymous_args = 0
 441:libscpi/src/parser.c ****     return resultUInt32BaseSign(context, val, 10, TRUE);
 1375              		.loc 1 441 56 is_stmt 0 view .LVU333
 1376 0000 10B5     		push	{r4, lr}
 1377              	.LCFI18:
 1378              		.cfi_def_cfa_offset 8
 1379              		.cfi_offset 4, -8
 1380              		.cfi_offset 14, -4
 442:libscpi/src/parser.c **** }
 1381              		.loc 1 442 5 is_stmt 1 view .LVU334
 442:libscpi/src/parser.c **** }
 1382              		.loc 1 442 12 is_stmt 0 view .LVU335
 1383 0002 0123     		movs	r3, #1
 1384 0004 0A22     		movs	r2, #10
 1385 0006 FFF7FEFF 		bl	resultUInt32BaseSign
 1386              	.LVL169:
 443:libscpi/src/parser.c **** 
 1387              		.loc 1 443 1 view .LVU336
 1388              		@ sp needed
 1389 000a 10BD     		pop	{r4, pc}
 1390              		.cfi_endproc
 1391              	.LFE14:
 1393              		.section	.text.SCPI_ResultUInt32Base,"ax",%progbits
 1394              		.align	1
 1395              		.global	SCPI_ResultUInt32Base
 1396              		.syntax unified
 1397              		.code	16
 1398              		.thumb_func
 1399              		.fpu softvfp
 1401              	SCPI_ResultUInt32Base:
 1402              	.LVL170:
 1403              	.LFB15:
 452:libscpi/src/parser.c ****     return resultUInt32BaseSign(context, val, base, FALSE);
 1404              		.loc 1 452 75 is_stmt 1 view -0
 1405              		.cfi_startproc
 1406              		@ args = 0, pretend = 0, frame = 0
 1407              		@ frame_needed = 0, uses_anonymous_args = 0
 452:libscpi/src/parser.c ****     return resultUInt32BaseSign(context, val, base, FALSE);
 1408              		.loc 1 452 75 is_stmt 0 view .LVU338
 1409 0000 10B5     		push	{r4, lr}
 1410              	.LCFI19:
 1411              		.cfi_def_cfa_offset 8
 1412              		.cfi_offset 4, -8
 1413              		.cfi_offset 14, -4
 453:libscpi/src/parser.c **** }
 1414              		.loc 1 453 5 is_stmt 1 view .LVU339
 453:libscpi/src/parser.c **** }
 1415              		.loc 1 453 12 is_stmt 0 view .LVU340
 1416 0002 0023     		movs	r3, #0
 1417 0004 FFF7FEFF 		bl	resultUInt32BaseSign
ARM GAS  /tmp/ccJs7hvj.s 			page 44


 1418              	.LVL171:
 454:libscpi/src/parser.c **** 
 1419              		.loc 1 454 1 view .LVU341
 1420              		@ sp needed
 1421 0008 10BD     		pop	{r4, pc}
 1422              		.cfi_endproc
 1423              	.LFE15:
 1425              		.section	.text.SCPI_ResultInt64,"ax",%progbits
 1426              		.align	1
 1427              		.global	SCPI_ResultInt64
 1428              		.syntax unified
 1429              		.code	16
 1430              		.thumb_func
 1431              		.fpu softvfp
 1433              	SCPI_ResultInt64:
 1434              	.LVL172:
 1435              	.LFB16:
 462:libscpi/src/parser.c ****     return resultUInt64BaseSign(context, val, 10, TRUE);
 1436              		.loc 1 462 56 is_stmt 1 view -0
 1437              		.cfi_startproc
 1438              		@ args = 0, pretend = 0, frame = 0
 1439              		@ frame_needed = 0, uses_anonymous_args = 0
 462:libscpi/src/parser.c ****     return resultUInt64BaseSign(context, val, 10, TRUE);
 1440              		.loc 1 462 56 is_stmt 0 view .LVU343
 1441 0000 00B5     		push	{lr}
 1442              	.LCFI20:
 1443              		.cfi_def_cfa_offset 4
 1444              		.cfi_offset 14, -4
 1445 0002 83B0     		sub	sp, sp, #12
 1446              	.LCFI21:
 1447              		.cfi_def_cfa_offset 16
 463:libscpi/src/parser.c **** }
 1448              		.loc 1 463 5 is_stmt 1 view .LVU344
 463:libscpi/src/parser.c **** }
 1449              		.loc 1 463 12 is_stmt 0 view .LVU345
 1450 0004 0121     		movs	r1, #1
 1451 0006 0191     		str	r1, [sp, #4]
 1452 0008 0931     		adds	r1, r1, #9
 1453 000a 0091     		str	r1, [sp]
 1454 000c FFF7FEFF 		bl	resultUInt64BaseSign
 1455              	.LVL173:
 464:libscpi/src/parser.c **** 
 1456              		.loc 1 464 1 view .LVU346
 1457 0010 03B0     		add	sp, sp, #12
 1458              		@ sp needed
 1459 0012 00BD     		pop	{pc}
 1460              		.cfi_endproc
 1461              	.LFE16:
 1463              		.section	.text.SCPI_ResultUInt64Base,"ax",%progbits
 1464              		.align	1
 1465              		.global	SCPI_ResultUInt64Base
 1466              		.syntax unified
 1467              		.code	16
 1468              		.thumb_func
 1469              		.fpu softvfp
 1471              	SCPI_ResultUInt64Base:
 1472              	.LVL174:
ARM GAS  /tmp/ccJs7hvj.s 			page 45


 1473              	.LFB17:
 472:libscpi/src/parser.c ****     return resultUInt64BaseSign(context, val, base, FALSE);
 1474              		.loc 1 472 75 is_stmt 1 view -0
 1475              		.cfi_startproc
 1476              		@ args = 4, pretend = 0, frame = 0
 1477              		@ frame_needed = 0, uses_anonymous_args = 0
 472:libscpi/src/parser.c ****     return resultUInt64BaseSign(context, val, base, FALSE);
 1478              		.loc 1 472 75 is_stmt 0 view .LVU348
 1479 0000 10B5     		push	{r4, lr}
 1480              	.LCFI22:
 1481              		.cfi_def_cfa_offset 8
 1482              		.cfi_offset 4, -8
 1483              		.cfi_offset 14, -4
 1484 0002 82B0     		sub	sp, sp, #8
 1485              	.LCFI23:
 1486              		.cfi_def_cfa_offset 16
 1487 0004 04A9     		add	r1, sp, #16
 1488              	.LVL175:
 472:libscpi/src/parser.c ****     return resultUInt64BaseSign(context, val, base, FALSE);
 1489              		.loc 1 472 75 view .LVU349
 1490 0006 0978     		ldrb	r1, [r1]
 1491              	.LVL176:
 472:libscpi/src/parser.c ****     return resultUInt64BaseSign(context, val, base, FALSE);
 1492              		.loc 1 472 75 view .LVU350
 1493 0008 49B2     		sxtb	r1, r1
 473:libscpi/src/parser.c **** }
 1494              		.loc 1 473 5 is_stmt 1 view .LVU351
 473:libscpi/src/parser.c **** }
 1495              		.loc 1 473 12 is_stmt 0 view .LVU352
 1496 000a 0024     		movs	r4, #0
 1497 000c 0194     		str	r4, [sp, #4]
 1498 000e 0091     		str	r1, [sp]
 1499 0010 FFF7FEFF 		bl	resultUInt64BaseSign
 1500              	.LVL177:
 474:libscpi/src/parser.c **** 
 1501              		.loc 1 474 1 view .LVU353
 1502 0014 02B0     		add	sp, sp, #8
 1503              		@ sp needed
 1504 0016 10BD     		pop	{r4, pc}
 1505              		.cfi_endproc
 1506              	.LFE17:
 1508              		.section	.text.SCPI_ResultFloat,"ax",%progbits
 1509              		.align	1
 1510              		.global	SCPI_ResultFloat
 1511              		.syntax unified
 1512              		.code	16
 1513              		.thumb_func
 1514              		.fpu softvfp
 1516              	SCPI_ResultFloat:
 1517              	.LVL178:
 1518              	.LFB18:
 482:libscpi/src/parser.c ****     char buffer[32];
 1519              		.loc 1 482 54 is_stmt 1 view -0
 1520              		.cfi_startproc
 1521              		@ args = 0, pretend = 0, frame = 32
 1522              		@ frame_needed = 0, uses_anonymous_args = 0
 482:libscpi/src/parser.c ****     char buffer[32];
ARM GAS  /tmp/ccJs7hvj.s 			page 46


 1523              		.loc 1 482 54 is_stmt 0 view .LVU355
 1524 0000 70B5     		push	{r4, r5, r6, lr}
 1525              	.LCFI24:
 1526              		.cfi_def_cfa_offset 16
 1527              		.cfi_offset 4, -16
 1528              		.cfi_offset 5, -12
 1529              		.cfi_offset 6, -8
 1530              		.cfi_offset 14, -4
 1531 0002 88B0     		sub	sp, sp, #32
 1532              	.LCFI25:
 1533              		.cfi_def_cfa_offset 48
 1534 0004 0400     		movs	r4, r0
 1535 0006 081C     		adds	r0, r1, #0
 1536              	.LVL179:
 483:libscpi/src/parser.c ****     size_t result = 0;
 1537              		.loc 1 483 5 is_stmt 1 view .LVU356
 484:libscpi/src/parser.c ****     size_t len = SCPI_FloatToStr(val, buffer, sizeof (buffer));
 1538              		.loc 1 484 5 view .LVU357
 485:libscpi/src/parser.c ****     result += writeDelimiter(context);
 1539              		.loc 1 485 5 view .LVU358
 485:libscpi/src/parser.c ****     result += writeDelimiter(context);
 1540              		.loc 1 485 18 is_stmt 0 view .LVU359
 1541 0008 2022     		movs	r2, #32
 1542 000a 6946     		mov	r1, sp
 1543              	.LVL180:
 485:libscpi/src/parser.c ****     result += writeDelimiter(context);
 1544              		.loc 1 485 18 view .LVU360
 1545 000c FFF7FEFF 		bl	SCPI_FloatToStr
 1546              	.LVL181:
 485:libscpi/src/parser.c ****     result += writeDelimiter(context);
 1547              		.loc 1 485 18 view .LVU361
 1548 0010 0600     		movs	r6, r0
 1549              	.LVL182:
 486:libscpi/src/parser.c ****     result += writeData(context, buffer, len);
 1550              		.loc 1 486 5 is_stmt 1 view .LVU362
 486:libscpi/src/parser.c ****     result += writeData(context, buffer, len);
 1551              		.loc 1 486 15 is_stmt 0 view .LVU363
 1552 0012 2000     		movs	r0, r4
 1553              	.LVL183:
 486:libscpi/src/parser.c ****     result += writeData(context, buffer, len);
 1554              		.loc 1 486 15 view .LVU364
 1555 0014 FFF7FEFF 		bl	writeDelimiter
 1556              	.LVL184:
 1557 0018 0500     		movs	r5, r0
 1558              	.LVL185:
 487:libscpi/src/parser.c ****     context->output_count++;
 1559              		.loc 1 487 5 is_stmt 1 view .LVU365
 487:libscpi/src/parser.c ****     context->output_count++;
 1560              		.loc 1 487 15 is_stmt 0 view .LVU366
 1561 001a 3200     		movs	r2, r6
 1562 001c 6946     		mov	r1, sp
 1563 001e 2000     		movs	r0, r4
 1564              	.LVL186:
 487:libscpi/src/parser.c ****     context->output_count++;
 1565              		.loc 1 487 15 view .LVU367
 1566 0020 FFF7FEFF 		bl	writeData
 1567              	.LVL187:
ARM GAS  /tmp/ccJs7hvj.s 			page 47


 487:libscpi/src/parser.c ****     context->output_count++;
 1568              		.loc 1 487 12 view .LVU368
 1569 0024 2818     		adds	r0, r5, r0
 1570              	.LVL188:
 488:libscpi/src/parser.c ****     return result;
 1571              		.loc 1 488 5 is_stmt 1 view .LVU369
 488:libscpi/src/parser.c ****     return result;
 1572              		.loc 1 488 26 is_stmt 0 view .LVU370
 1573 0026 236B     		ldr	r3, [r4, #48]
 1574 0028 0133     		adds	r3, r3, #1
 1575 002a 2363     		str	r3, [r4, #48]
 489:libscpi/src/parser.c **** }
 1576              		.loc 1 489 5 is_stmt 1 view .LVU371
 490:libscpi/src/parser.c **** 
 1577              		.loc 1 490 1 is_stmt 0 view .LVU372
 1578 002c 08B0     		add	sp, sp, #32
 1579              		@ sp needed
 1580              	.LVL189:
 1581              	.LVL190:
 490:libscpi/src/parser.c **** 
 1582              		.loc 1 490 1 view .LVU373
 1583 002e 70BD     		pop	{r4, r5, r6, pc}
 1584              		.cfi_endproc
 1585              	.LFE18:
 1587              		.section	.text.SCPI_ResultDouble,"ax",%progbits
 1588              		.align	1
 1589              		.global	SCPI_ResultDouble
 1590              		.syntax unified
 1591              		.code	16
 1592              		.thumb_func
 1593              		.fpu softvfp
 1595              	SCPI_ResultDouble:
 1596              	.LVL191:
 1597              	.LFB19:
 498:libscpi/src/parser.c ****     char buffer[32];
 1598              		.loc 1 498 56 is_stmt 1 view -0
 1599              		.cfi_startproc
 1600              		@ args = 0, pretend = 0, frame = 32
 1601              		@ frame_needed = 0, uses_anonymous_args = 0
 498:libscpi/src/parser.c ****     char buffer[32];
 1602              		.loc 1 498 56 is_stmt 0 view .LVU375
 1603 0000 70B5     		push	{r4, r5, r6, lr}
 1604              	.LCFI26:
 1605              		.cfi_def_cfa_offset 16
 1606              		.cfi_offset 4, -16
 1607              		.cfi_offset 5, -12
 1608              		.cfi_offset 6, -8
 1609              		.cfi_offset 14, -4
 1610 0002 88B0     		sub	sp, sp, #32
 1611              	.LCFI27:
 1612              		.cfi_def_cfa_offset 48
 1613 0004 0400     		movs	r4, r0
 1614 0006 1000     		movs	r0, r2
 1615              	.LVL192:
 498:libscpi/src/parser.c ****     char buffer[32];
 1616              		.loc 1 498 56 view .LVU376
 1617 0008 1900     		movs	r1, r3
ARM GAS  /tmp/ccJs7hvj.s 			page 48


 499:libscpi/src/parser.c ****     size_t result = 0;
 1618              		.loc 1 499 5 is_stmt 1 view .LVU377
 500:libscpi/src/parser.c ****     size_t len = SCPI_DoubleToStr(val, buffer, sizeof (buffer));
 1619              		.loc 1 500 5 view .LVU378
 1620              	.LVL193:
 501:libscpi/src/parser.c ****     result += writeDelimiter(context);
 1621              		.loc 1 501 5 view .LVU379
 501:libscpi/src/parser.c ****     result += writeDelimiter(context);
 1622              		.loc 1 501 18 is_stmt 0 view .LVU380
 1623 000a 2023     		movs	r3, #32
 1624 000c 6A46     		mov	r2, sp
 1625              	.LVL194:
 501:libscpi/src/parser.c ****     result += writeDelimiter(context);
 1626              		.loc 1 501 18 view .LVU381
 1627 000e FFF7FEFF 		bl	SCPI_DoubleToStr
 1628              	.LVL195:
 1629 0012 0600     		movs	r6, r0
 1630              	.LVL196:
 502:libscpi/src/parser.c ****     result += writeData(context, buffer, len);
 1631              		.loc 1 502 5 is_stmt 1 view .LVU382
 502:libscpi/src/parser.c ****     result += writeData(context, buffer, len);
 1632              		.loc 1 502 15 is_stmt 0 view .LVU383
 1633 0014 2000     		movs	r0, r4
 1634              	.LVL197:
 502:libscpi/src/parser.c ****     result += writeData(context, buffer, len);
 1635              		.loc 1 502 15 view .LVU384
 1636 0016 FFF7FEFF 		bl	writeDelimiter
 1637              	.LVL198:
 1638 001a 0500     		movs	r5, r0
 1639              	.LVL199:
 503:libscpi/src/parser.c ****     context->output_count++;
 1640              		.loc 1 503 5 is_stmt 1 view .LVU385
 503:libscpi/src/parser.c ****     context->output_count++;
 1641              		.loc 1 503 15 is_stmt 0 view .LVU386
 1642 001c 3200     		movs	r2, r6
 1643 001e 6946     		mov	r1, sp
 1644 0020 2000     		movs	r0, r4
 1645              	.LVL200:
 503:libscpi/src/parser.c ****     context->output_count++;
 1646              		.loc 1 503 15 view .LVU387
 1647 0022 FFF7FEFF 		bl	writeData
 1648              	.LVL201:
 503:libscpi/src/parser.c ****     context->output_count++;
 1649              		.loc 1 503 12 view .LVU388
 1650 0026 2818     		adds	r0, r5, r0
 1651              	.LVL202:
 504:libscpi/src/parser.c ****     return result;
 1652              		.loc 1 504 5 is_stmt 1 view .LVU389
 504:libscpi/src/parser.c ****     return result;
 1653              		.loc 1 504 26 is_stmt 0 view .LVU390
 1654 0028 236B     		ldr	r3, [r4, #48]
 1655 002a 0133     		adds	r3, r3, #1
 1656 002c 2363     		str	r3, [r4, #48]
 505:libscpi/src/parser.c **** }
 1657              		.loc 1 505 5 is_stmt 1 view .LVU391
 506:libscpi/src/parser.c **** 
 1658              		.loc 1 506 1 is_stmt 0 view .LVU392
ARM GAS  /tmp/ccJs7hvj.s 			page 49


 1659 002e 08B0     		add	sp, sp, #32
 1660              		@ sp needed
 1661              	.LVL203:
 1662              	.LVL204:
 506:libscpi/src/parser.c **** 
 1663              		.loc 1 506 1 view .LVU393
 1664 0030 70BD     		pop	{r4, r5, r6, pc}
 1665              		.cfi_endproc
 1666              	.LFE19:
 1668              		.section	.rodata.SCPI_ResultText.str1.4,"aMS",%progbits,1
 1669              		.align	2
 1670              	.LC12:
 1671 0000 2200     		.ascii	"\"\000"
 1672              		.section	.text.SCPI_ResultText,"ax",%progbits
 1673              		.align	1
 1674              		.global	SCPI_ResultText
 1675              		.syntax unified
 1676              		.code	16
 1677              		.thumb_func
 1678              		.fpu softvfp
 1680              	SCPI_ResultText:
 1681              	.LVL205:
 1682              	.LFB20:
 514:libscpi/src/parser.c ****     size_t result = 0;
 1683              		.loc 1 514 61 is_stmt 1 view -0
 1684              		.cfi_startproc
 1685              		@ args = 0, pretend = 0, frame = 0
 1686              		@ frame_needed = 0, uses_anonymous_args = 0
 514:libscpi/src/parser.c ****     size_t result = 0;
 1687              		.loc 1 514 61 is_stmt 0 view .LVU395
 1688 0000 F8B5     		push	{r3, r4, r5, r6, r7, lr}
 1689              	.LCFI28:
 1690              		.cfi_def_cfa_offset 24
 1691              		.cfi_offset 3, -24
 1692              		.cfi_offset 4, -20
 1693              		.cfi_offset 5, -16
 1694              		.cfi_offset 6, -12
 1695              		.cfi_offset 7, -8
 1696              		.cfi_offset 14, -4
 1697 0002 CE46     		mov	lr, r9
 1698 0004 4746     		mov	r7, r8
 1699 0006 80B5     		push	{r7, lr}
 1700              	.LCFI29:
 1701              		.cfi_def_cfa_offset 32
 1702              		.cfi_offset 8, -32
 1703              		.cfi_offset 9, -28
 1704 0008 8046     		mov	r8, r0
 1705 000a 0F00     		movs	r7, r1
 515:libscpi/src/parser.c ****     size_t len = strlen(data);
 1706              		.loc 1 515 5 is_stmt 1 view .LVU396
 1707              	.LVL206:
 516:libscpi/src/parser.c ****     const char * quote;
 1708              		.loc 1 516 5 view .LVU397
 516:libscpi/src/parser.c ****     const char * quote;
 1709              		.loc 1 516 18 is_stmt 0 view .LVU398
 1710 000c 0800     		movs	r0, r1
 1711              	.LVL207:
ARM GAS  /tmp/ccJs7hvj.s 			page 50


 516:libscpi/src/parser.c ****     const char * quote;
 1712              		.loc 1 516 18 view .LVU399
 1713 000e FFF7FEFF 		bl	strlen
 1714              	.LVL208:
 516:libscpi/src/parser.c ****     const char * quote;
 1715              		.loc 1 516 18 view .LVU400
 1716 0012 8146     		mov	r9, r0
 1717              	.LVL209:
 517:libscpi/src/parser.c ****     result += writeDelimiter(context);
 1718              		.loc 1 517 5 is_stmt 1 view .LVU401
 518:libscpi/src/parser.c ****     result += writeData(context, "\"", 1);
 1719              		.loc 1 518 5 view .LVU402
 518:libscpi/src/parser.c ****     result += writeData(context, "\"", 1);
 1720              		.loc 1 518 15 is_stmt 0 view .LVU403
 1721 0014 4046     		mov	r0, r8
 1722              	.LVL210:
 518:libscpi/src/parser.c ****     result += writeData(context, "\"", 1);
 1723              		.loc 1 518 15 view .LVU404
 1724 0016 FFF7FEFF 		bl	writeDelimiter
 1725              	.LVL211:
 1726 001a 0500     		movs	r5, r0
 1727              	.LVL212:
 519:libscpi/src/parser.c ****     while ((quote = strnpbrk(data, len, "\""))) {
 1728              		.loc 1 519 5 is_stmt 1 view .LVU405
 519:libscpi/src/parser.c ****     while ((quote = strnpbrk(data, len, "\""))) {
 1729              		.loc 1 519 15 is_stmt 0 view .LVU406
 1730 001c 0122     		movs	r2, #1
 1731 001e 1A49     		ldr	r1, .L98
 1732 0020 4046     		mov	r0, r8
 1733              	.LVL213:
 519:libscpi/src/parser.c ****     while ((quote = strnpbrk(data, len, "\""))) {
 1734              		.loc 1 519 15 view .LVU407
 1735 0022 FFF7FEFF 		bl	writeData
 1736              	.LVL214:
 519:libscpi/src/parser.c ****     while ((quote = strnpbrk(data, len, "\""))) {
 1737              		.loc 1 519 12 view .LVU408
 1738 0026 2D18     		adds	r5, r5, r0
 1739              	.LVL215:
 520:libscpi/src/parser.c ****         result += writeData(context, data, quote - data + 1);
 1740              		.loc 1 520 5 is_stmt 1 view .LVU409
 1741              	.L95:
 520:libscpi/src/parser.c ****         result += writeData(context, data, quote - data + 1);
 1742              		.loc 1 520 11 view .LVU410
 520:libscpi/src/parser.c ****         result += writeData(context, data, quote - data + 1);
 1743              		.loc 1 520 21 is_stmt 0 view .LVU411
 1744 0028 174A     		ldr	r2, .L98
 1745 002a 4946     		mov	r1, r9
 1746 002c 3800     		movs	r0, r7
 1747 002e FFF7FEFF 		bl	strnpbrk
 1748              	.LVL216:
 1749 0032 041E     		subs	r4, r0, #0
 1750              	.LVL217:
 520:libscpi/src/parser.c ****         result += writeData(context, data, quote - data + 1);
 1751              		.loc 1 520 11 view .LVU412
 1752 0034 12D0     		beq	.L97
 521:libscpi/src/parser.c ****         result += writeData(context, "\"", 1);
 1753              		.loc 1 521 9 is_stmt 1 view .LVU413
ARM GAS  /tmp/ccJs7hvj.s 			page 51


 521:libscpi/src/parser.c ****         result += writeData(context, "\"", 1);
 1754              		.loc 1 521 50 is_stmt 0 view .LVU414
 1755 0036 E61B     		subs	r6, r4, r7
 521:libscpi/src/parser.c ****         result += writeData(context, "\"", 1);
 1756              		.loc 1 521 57 view .LVU415
 1757 0038 721C     		adds	r2, r6, #1
 521:libscpi/src/parser.c ****         result += writeData(context, "\"", 1);
 1758              		.loc 1 521 19 view .LVU416
 1759 003a 3900     		movs	r1, r7
 1760 003c 4046     		mov	r0, r8
 1761              	.LVL218:
 521:libscpi/src/parser.c ****         result += writeData(context, "\"", 1);
 1762              		.loc 1 521 19 view .LVU417
 1763 003e FFF7FEFF 		bl	writeData
 1764              	.LVL219:
 521:libscpi/src/parser.c ****         result += writeData(context, "\"", 1);
 1765              		.loc 1 521 16 view .LVU418
 1766 0042 2D18     		adds	r5, r5, r0
 1767              	.LVL220:
 522:libscpi/src/parser.c ****         len -= quote - data + 1;
 1768              		.loc 1 522 9 is_stmt 1 view .LVU419
 522:libscpi/src/parser.c ****         len -= quote - data + 1;
 1769              		.loc 1 522 19 is_stmt 0 view .LVU420
 1770 0044 0122     		movs	r2, #1
 1771 0046 1049     		ldr	r1, .L98
 1772 0048 4046     		mov	r0, r8
 1773 004a FFF7FEFF 		bl	writeData
 1774              	.LVL221:
 522:libscpi/src/parser.c ****         len -= quote - data + 1;
 1775              		.loc 1 522 16 view .LVU421
 1776 004e 2D18     		adds	r5, r5, r0
 1777              	.LVL222:
 523:libscpi/src/parser.c ****         data = quote + 1;
 1778              		.loc 1 523 9 is_stmt 1 view .LVU422
 523:libscpi/src/parser.c ****         data = quote + 1;
 1779              		.loc 1 523 13 is_stmt 0 view .LVU423
 1780 0050 4B46     		mov	r3, r9
 1781 0052 9E1B     		subs	r6, r3, r6
 1782 0054 731E     		subs	r3, r6, #1
 1783 0056 9946     		mov	r9, r3
 1784              	.LVL223:
 524:libscpi/src/parser.c ****     }
 1785              		.loc 1 524 9 is_stmt 1 view .LVU424
 524:libscpi/src/parser.c ****     }
 1786              		.loc 1 524 14 is_stmt 0 view .LVU425
 1787 0058 671C     		adds	r7, r4, #1
 1788              	.LVL224:
 524:libscpi/src/parser.c ****     }
 1789              		.loc 1 524 14 view .LVU426
 1790 005a E5E7     		b	.L95
 1791              	.LVL225:
 1792              	.L97:
 526:libscpi/src/parser.c ****     result += writeData(context, "\"", 1);
 1793              		.loc 1 526 5 is_stmt 1 view .LVU427
 526:libscpi/src/parser.c ****     result += writeData(context, "\"", 1);
 1794              		.loc 1 526 15 is_stmt 0 view .LVU428
 1795 005c 4A46     		mov	r2, r9
ARM GAS  /tmp/ccJs7hvj.s 			page 52


 1796 005e 3900     		movs	r1, r7
 1797 0060 4046     		mov	r0, r8
 1798              	.LVL226:
 526:libscpi/src/parser.c ****     result += writeData(context, "\"", 1);
 1799              		.loc 1 526 15 view .LVU429
 1800 0062 FFF7FEFF 		bl	writeData
 1801              	.LVL227:
 526:libscpi/src/parser.c ****     result += writeData(context, "\"", 1);
 1802              		.loc 1 526 12 view .LVU430
 1803 0066 2D18     		adds	r5, r5, r0
 1804              	.LVL228:
 527:libscpi/src/parser.c ****     context->output_count++;
 1805              		.loc 1 527 5 is_stmt 1 view .LVU431
 527:libscpi/src/parser.c ****     context->output_count++;
 1806              		.loc 1 527 15 is_stmt 0 view .LVU432
 1807 0068 0122     		movs	r2, #1
 1808 006a 0749     		ldr	r1, .L98
 1809 006c 4046     		mov	r0, r8
 1810 006e FFF7FEFF 		bl	writeData
 1811              	.LVL229:
 527:libscpi/src/parser.c ****     context->output_count++;
 1812              		.loc 1 527 12 view .LVU433
 1813 0072 2818     		adds	r0, r5, r0
 1814              	.LVL230:
 528:libscpi/src/parser.c ****     return result;
 1815              		.loc 1 528 5 is_stmt 1 view .LVU434
 528:libscpi/src/parser.c ****     return result;
 1816              		.loc 1 528 26 is_stmt 0 view .LVU435
 1817 0074 4346     		mov	r3, r8
 1818 0076 1B6B     		ldr	r3, [r3, #48]
 1819 0078 0133     		adds	r3, r3, #1
 1820 007a 4246     		mov	r2, r8
 1821 007c 1363     		str	r3, [r2, #48]
 529:libscpi/src/parser.c **** }
 1822              		.loc 1 529 5 is_stmt 1 view .LVU436
 530:libscpi/src/parser.c **** 
 1823              		.loc 1 530 1 is_stmt 0 view .LVU437
 1824              		@ sp needed
 1825              	.LVL231:
 1826              	.LVL232:
 1827              	.LVL233:
 1828              	.LVL234:
 530:libscpi/src/parser.c **** 
 1829              		.loc 1 530 1 view .LVU438
 1830 007e 0CBC     		pop	{r2, r3}
 1831 0080 9046     		mov	r8, r2
 1832 0082 9946     		mov	r9, r3
 1833 0084 F8BD     		pop	{r3, r4, r5, r6, r7, pc}
 1834              	.L99:
 1835 0086 C046     		.align	2
 1836              	.L98:
 1837 0088 00000000 		.word	.LC12
 1838              		.cfi_endproc
 1839              	.LFE20:
 1841              		.section	.text.SCPI_ResultError,"ax",%progbits
 1842              		.align	1
 1843              		.global	SCPI_ResultError
ARM GAS  /tmp/ccJs7hvj.s 			page 53


 1844              		.syntax unified
 1845              		.code	16
 1846              		.thumb_func
 1847              		.fpu softvfp
 1849              	SCPI_ResultError:
 1850              	.LVL235:
 1851              	.LFB21:
 543:libscpi/src/parser.c ****     size_t result = 0;
 1852              		.loc 1 543 65 is_stmt 1 view -0
 1853              		.cfi_startproc
 1854              		@ args = 0, pretend = 0, frame = 8
 1855              		@ frame_needed = 0, uses_anonymous_args = 0
 543:libscpi/src/parser.c ****     size_t result = 0;
 1856              		.loc 1 543 65 is_stmt 0 view .LVU440
 1857 0000 F0B5     		push	{r4, r5, r6, r7, lr}
 1858              	.LCFI30:
 1859              		.cfi_def_cfa_offset 20
 1860              		.cfi_offset 4, -20
 1861              		.cfi_offset 5, -16
 1862              		.cfi_offset 6, -12
 1863              		.cfi_offset 7, -8
 1864              		.cfi_offset 14, -4
 1865 0002 DE46     		mov	lr, fp
 1866 0004 5746     		mov	r7, r10
 1867 0006 4E46     		mov	r6, r9
 1868 0008 4546     		mov	r5, r8
 1869 000a E0B5     		push	{r5, r6, r7, lr}
 1870              	.LCFI31:
 1871              		.cfi_def_cfa_offset 36
 1872              		.cfi_offset 8, -36
 1873              		.cfi_offset 9, -32
 1874              		.cfi_offset 10, -28
 1875              		.cfi_offset 11, -24
 1876 000c 83B0     		sub	sp, sp, #12
 1877              	.LCFI32:
 1878              		.cfi_def_cfa_offset 48
 1879 000e 8046     		mov	r8, r0
 1880 0010 0C00     		movs	r4, r1
 544:libscpi/src/parser.c ****     size_t outputlimit = SCPI_STD_ERROR_DESC_MAX_STRING_LENGTH;
 1881              		.loc 1 544 5 is_stmt 1 view .LVU441
 1882              	.LVL236:
 545:libscpi/src/parser.c ****     size_t step = 0;
 1883              		.loc 1 545 5 view .LVU442
 546:libscpi/src/parser.c ****     const char * quote;
 1884              		.loc 1 546 5 view .LVU443
 547:libscpi/src/parser.c **** 
 1885              		.loc 1 547 5 view .LVU444
 549:libscpi/src/parser.c ****     size_t len[SCPIDEFINE_DESCRIPTION_MAX_PARTS];
 1886              		.loc 1 549 5 view .LVU445
 550:libscpi/src/parser.c ****     size_t i;
 1887              		.loc 1 550 5 view .LVU446
 551:libscpi/src/parser.c **** 
 1888              		.loc 1 551 5 view .LVU447
 553:libscpi/src/parser.c ****     len[0] = strlen(data[0]);
 1889              		.loc 1 553 5 view .LVU448
 553:libscpi/src/parser.c ****     len[0] = strlen(data[0]);
 1890              		.loc 1 553 15 is_stmt 0 view .LVU449
ARM GAS  /tmp/ccJs7hvj.s 			page 54


 1891 0012 0023     		movs	r3, #0
 1892 0014 C85E     		ldrsh	r0, [r1, r3]
 1893              	.LVL237:
 553:libscpi/src/parser.c ****     len[0] = strlen(data[0]);
 1894              		.loc 1 553 15 view .LVU450
 1895 0016 FFF7FEFF 		bl	SCPI_ErrorTranslate
 1896              	.LVL238:
 553:libscpi/src/parser.c ****     len[0] = strlen(data[0]);
 1897              		.loc 1 553 13 view .LVU451
 1898 001a 0190     		str	r0, [sp, #4]
 554:libscpi/src/parser.c **** 
 1899              		.loc 1 554 5 is_stmt 1 view .LVU452
 554:libscpi/src/parser.c **** 
 1900              		.loc 1 554 14 is_stmt 0 view .LVU453
 1901 001c FFF7FEFF 		bl	strlen
 1902              	.LVL239:
 554:libscpi/src/parser.c **** 
 1903              		.loc 1 554 12 view .LVU454
 1904 0020 0090     		str	r0, [sp]
 565:libscpi/src/parser.c ****     result += writeDelimiter(context);
 1905              		.loc 1 565 5 is_stmt 1 view .LVU455
 565:libscpi/src/parser.c ****     result += writeDelimiter(context);
 1906              		.loc 1 565 46 is_stmt 0 view .LVU456
 1907 0022 0023     		movs	r3, #0
 1908 0024 E15E     		ldrsh	r1, [r4, r3]
 565:libscpi/src/parser.c ****     result += writeDelimiter(context);
 1909              		.loc 1 565 15 view .LVU457
 1910 0026 4046     		mov	r0, r8
 1911 0028 FFF7FEFF 		bl	SCPI_ResultInt32
 1912              	.LVL240:
 1913 002c 0500     		movs	r5, r0
 1914              	.LVL241:
 566:libscpi/src/parser.c ****     result += writeData(context, "\"", 1);
 1915              		.loc 1 566 5 is_stmt 1 view .LVU458
 566:libscpi/src/parser.c ****     result += writeData(context, "\"", 1);
 1916              		.loc 1 566 15 is_stmt 0 view .LVU459
 1917 002e 4046     		mov	r0, r8
 1918              	.LVL242:
 566:libscpi/src/parser.c ****     result += writeData(context, "\"", 1);
 1919              		.loc 1 566 15 view .LVU460
 1920 0030 FFF7FEFF 		bl	writeDelimiter
 1921              	.LVL243:
 566:libscpi/src/parser.c ****     result += writeData(context, "\"", 1);
 1922              		.loc 1 566 12 view .LVU461
 1923 0034 2D18     		adds	r5, r5, r0
 1924              	.LVL244:
 567:libscpi/src/parser.c **** 
 1925              		.loc 1 567 5 is_stmt 1 view .LVU462
 567:libscpi/src/parser.c **** 
 1926              		.loc 1 567 15 is_stmt 0 view .LVU463
 1927 0036 0122     		movs	r2, #1
 1928 0038 4149     		ldr	r1, .L113
 1929 003a 4046     		mov	r0, r8
 1930 003c FFF7FEFF 		bl	writeData
 1931              	.LVL245:
 567:libscpi/src/parser.c **** 
 1932              		.loc 1 567 12 view .LVU464
ARM GAS  /tmp/ccJs7hvj.s 			page 55


 1933 0040 2D18     		adds	r5, r5, r0
 1934              	.LVL246:
 569:libscpi/src/parser.c ****         if (i == 1) {
 1935              		.loc 1 569 5 is_stmt 1 view .LVU465
 569:libscpi/src/parser.c ****         if (i == 1) {
 1936              		.loc 1 569 12 is_stmt 0 view .LVU466
 1937 0042 0026     		movs	r6, #0
 545:libscpi/src/parser.c ****     size_t step = 0;
 1938              		.loc 1 545 12 view .LVU467
 1939 0044 FF27     		movs	r7, #255
 1940              	.LVL247:
 1941              	.L101:
 569:libscpi/src/parser.c ****         if (i == 1) {
 1942              		.loc 1 569 17 is_stmt 1 discriminator 1 view .LVU468
 569:libscpi/src/parser.c ****         if (i == 1) {
 1943              		.loc 1 569 5 is_stmt 0 discriminator 1 view .LVU469
 1944 0046 002E     		cmp	r6, #0
 1945 0048 6CD1     		bne	.L109
 569:libscpi/src/parser.c ****         if (i == 1) {
 1946              		.loc 1 569 63 discriminator 3 view .LVU470
 1947 004a B300     		lsls	r3, r6, #2
 1948 004c 02AA     		add	r2, sp, #8
 1949 004e 9446     		mov	ip, r2
 1950 0050 6344     		add	r3, r3, ip
 1951 0052 043B     		subs	r3, r3, #4
 1952 0054 1B68     		ldr	r3, [r3]
 569:libscpi/src/parser.c ****         if (i == 1) {
 1953              		.loc 1 569 56 discriminator 3 view .LVU471
 1954 0056 002B     		cmp	r3, #0
 1955 0058 64D0     		beq	.L109
 569:libscpi/src/parser.c ****         if (i == 1) {
 1956              		.loc 1 569 67 discriminator 4 view .LVU472
 1957 005a 002F     		cmp	r7, #0
 1958 005c 62D0     		beq	.L109
 570:libscpi/src/parser.c ****             result += writeSemicolon(context);
 1959              		.loc 1 570 9 is_stmt 1 view .LVU473
 570:libscpi/src/parser.c ****             result += writeSemicolon(context);
 1960              		.loc 1 570 12 is_stmt 0 view .LVU474
 1961 005e 012E     		cmp	r6, #1
 1962 0060 42D0     		beq	.L111
 1963              	.L102:
 574:libscpi/src/parser.c ****             len[i] = outputlimit;
 1964              		.loc 1 574 9 is_stmt 1 view .LVU475
 574:libscpi/src/parser.c ****             len[i] = outputlimit;
 1965              		.loc 1 574 16 is_stmt 0 view .LVU476
 1966 0062 B300     		lsls	r3, r6, #2
 1967 0064 02AA     		add	r2, sp, #8
 1968 0066 9446     		mov	ip, r2
 1969 0068 6344     		add	r3, r3, ip
 1970 006a 083B     		subs	r3, r3, #8
 1971 006c 1B68     		ldr	r3, [r3]
 574:libscpi/src/parser.c ****             len[i] = outputlimit;
 1972              		.loc 1 574 12 view .LVU477
 1973 006e BB42     		cmp	r3, r7
 1974 0070 03D9     		bls	.L104
 575:libscpi/src/parser.c ****         }
 1975              		.loc 1 575 13 is_stmt 1 view .LVU478
ARM GAS  /tmp/ccJs7hvj.s 			page 56


 575:libscpi/src/parser.c ****         }
 1976              		.loc 1 575 20 is_stmt 0 view .LVU479
 1977 0072 B300     		lsls	r3, r6, #2
 1978 0074 6344     		add	r3, r3, ip
 1979 0076 083B     		subs	r3, r3, #8
 1980 0078 1F60     		str	r7, [r3]
 1981              	.L104:
 578:libscpi/src/parser.c ****             if ((step = quote - data[i] + 1) >= outputlimit) {
 1982              		.loc 1 578 15 is_stmt 1 view .LVU480
 578:libscpi/src/parser.c ****             if ((step = quote - data[i] + 1) >= outputlimit) {
 1983              		.loc 1 578 25 is_stmt 0 view .LVU481
 1984 007a B300     		lsls	r3, r6, #2
 1985 007c 02AA     		add	r2, sp, #8
 1986 007e 9446     		mov	ip, r2
 1987 0080 6344     		add	r3, r3, ip
 1988 0082 1A1F     		subs	r2, r3, #4
 1989 0084 1268     		ldr	r2, [r2]
 1990 0086 9146     		mov	r9, r2
 1991 0088 083B     		subs	r3, r3, #8
 1992 008a 1B68     		ldr	r3, [r3]
 1993 008c 9B46     		mov	fp, r3
 1994 008e 2C4A     		ldr	r2, .L113
 1995 0090 1900     		movs	r1, r3
 1996 0092 4846     		mov	r0, r9
 1997 0094 FFF7FEFF 		bl	strnpbrk
 1998              	.LVL248:
 1999 0098 8246     		mov	r10, r0
 2000              	.LVL249:
 578:libscpi/src/parser.c ****             if ((step = quote - data[i] + 1) >= outputlimit) {
 2001              		.loc 1 578 15 view .LVU482
 2002 009a 0028     		cmp	r0, #0
 2003 009c 33D0     		beq	.L106
 579:libscpi/src/parser.c ****                 len[i] -= 1;
 2004              		.loc 1 579 13 is_stmt 1 view .LVU483
 579:libscpi/src/parser.c ****                 len[i] -= 1;
 2005              		.loc 1 579 31 is_stmt 0 view .LVU484
 2006 009e 5346     		mov	r3, r10
 2007 00a0 4A46     		mov	r2, r9
 2008 00a2 9C1A     		subs	r4, r3, r2
 579:libscpi/src/parser.c ****                 len[i] -= 1;
 2009              		.loc 1 579 41 view .LVU485
 2010 00a4 0134     		adds	r4, r4, #1
 2011              	.LVL250:
 579:libscpi/src/parser.c ****                 len[i] -= 1;
 2012              		.loc 1 579 16 view .LVU486
 2013 00a6 A742     		cmp	r7, r4
 2014 00a8 24D9     		bls	.L112
 584:libscpi/src/parser.c ****             result += writeData(context, "\"", 1);
 2015              		.loc 1 584 13 is_stmt 1 view .LVU487
 584:libscpi/src/parser.c ****             result += writeData(context, "\"", 1);
 2016              		.loc 1 584 23 is_stmt 0 view .LVU488
 2017 00aa 2200     		movs	r2, r4
 2018 00ac 4946     		mov	r1, r9
 2019 00ae 4046     		mov	r0, r8
 2020              	.LVL251:
 584:libscpi/src/parser.c ****             result += writeData(context, "\"", 1);
 2021              		.loc 1 584 23 view .LVU489
ARM GAS  /tmp/ccJs7hvj.s 			page 57


 2022 00b0 FFF7FEFF 		bl	writeData
 2023              	.LVL252:
 584:libscpi/src/parser.c ****             result += writeData(context, "\"", 1);
 2024              		.loc 1 584 20 view .LVU490
 2025 00b4 2D18     		adds	r5, r5, r0
 2026              	.LVL253:
 585:libscpi/src/parser.c ****             len[i] -= step;
 2027              		.loc 1 585 13 is_stmt 1 view .LVU491
 585:libscpi/src/parser.c ****             len[i] -= step;
 2028              		.loc 1 585 23 is_stmt 0 view .LVU492
 2029 00b6 0122     		movs	r2, #1
 2030 00b8 2149     		ldr	r1, .L113
 2031 00ba 4046     		mov	r0, r8
 2032 00bc FFF7FEFF 		bl	writeData
 2033              	.LVL254:
 585:libscpi/src/parser.c ****             len[i] -= step;
 2034              		.loc 1 585 20 view .LVU493
 2035 00c0 2D18     		adds	r5, r5, r0
 2036              	.LVL255:
 586:libscpi/src/parser.c ****             outputlimit -= step + 1;
 2037              		.loc 1 586 13 is_stmt 1 view .LVU494
 586:libscpi/src/parser.c ****             outputlimit -= step + 1;
 2038              		.loc 1 586 20 is_stmt 0 view .LVU495
 2039 00c2 5B46     		mov	r3, fp
 2040 00c4 1A1B     		subs	r2, r3, r4
 2041 00c6 B300     		lsls	r3, r6, #2
 2042 00c8 02A9     		add	r1, sp, #8
 2043 00ca 8C46     		mov	ip, r1
 2044 00cc 6344     		add	r3, r3, ip
 2045 00ce 1900     		movs	r1, r3
 2046 00d0 0839     		subs	r1, r1, #8
 2047 00d2 0A60     		str	r2, [r1]
 587:libscpi/src/parser.c ****             data[i] = quote + 1;
 2048              		.loc 1 587 13 is_stmt 1 view .LVU496
 587:libscpi/src/parser.c ****             data[i] = quote + 1;
 2049              		.loc 1 587 25 is_stmt 0 view .LVU497
 2050 00d4 3F1B     		subs	r7, r7, r4
 2051              	.LVL256:
 587:libscpi/src/parser.c ****             data[i] = quote + 1;
 2052              		.loc 1 587 25 view .LVU498
 2053 00d6 013F     		subs	r7, r7, #1
 2054              	.LVL257:
 588:libscpi/src/parser.c ****             if (len[i] > outputlimit) {
 2055              		.loc 1 588 13 is_stmt 1 view .LVU499
 588:libscpi/src/parser.c ****             if (len[i] > outputlimit) {
 2056              		.loc 1 588 29 is_stmt 0 view .LVU500
 2057 00d8 5046     		mov	r0, r10
 2058 00da 0130     		adds	r0, r0, #1
 588:libscpi/src/parser.c ****             if (len[i] > outputlimit) {
 2059              		.loc 1 588 21 view .LVU501
 2060 00dc 043B     		subs	r3, r3, #4
 2061 00de 1860     		str	r0, [r3]
 589:libscpi/src/parser.c ****                 len[i] = outputlimit;
 2062              		.loc 1 589 13 is_stmt 1 view .LVU502
 589:libscpi/src/parser.c ****                 len[i] = outputlimit;
 2063              		.loc 1 589 16 is_stmt 0 view .LVU503
 2064 00e0 BA42     		cmp	r2, r7
ARM GAS  /tmp/ccJs7hvj.s 			page 58


 2065 00e2 CAD9     		bls	.L104
 590:libscpi/src/parser.c ****             }
 2066              		.loc 1 590 17 is_stmt 1 view .LVU504
 590:libscpi/src/parser.c ****             }
 2067              		.loc 1 590 24 is_stmt 0 view .LVU505
 2068 00e4 0F60     		str	r7, [r1]
 2069 00e6 C8E7     		b	.L104
 2070              	.LVL258:
 2071              	.L111:
 571:libscpi/src/parser.c ****             outputlimit -= 1;
 2072              		.loc 1 571 13 is_stmt 1 view .LVU506
 571:libscpi/src/parser.c ****             outputlimit -= 1;
 2073              		.loc 1 571 23 is_stmt 0 view .LVU507
 2074 00e8 4046     		mov	r0, r8
 2075 00ea FFF7FEFF 		bl	writeSemicolon
 2076              	.LVL259:
 571:libscpi/src/parser.c ****             outputlimit -= 1;
 2077              		.loc 1 571 20 view .LVU508
 2078 00ee 2D18     		adds	r5, r5, r0
 2079              	.LVL260:
 572:libscpi/src/parser.c ****         }
 2080              		.loc 1 572 13 is_stmt 1 view .LVU509
 572:libscpi/src/parser.c ****         }
 2081              		.loc 1 572 25 is_stmt 0 view .LVU510
 2082 00f0 013F     		subs	r7, r7, #1
 2083              	.LVL261:
 572:libscpi/src/parser.c ****         }
 2084              		.loc 1 572 25 view .LVU511
 2085 00f2 B6E7     		b	.L102
 2086              	.LVL262:
 2087              	.L112:
 580:libscpi/src/parser.c ****                 outputlimit -= 1;
 2088              		.loc 1 580 17 is_stmt 1 view .LVU512
 580:libscpi/src/parser.c ****                 outputlimit -= 1;
 2089              		.loc 1 580 24 is_stmt 0 view .LVU513
 2090 00f4 B200     		lsls	r2, r6, #2
 2091 00f6 02AB     		add	r3, sp, #8
 2092 00f8 9C46     		mov	ip, r3
 2093 00fa 6244     		add	r2, r2, ip
 2094 00fc 083A     		subs	r2, r2, #8
 2095 00fe 5B46     		mov	r3, fp
 2096 0100 013B     		subs	r3, r3, #1
 2097 0102 1360     		str	r3, [r2]
 581:libscpi/src/parser.c ****                 break;
 2098              		.loc 1 581 17 is_stmt 1 view .LVU514
 581:libscpi/src/parser.c ****                 break;
 2099              		.loc 1 581 29 is_stmt 0 view .LVU515
 2100 0104 013F     		subs	r7, r7, #1
 2101              	.LVL263:
 582:libscpi/src/parser.c ****             }
 2102              		.loc 1 582 17 is_stmt 1 view .LVU516
 2103              	.L106:
 594:libscpi/src/parser.c ****         outputlimit -= len[i];
 2104              		.loc 1 594 9 discriminator 2 view .LVU517
 594:libscpi/src/parser.c ****         outputlimit -= len[i];
 2105              		.loc 1 594 19 is_stmt 0 discriminator 2 view .LVU518
 2106 0106 B300     		lsls	r3, r6, #2
ARM GAS  /tmp/ccJs7hvj.s 			page 59


 2107 0108 02AA     		add	r2, sp, #8
 2108 010a 9446     		mov	ip, r2
 2109 010c 6344     		add	r3, r3, ip
 2110 010e 083B     		subs	r3, r3, #8
 2111 0110 1C68     		ldr	r4, [r3]
 2112 0112 2200     		movs	r2, r4
 2113 0114 4946     		mov	r1, r9
 2114 0116 4046     		mov	r0, r8
 2115              	.LVL264:
 594:libscpi/src/parser.c ****         outputlimit -= len[i];
 2116              		.loc 1 594 19 discriminator 2 view .LVU519
 2117 0118 FFF7FEFF 		bl	writeData
 2118              	.LVL265:
 594:libscpi/src/parser.c ****         outputlimit -= len[i];
 2119              		.loc 1 594 16 discriminator 2 view .LVU520
 2120 011c 2D18     		adds	r5, r5, r0
 2121              	.LVL266:
 595:libscpi/src/parser.c ****     }
 2122              		.loc 1 595 9 is_stmt 1 discriminator 2 view .LVU521
 595:libscpi/src/parser.c ****     }
 2123              		.loc 1 595 21 is_stmt 0 discriminator 2 view .LVU522
 2124 011e 3F1B     		subs	r7, r7, r4
 2125              	.LVL267:
 569:libscpi/src/parser.c ****         if (i == 1) {
 2126              		.loc 1 569 83 is_stmt 1 discriminator 2 view .LVU523
 569:libscpi/src/parser.c ****         if (i == 1) {
 2127              		.loc 1 569 84 is_stmt 0 discriminator 2 view .LVU524
 2128 0120 0136     		adds	r6, r6, #1
 2129              	.LVL268:
 569:libscpi/src/parser.c ****         if (i == 1) {
 2130              		.loc 1 569 84 discriminator 2 view .LVU525
 2131 0122 90E7     		b	.L101
 2132              	.LVL269:
 2133              	.L109:
 597:libscpi/src/parser.c **** 
 2134              		.loc 1 597 5 is_stmt 1 view .LVU526
 597:libscpi/src/parser.c **** 
 2135              		.loc 1 597 15 is_stmt 0 view .LVU527
 2136 0124 0122     		movs	r2, #1
 2137 0126 0649     		ldr	r1, .L113
 2138 0128 4046     		mov	r0, r8
 2139 012a FFF7FEFF 		bl	writeData
 2140              	.LVL270:
 597:libscpi/src/parser.c **** 
 2141              		.loc 1 597 12 view .LVU528
 2142 012e 2818     		adds	r0, r5, r0
 2143              	.LVL271:
 599:libscpi/src/parser.c **** }
 2144              		.loc 1 599 5 is_stmt 1 view .LVU529
 600:libscpi/src/parser.c **** 
 2145              		.loc 1 600 1 is_stmt 0 view .LVU530
 2146 0130 03B0     		add	sp, sp, #12
 2147              		@ sp needed
 2148              	.LVL272:
 2149              	.LVL273:
 2150              	.LVL274:
 600:libscpi/src/parser.c **** 
ARM GAS  /tmp/ccJs7hvj.s 			page 60


 2151              		.loc 1 600 1 view .LVU531
 2152 0132 3CBC     		pop	{r2, r3, r4, r5}
 2153 0134 9046     		mov	r8, r2
 2154 0136 9946     		mov	r9, r3
 2155 0138 A246     		mov	r10, r4
 2156 013a AB46     		mov	fp, r5
 2157 013c F0BD     		pop	{r4, r5, r6, r7, pc}
 2158              	.L114:
 2159 013e C046     		.align	2
 2160              	.L113:
 2161 0140 00000000 		.word	.LC12
 2162              		.cfi_endproc
 2163              	.LFE21:
 2165              		.section	.text.SCPI_ResultArbitraryBlockHeader,"ax",%progbits
 2166              		.align	1
 2167              		.global	SCPI_ResultArbitraryBlockHeader
 2168              		.syntax unified
 2169              		.code	16
 2170              		.thumb_func
 2171              		.fpu softvfp
 2173              	SCPI_ResultArbitraryBlockHeader:
 2174              	.LVL275:
 2175              	.LFB22:
 608:libscpi/src/parser.c ****     char block_header[12];
 2176              		.loc 1 608 70 is_stmt 1 view -0
 2177              		.cfi_startproc
 2178              		@ args = 0, pretend = 0, frame = 16
 2179              		@ frame_needed = 0, uses_anonymous_args = 0
 608:libscpi/src/parser.c ****     char block_header[12];
 2180              		.loc 1 608 70 is_stmt 0 view .LVU533
 2181 0000 30B5     		push	{r4, r5, lr}
 2182              	.LCFI33:
 2183              		.cfi_def_cfa_offset 12
 2184              		.cfi_offset 4, -12
 2185              		.cfi_offset 5, -8
 2186              		.cfi_offset 14, -4
 2187 0002 85B0     		sub	sp, sp, #20
 2188              	.LCFI34:
 2189              		.cfi_def_cfa_offset 32
 2190 0004 0400     		movs	r4, r0
 2191 0006 0D00     		movs	r5, r1
 609:libscpi/src/parser.c ****     size_t header_len;
 2192              		.loc 1 609 5 is_stmt 1 view .LVU534
 610:libscpi/src/parser.c ****     block_header[0] = '#';
 2193              		.loc 1 610 5 view .LVU535
 611:libscpi/src/parser.c ****     SCPI_UInt32ToStrBase((uint32_t) len, block_header + 2, 10, 10);
 2194              		.loc 1 611 5 view .LVU536
 611:libscpi/src/parser.c ****     SCPI_UInt32ToStrBase((uint32_t) len, block_header + 2, 10, 10);
 2195              		.loc 1 611 21 is_stmt 0 view .LVU537
 2196 0008 2323     		movs	r3, #35
 2197 000a 6A46     		mov	r2, sp
 2198 000c 1371     		strb	r3, [r2, #4]
 612:libscpi/src/parser.c **** 
 2199              		.loc 1 612 5 is_stmt 1 view .LVU538
 2200 000e 193B     		subs	r3, r3, #25
 2201 0010 0A22     		movs	r2, #10
 2202 0012 6946     		mov	r1, sp
ARM GAS  /tmp/ccJs7hvj.s 			page 61


 2203              	.LVL276:
 612:libscpi/src/parser.c **** 
 2204              		.loc 1 612 5 is_stmt 0 view .LVU539
 2205 0014 0631     		adds	r1, r1, #6
 2206 0016 2800     		movs	r0, r5
 2207              	.LVL277:
 612:libscpi/src/parser.c **** 
 2208              		.loc 1 612 5 view .LVU540
 2209 0018 FFF7FEFF 		bl	SCPI_UInt32ToStrBase
 2210              	.LVL278:
 614:libscpi/src/parser.c ****     block_header[1] = (char) (header_len + '0');
 2211              		.loc 1 614 5 is_stmt 1 view .LVU541
 614:libscpi/src/parser.c ****     block_header[1] = (char) (header_len + '0');
 2212              		.loc 1 614 18 is_stmt 0 view .LVU542
 2213 001c 6B46     		mov	r3, sp
 2214 001e 981D     		adds	r0, r3, #6
 2215 0020 FFF7FEFF 		bl	strlen
 2216              	.LVL279:
 2217 0024 0200     		movs	r2, r0
 2218              	.LVL280:
 615:libscpi/src/parser.c **** 
 2219              		.loc 1 615 5 is_stmt 1 view .LVU543
 615:libscpi/src/parser.c **** 
 2220              		.loc 1 615 23 is_stmt 0 view .LVU544
 2221 0026 0300     		movs	r3, r0
 2222 0028 3033     		adds	r3, r3, #48
 615:libscpi/src/parser.c **** 
 2223              		.loc 1 615 21 view .LVU545
 2224 002a 6946     		mov	r1, sp
 2225 002c 4B71     		strb	r3, [r1, #5]
 617:libscpi/src/parser.c ****     return writeData(context, block_header, header_len + 2);
 2226              		.loc 1 617 5 is_stmt 1 view .LVU546
 617:libscpi/src/parser.c ****     return writeData(context, block_header, header_len + 2);
 2227              		.loc 1 617 34 is_stmt 0 view .LVU547
 2228 002e 9423     		movs	r3, #148
 2229 0030 E550     		str	r5, [r4, r3]
 618:libscpi/src/parser.c **** }
 2230              		.loc 1 618 5 is_stmt 1 view .LVU548
 618:libscpi/src/parser.c **** }
 2231              		.loc 1 618 12 is_stmt 0 view .LVU549
 2232 0032 0232     		adds	r2, r2, #2
 2233 0034 01A9     		add	r1, sp, #4
 2234 0036 2000     		movs	r0, r4
 2235              	.LVL281:
 618:libscpi/src/parser.c **** }
 2236              		.loc 1 618 12 view .LVU550
 2237 0038 FFF7FEFF 		bl	writeData
 2238              	.LVL282:
 619:libscpi/src/parser.c **** 
 2239              		.loc 1 619 1 view .LVU551
 2240 003c 05B0     		add	sp, sp, #20
 2241              		@ sp needed
 2242              	.LVL283:
 2243              	.LVL284:
 619:libscpi/src/parser.c **** 
 2244              		.loc 1 619 1 view .LVU552
 2245 003e 30BD     		pop	{r4, r5, pc}
ARM GAS  /tmp/ccJs7hvj.s 			page 62


 2246              		.cfi_endproc
 2247              	.LFE22:
 2249              		.section	.text.SCPI_ResultArbitraryBlockData,"ax",%progbits
 2250              		.align	1
 2251              		.global	SCPI_ResultArbitraryBlockData
 2252              		.syntax unified
 2253              		.code	16
 2254              		.thumb_func
 2255              		.fpu softvfp
 2257              	SCPI_ResultArbitraryBlockData:
 2258              	.LVL285:
 2259              	.LFB23:
 628:libscpi/src/parser.c **** 
 2260              		.loc 1 628 87 is_stmt 1 view -0
 2261              		.cfi_startproc
 2262              		@ args = 0, pretend = 0, frame = 0
 2263              		@ frame_needed = 0, uses_anonymous_args = 0
 628:libscpi/src/parser.c **** 
 2264              		.loc 1 628 87 is_stmt 0 view .LVU554
 2265 0000 10B5     		push	{r4, lr}
 2266              	.LCFI35:
 2267              		.cfi_def_cfa_offset 8
 2268              		.cfi_offset 4, -8
 2269              		.cfi_offset 14, -4
 630:libscpi/src/parser.c ****         SCPI_ErrorPush(context, SCPI_ERROR_SYSTEM_ERROR);
 2270              		.loc 1 630 5 is_stmt 1 view .LVU555
 630:libscpi/src/parser.c ****         SCPI_ErrorPush(context, SCPI_ERROR_SYSTEM_ERROR);
 2271              		.loc 1 630 16 is_stmt 0 view .LVU556
 2272 0002 9423     		movs	r3, #148
 2273 0004 C358     		ldr	r3, [r0, r3]
 630:libscpi/src/parser.c ****         SCPI_ErrorPush(context, SCPI_ERROR_SYSTEM_ERROR);
 2274              		.loc 1 630 8 view .LVU557
 2275 0006 9342     		cmp	r3, r2
 2276 0008 0AD3     		bcc	.L120
 635:libscpi/src/parser.c **** 
 2277              		.loc 1 635 5 is_stmt 1 view .LVU558
 635:libscpi/src/parser.c **** 
 2278              		.loc 1 635 34 is_stmt 0 view .LVU559
 2279 000a 9B1A     		subs	r3, r3, r2
 2280 000c 9424     		movs	r4, #148
 2281 000e 0351     		str	r3, [r0, r4]
 637:libscpi/src/parser.c ****         context->output_count++;
 2282              		.loc 1 637 5 is_stmt 1 view .LVU560
 637:libscpi/src/parser.c ****         context->output_count++;
 2283              		.loc 1 637 8 is_stmt 0 view .LVU561
 2284 0010 002B     		cmp	r3, #0
 2285 0012 02D1     		bne	.L119
 638:libscpi/src/parser.c ****     }
 2286              		.loc 1 638 9 is_stmt 1 view .LVU562
 638:libscpi/src/parser.c ****     }
 2287              		.loc 1 638 30 is_stmt 0 view .LVU563
 2288 0014 036B     		ldr	r3, [r0, #48]
 2289 0016 0133     		adds	r3, r3, #1
 2290 0018 0363     		str	r3, [r0, #48]
 2291              	.L119:
 641:libscpi/src/parser.c **** }
 2292              		.loc 1 641 5 is_stmt 1 view .LVU564
ARM GAS  /tmp/ccJs7hvj.s 			page 63


 641:libscpi/src/parser.c **** }
 2293              		.loc 1 641 12 is_stmt 0 view .LVU565
 2294 001a FFF7FEFF 		bl	writeData
 2295              	.LVL286:
 2296              	.L116:
 642:libscpi/src/parser.c **** 
 2297              		.loc 1 642 1 view .LVU566
 2298              		@ sp needed
 2299 001e 10BD     		pop	{r4, pc}
 2300              	.LVL287:
 2301              	.L120:
 631:libscpi/src/parser.c ****         return 0;
 2302              		.loc 1 631 9 is_stmt 1 view .LVU567
 2303 0020 0249     		ldr	r1, .L121
 2304              	.LVL288:
 631:libscpi/src/parser.c ****         return 0;
 2305              		.loc 1 631 9 is_stmt 0 view .LVU568
 2306 0022 FFF7FEFF 		bl	SCPI_ErrorPush
 2307              	.LVL289:
 632:libscpi/src/parser.c ****     }
 2308              		.loc 1 632 9 is_stmt 1 view .LVU569
 632:libscpi/src/parser.c ****     }
 2309              		.loc 1 632 16 is_stmt 0 view .LVU570
 2310 0026 0020     		movs	r0, #0
 2311 0028 F9E7     		b	.L116
 2312              	.L122:
 2313 002a C046     		.align	2
 2314              	.L121:
 2315 002c CAFEFFFF 		.word	-310
 2316              		.cfi_endproc
 2317              	.LFE23:
 2319              		.section	.text.SCPI_ResultArbitraryBlock,"ax",%progbits
 2320              		.align	1
 2321              		.global	SCPI_ResultArbitraryBlock
 2322              		.syntax unified
 2323              		.code	16
 2324              		.thumb_func
 2325              		.fpu softvfp
 2327              	SCPI_ResultArbitraryBlock:
 2328              	.LVL290:
 2329              	.LFB24:
 651:libscpi/src/parser.c ****     size_t result = 0;
 2330              		.loc 1 651 83 is_stmt 1 view -0
 2331              		.cfi_startproc
 2332              		@ args = 0, pretend = 0, frame = 0
 2333              		@ frame_needed = 0, uses_anonymous_args = 0
 651:libscpi/src/parser.c ****     size_t result = 0;
 2334              		.loc 1 651 83 is_stmt 0 view .LVU572
 2335 0000 F8B5     		push	{r3, r4, r5, r6, r7, lr}
 2336              	.LCFI36:
 2337              		.cfi_def_cfa_offset 24
 2338              		.cfi_offset 3, -24
 2339              		.cfi_offset 4, -20
 2340              		.cfi_offset 5, -16
 2341              		.cfi_offset 6, -12
 2342              		.cfi_offset 7, -8
 2343              		.cfi_offset 14, -4
ARM GAS  /tmp/ccJs7hvj.s 			page 64


 2344 0002 0500     		movs	r5, r0
 2345 0004 0F00     		movs	r7, r1
 2346 0006 1600     		movs	r6, r2
 652:libscpi/src/parser.c ****     result += SCPI_ResultArbitraryBlockHeader(context, len);
 2347              		.loc 1 652 5 is_stmt 1 view .LVU573
 2348              	.LVL291:
 653:libscpi/src/parser.c ****     result += SCPI_ResultArbitraryBlockData(context, data, len);
 2349              		.loc 1 653 5 view .LVU574
 653:libscpi/src/parser.c ****     result += SCPI_ResultArbitraryBlockData(context, data, len);
 2350              		.loc 1 653 15 is_stmt 0 view .LVU575
 2351 0008 1100     		movs	r1, r2
 2352              	.LVL292:
 653:libscpi/src/parser.c ****     result += SCPI_ResultArbitraryBlockData(context, data, len);
 2353              		.loc 1 653 15 view .LVU576
 2354 000a FFF7FEFF 		bl	SCPI_ResultArbitraryBlockHeader
 2355              	.LVL293:
 653:libscpi/src/parser.c ****     result += SCPI_ResultArbitraryBlockData(context, data, len);
 2356              		.loc 1 653 15 view .LVU577
 2357 000e 0400     		movs	r4, r0
 2358              	.LVL294:
 654:libscpi/src/parser.c ****     return result;
 2359              		.loc 1 654 5 is_stmt 1 view .LVU578
 654:libscpi/src/parser.c ****     return result;
 2360              		.loc 1 654 15 is_stmt 0 view .LVU579
 2361 0010 3200     		movs	r2, r6
 2362 0012 3900     		movs	r1, r7
 2363 0014 2800     		movs	r0, r5
 2364              	.LVL295:
 654:libscpi/src/parser.c ****     return result;
 2365              		.loc 1 654 15 view .LVU580
 2366 0016 FFF7FEFF 		bl	SCPI_ResultArbitraryBlockData
 2367              	.LVL296:
 654:libscpi/src/parser.c ****     return result;
 2368              		.loc 1 654 12 view .LVU581
 2369 001a 2018     		adds	r0, r4, r0
 2370              	.LVL297:
 655:libscpi/src/parser.c **** }
 2371              		.loc 1 655 5 is_stmt 1 view .LVU582
 656:libscpi/src/parser.c **** 
 2372              		.loc 1 656 1 is_stmt 0 view .LVU583
 2373              		@ sp needed
 2374              	.LVL298:
 2375              	.LVL299:
 2376              	.LVL300:
 656:libscpi/src/parser.c **** 
 2377              		.loc 1 656 1 view .LVU584
 2378 001c F8BD     		pop	{r3, r4, r5, r6, r7, pc}
 2379              		.cfi_endproc
 2380              	.LFE24:
 2382              		.section	.text.produceResultArrayBinary,"ax",%progbits
 2383              		.align	1
 2384              		.syntax unified
 2385              		.code	16
 2386              		.thumb_func
 2387              		.fpu softvfp
 2389              	produceResultArrayBinary:
 2390              	.LVL301:
ARM GAS  /tmp/ccJs7hvj.s 			page 65


 2391              	.LFB61:
 827:libscpi/src/parser.c **** 
 828:libscpi/src/parser.c **** /**
 829:libscpi/src/parser.c ****  * Convert parameter to signed 32 bit integer
 830:libscpi/src/parser.c ****  * @param context
 831:libscpi/src/parser.c ****  * @param parameter
 832:libscpi/src/parser.c ****  * @param value result
 833:libscpi/src/parser.c ****  * @return TRUE if succesful
 834:libscpi/src/parser.c ****  */
 835:libscpi/src/parser.c **** scpi_bool_t SCPI_ParamToInt32(scpi_t * context, scpi_parameter_t * parameter, int32_t * value) {
 836:libscpi/src/parser.c ****     return ParamSignToUInt32(context, parameter, (uint32_t *) value, TRUE);
 837:libscpi/src/parser.c **** }
 838:libscpi/src/parser.c **** 
 839:libscpi/src/parser.c **** /**
 840:libscpi/src/parser.c ****  * Convert parameter to unsigned 32 bit integer
 841:libscpi/src/parser.c ****  * @param context
 842:libscpi/src/parser.c ****  * @param parameter
 843:libscpi/src/parser.c ****  * @param value result
 844:libscpi/src/parser.c ****  * @return TRUE if succesful
 845:libscpi/src/parser.c ****  */
 846:libscpi/src/parser.c **** scpi_bool_t SCPI_ParamToUInt32(scpi_t * context, scpi_parameter_t * parameter, uint32_t * value) {
 847:libscpi/src/parser.c ****     return ParamSignToUInt32(context, parameter, value, FALSE);
 848:libscpi/src/parser.c **** }
 849:libscpi/src/parser.c **** 
 850:libscpi/src/parser.c **** /**
 851:libscpi/src/parser.c ****  * Convert parameter to signed 64 bit integer
 852:libscpi/src/parser.c ****  * @param context
 853:libscpi/src/parser.c ****  * @param parameter
 854:libscpi/src/parser.c ****  * @param value result
 855:libscpi/src/parser.c ****  * @return TRUE if succesful
 856:libscpi/src/parser.c ****  */
 857:libscpi/src/parser.c **** scpi_bool_t SCPI_ParamToInt64(scpi_t * context, scpi_parameter_t * parameter, int64_t * value) {
 858:libscpi/src/parser.c ****     return ParamSignToUInt64(context, parameter, (uint64_t *) value, TRUE);
 859:libscpi/src/parser.c **** }
 860:libscpi/src/parser.c **** 
 861:libscpi/src/parser.c **** /**
 862:libscpi/src/parser.c ****  * Convert parameter to unsigned 32 bit integer
 863:libscpi/src/parser.c ****  * @param context
 864:libscpi/src/parser.c ****  * @param parameter
 865:libscpi/src/parser.c ****  * @param value result
 866:libscpi/src/parser.c ****  * @return TRUE if succesful
 867:libscpi/src/parser.c ****  */
 868:libscpi/src/parser.c **** scpi_bool_t SCPI_ParamToUInt64(scpi_t * context, scpi_parameter_t * parameter, uint64_t * value) {
 869:libscpi/src/parser.c ****     return ParamSignToUInt64(context, parameter, value, FALSE);
 870:libscpi/src/parser.c **** }
 871:libscpi/src/parser.c **** 
 872:libscpi/src/parser.c **** /**
 873:libscpi/src/parser.c ****  * Convert parameter to float (32 bit)
 874:libscpi/src/parser.c ****  * @param context
 875:libscpi/src/parser.c ****  * @param parameter
 876:libscpi/src/parser.c ****  * @param value result
 877:libscpi/src/parser.c ****  * @return TRUE if succesful
 878:libscpi/src/parser.c ****  */
 879:libscpi/src/parser.c **** scpi_bool_t SCPI_ParamToFloat(scpi_t * context, scpi_parameter_t * parameter, float * value) {
 880:libscpi/src/parser.c ****     scpi_bool_t result;
 881:libscpi/src/parser.c ****     uint32_t valint;
 882:libscpi/src/parser.c **** 
ARM GAS  /tmp/ccJs7hvj.s 			page 66


 883:libscpi/src/parser.c ****     if (!value) {
 884:libscpi/src/parser.c ****         SCPI_ErrorPush(context, SCPI_ERROR_SYSTEM_ERROR);
 885:libscpi/src/parser.c ****         return FALSE;
 886:libscpi/src/parser.c ****     }
 887:libscpi/src/parser.c **** 
 888:libscpi/src/parser.c ****     switch (parameter->type) {
 889:libscpi/src/parser.c ****         case SCPI_TOKEN_HEXNUM:
 890:libscpi/src/parser.c ****         case SCPI_TOKEN_OCTNUM:
 891:libscpi/src/parser.c ****         case SCPI_TOKEN_BINNUM:
 892:libscpi/src/parser.c ****             result = SCPI_ParamToUInt32(context, parameter, &valint);
 893:libscpi/src/parser.c ****             *value = valint;
 894:libscpi/src/parser.c ****             break;
 895:libscpi/src/parser.c ****         case SCPI_TOKEN_DECIMAL_NUMERIC_PROGRAM_DATA:
 896:libscpi/src/parser.c ****         case SCPI_TOKEN_DECIMAL_NUMERIC_PROGRAM_DATA_WITH_SUFFIX:
 897:libscpi/src/parser.c ****             result = strToFloat(parameter->ptr, value) > 0 ? TRUE : FALSE;
 898:libscpi/src/parser.c ****             break;
 899:libscpi/src/parser.c ****         default:
 900:libscpi/src/parser.c ****             result = FALSE;
 901:libscpi/src/parser.c ****     }
 902:libscpi/src/parser.c ****     return result;
 903:libscpi/src/parser.c **** }
 904:libscpi/src/parser.c **** 
 905:libscpi/src/parser.c **** /**
 906:libscpi/src/parser.c ****  * Convert parameter to double (64 bit)
 907:libscpi/src/parser.c ****  * @param context
 908:libscpi/src/parser.c ****  * @param parameter
 909:libscpi/src/parser.c ****  * @param value result
 910:libscpi/src/parser.c ****  * @return TRUE if succesful
 911:libscpi/src/parser.c ****  */
 912:libscpi/src/parser.c **** scpi_bool_t SCPI_ParamToDouble(scpi_t * context, scpi_parameter_t * parameter, double * value) {
 913:libscpi/src/parser.c ****     scpi_bool_t result;
 914:libscpi/src/parser.c ****     uint64_t valint;
 915:libscpi/src/parser.c **** 
 916:libscpi/src/parser.c ****     if (!value) {
 917:libscpi/src/parser.c ****         SCPI_ErrorPush(context, SCPI_ERROR_SYSTEM_ERROR);
 918:libscpi/src/parser.c ****         return FALSE;
 919:libscpi/src/parser.c ****     }
 920:libscpi/src/parser.c **** 
 921:libscpi/src/parser.c ****     switch (parameter->type) {
 922:libscpi/src/parser.c ****         case SCPI_TOKEN_HEXNUM:
 923:libscpi/src/parser.c ****         case SCPI_TOKEN_OCTNUM:
 924:libscpi/src/parser.c ****         case SCPI_TOKEN_BINNUM:
 925:libscpi/src/parser.c ****             result = SCPI_ParamToUInt64(context, parameter, &valint);
 926:libscpi/src/parser.c ****             *value = valint;
 927:libscpi/src/parser.c ****             break;
 928:libscpi/src/parser.c ****         case SCPI_TOKEN_DECIMAL_NUMERIC_PROGRAM_DATA:
 929:libscpi/src/parser.c ****         case SCPI_TOKEN_DECIMAL_NUMERIC_PROGRAM_DATA_WITH_SUFFIX:
 930:libscpi/src/parser.c ****             result = strToDouble(parameter->ptr, value) > 0 ? TRUE : FALSE;
 931:libscpi/src/parser.c ****             break;
 932:libscpi/src/parser.c ****         default:
 933:libscpi/src/parser.c ****             result = FALSE;
 934:libscpi/src/parser.c ****     }
 935:libscpi/src/parser.c ****     return result;
 936:libscpi/src/parser.c **** }
 937:libscpi/src/parser.c **** 
 938:libscpi/src/parser.c **** /**
 939:libscpi/src/parser.c ****  * Read floating point float (32 bit) parameter
ARM GAS  /tmp/ccJs7hvj.s 			page 67


 940:libscpi/src/parser.c ****  * @param context
 941:libscpi/src/parser.c ****  * @param value
 942:libscpi/src/parser.c ****  * @param mandatory
 943:libscpi/src/parser.c ****  * @return
 944:libscpi/src/parser.c ****  */
 945:libscpi/src/parser.c **** scpi_bool_t SCPI_ParamFloat(scpi_t * context, float * value, scpi_bool_t mandatory) {
 946:libscpi/src/parser.c ****     scpi_bool_t result;
 947:libscpi/src/parser.c ****     scpi_parameter_t param;
 948:libscpi/src/parser.c **** 
 949:libscpi/src/parser.c ****     if (!value) {
 950:libscpi/src/parser.c ****         SCPI_ErrorPush(context, SCPI_ERROR_SYSTEM_ERROR);
 951:libscpi/src/parser.c ****         return FALSE;
 952:libscpi/src/parser.c ****     }
 953:libscpi/src/parser.c **** 
 954:libscpi/src/parser.c ****     result = SCPI_Parameter(context, &param, mandatory);
 955:libscpi/src/parser.c ****     if (result) {
 956:libscpi/src/parser.c ****         if (SCPI_ParamIsNumber(&param, FALSE)) {
 957:libscpi/src/parser.c ****             SCPI_ParamToFloat(context, &param, value);
 958:libscpi/src/parser.c ****         } else if (SCPI_ParamIsNumber(&param, TRUE)) {
 959:libscpi/src/parser.c ****             SCPI_ErrorPush(context, SCPI_ERROR_SUFFIX_NOT_ALLOWED);
 960:libscpi/src/parser.c ****             result = FALSE;
 961:libscpi/src/parser.c ****         } else {
 962:libscpi/src/parser.c ****             SCPI_ErrorPush(context, SCPI_ERROR_DATA_TYPE_ERROR);
 963:libscpi/src/parser.c ****             result = FALSE;
 964:libscpi/src/parser.c ****         }
 965:libscpi/src/parser.c ****     }
 966:libscpi/src/parser.c ****     return result;
 967:libscpi/src/parser.c **** }
 968:libscpi/src/parser.c **** 
 969:libscpi/src/parser.c **** /**
 970:libscpi/src/parser.c ****  * Read floating point double (64 bit) parameter
 971:libscpi/src/parser.c ****  * @param context
 972:libscpi/src/parser.c ****  * @param value
 973:libscpi/src/parser.c ****  * @param mandatory
 974:libscpi/src/parser.c ****  * @return
 975:libscpi/src/parser.c ****  */
 976:libscpi/src/parser.c **** scpi_bool_t SCPI_ParamDouble(scpi_t * context, double * value, scpi_bool_t mandatory) {
 977:libscpi/src/parser.c ****     scpi_bool_t result;
 978:libscpi/src/parser.c ****     scpi_parameter_t param;
 979:libscpi/src/parser.c **** 
 980:libscpi/src/parser.c ****     if (!value) {
 981:libscpi/src/parser.c ****         SCPI_ErrorPush(context, SCPI_ERROR_SYSTEM_ERROR);
 982:libscpi/src/parser.c ****         return FALSE;
 983:libscpi/src/parser.c ****     }
 984:libscpi/src/parser.c **** 
 985:libscpi/src/parser.c ****     result = SCPI_Parameter(context, &param, mandatory);
 986:libscpi/src/parser.c ****     if (result) {
 987:libscpi/src/parser.c ****         if (SCPI_ParamIsNumber(&param, FALSE)) {
 988:libscpi/src/parser.c ****             SCPI_ParamToDouble(context, &param, value);
 989:libscpi/src/parser.c ****         } else if (SCPI_ParamIsNumber(&param, TRUE)) {
 990:libscpi/src/parser.c ****             SCPI_ErrorPush(context, SCPI_ERROR_SUFFIX_NOT_ALLOWED);
 991:libscpi/src/parser.c ****             result = FALSE;
 992:libscpi/src/parser.c ****         } else {
 993:libscpi/src/parser.c ****             SCPI_ErrorPush(context, SCPI_ERROR_DATA_TYPE_ERROR);
 994:libscpi/src/parser.c ****             result = FALSE;
 995:libscpi/src/parser.c ****         }
 996:libscpi/src/parser.c ****     }
ARM GAS  /tmp/ccJs7hvj.s 			page 68


 997:libscpi/src/parser.c ****     return result;
 998:libscpi/src/parser.c **** }
 999:libscpi/src/parser.c **** 
1000:libscpi/src/parser.c **** /**
1001:libscpi/src/parser.c ****  * Read signed/unsigned 32 bit integer parameter
1002:libscpi/src/parser.c ****  * @param context
1003:libscpi/src/parser.c ****  * @param value
1004:libscpi/src/parser.c ****  * @param mandatory
1005:libscpi/src/parser.c ****  * @param sign
1006:libscpi/src/parser.c ****  * @return
1007:libscpi/src/parser.c ****  */
1008:libscpi/src/parser.c **** static scpi_bool_t ParamSignUInt32(scpi_t * context, uint32_t * value, scpi_bool_t mandatory, scpi_
1009:libscpi/src/parser.c ****     scpi_bool_t result;
1010:libscpi/src/parser.c ****     scpi_parameter_t param;
1011:libscpi/src/parser.c **** 
1012:libscpi/src/parser.c ****     if (!value) {
1013:libscpi/src/parser.c ****         SCPI_ErrorPush(context, SCPI_ERROR_SYSTEM_ERROR);
1014:libscpi/src/parser.c ****         return FALSE;
1015:libscpi/src/parser.c ****     }
1016:libscpi/src/parser.c **** 
1017:libscpi/src/parser.c ****     result = SCPI_Parameter(context, &param, mandatory);
1018:libscpi/src/parser.c ****     if (result) {
1019:libscpi/src/parser.c ****         if (SCPI_ParamIsNumber(&param, FALSE)) {
1020:libscpi/src/parser.c ****             result = ParamSignToUInt32(context, &param, value, sign);
1021:libscpi/src/parser.c ****         } else if (SCPI_ParamIsNumber(&param, TRUE)) {
1022:libscpi/src/parser.c ****             SCPI_ErrorPush(context, SCPI_ERROR_SUFFIX_NOT_ALLOWED);
1023:libscpi/src/parser.c ****             result = FALSE;
1024:libscpi/src/parser.c ****         } else {
1025:libscpi/src/parser.c ****             SCPI_ErrorPush(context, SCPI_ERROR_DATA_TYPE_ERROR);
1026:libscpi/src/parser.c ****             result = FALSE;
1027:libscpi/src/parser.c ****         }
1028:libscpi/src/parser.c ****     }
1029:libscpi/src/parser.c ****     return result;
1030:libscpi/src/parser.c **** }
1031:libscpi/src/parser.c **** 
1032:libscpi/src/parser.c **** /**
1033:libscpi/src/parser.c ****  * Read signed/unsigned 64 bit integer parameter
1034:libscpi/src/parser.c ****  * @param context
1035:libscpi/src/parser.c ****  * @param value
1036:libscpi/src/parser.c ****  * @param mandatory
1037:libscpi/src/parser.c ****  * @param sign
1038:libscpi/src/parser.c ****  * @return
1039:libscpi/src/parser.c ****  */
1040:libscpi/src/parser.c **** static scpi_bool_t ParamSignUInt64(scpi_t * context, uint64_t * value, scpi_bool_t mandatory, scpi_
1041:libscpi/src/parser.c ****     scpi_bool_t result;
1042:libscpi/src/parser.c ****     scpi_parameter_t param;
1043:libscpi/src/parser.c **** 
1044:libscpi/src/parser.c ****     if (!value) {
1045:libscpi/src/parser.c ****         SCPI_ErrorPush(context, SCPI_ERROR_SYSTEM_ERROR);
1046:libscpi/src/parser.c ****         return FALSE;
1047:libscpi/src/parser.c ****     }
1048:libscpi/src/parser.c **** 
1049:libscpi/src/parser.c ****     result = SCPI_Parameter(context, &param, mandatory);
1050:libscpi/src/parser.c ****     if (result) {
1051:libscpi/src/parser.c ****         if (SCPI_ParamIsNumber(&param, FALSE)) {
1052:libscpi/src/parser.c ****             result = ParamSignToUInt64(context, &param, value, sign);
1053:libscpi/src/parser.c ****         } else if (SCPI_ParamIsNumber(&param, TRUE)) {
ARM GAS  /tmp/ccJs7hvj.s 			page 69


1054:libscpi/src/parser.c ****             SCPI_ErrorPush(context, SCPI_ERROR_SUFFIX_NOT_ALLOWED);
1055:libscpi/src/parser.c ****             result = FALSE;
1056:libscpi/src/parser.c ****         } else {
1057:libscpi/src/parser.c ****             SCPI_ErrorPush(context, SCPI_ERROR_DATA_TYPE_ERROR);
1058:libscpi/src/parser.c ****             result = FALSE;
1059:libscpi/src/parser.c ****         }
1060:libscpi/src/parser.c ****     }
1061:libscpi/src/parser.c ****     return result;
1062:libscpi/src/parser.c **** }
1063:libscpi/src/parser.c **** 
1064:libscpi/src/parser.c **** /**
1065:libscpi/src/parser.c ****  * Read signed 32 bit integer parameter
1066:libscpi/src/parser.c ****  * @param context
1067:libscpi/src/parser.c ****  * @param value
1068:libscpi/src/parser.c ****  * @param mandatory
1069:libscpi/src/parser.c ****  * @return
1070:libscpi/src/parser.c ****  */
1071:libscpi/src/parser.c **** scpi_bool_t SCPI_ParamInt32(scpi_t * context, int32_t * value, scpi_bool_t mandatory) {
1072:libscpi/src/parser.c ****     return ParamSignUInt32(context, (uint32_t *) value, mandatory, TRUE);
1073:libscpi/src/parser.c **** }
1074:libscpi/src/parser.c **** 
1075:libscpi/src/parser.c **** /**
1076:libscpi/src/parser.c ****  * Read unsigned 32 bit integer parameter
1077:libscpi/src/parser.c ****  * @param context
1078:libscpi/src/parser.c ****  * @param value
1079:libscpi/src/parser.c ****  * @param mandatory
1080:libscpi/src/parser.c ****  * @return
1081:libscpi/src/parser.c ****  */
1082:libscpi/src/parser.c **** scpi_bool_t SCPI_ParamUInt32(scpi_t * context, uint32_t * value, scpi_bool_t mandatory) {
1083:libscpi/src/parser.c ****     return ParamSignUInt32(context, value, mandatory, FALSE);
1084:libscpi/src/parser.c **** }
1085:libscpi/src/parser.c **** 
1086:libscpi/src/parser.c **** /**
1087:libscpi/src/parser.c ****  * Read signed 64 bit integer parameter
1088:libscpi/src/parser.c ****  * @param context
1089:libscpi/src/parser.c ****  * @param value
1090:libscpi/src/parser.c ****  * @param mandatory
1091:libscpi/src/parser.c ****  * @return
1092:libscpi/src/parser.c ****  */
1093:libscpi/src/parser.c **** scpi_bool_t SCPI_ParamInt64(scpi_t * context, int64_t * value, scpi_bool_t mandatory) {
1094:libscpi/src/parser.c ****     return ParamSignUInt64(context, (uint64_t *) value, mandatory, TRUE);
1095:libscpi/src/parser.c **** }
1096:libscpi/src/parser.c **** 
1097:libscpi/src/parser.c **** /**
1098:libscpi/src/parser.c ****  * Read unsigned 64 bit integer parameter
1099:libscpi/src/parser.c ****  * @param context
1100:libscpi/src/parser.c ****  * @param value
1101:libscpi/src/parser.c ****  * @param mandatory
1102:libscpi/src/parser.c ****  * @return
1103:libscpi/src/parser.c ****  */
1104:libscpi/src/parser.c **** scpi_bool_t SCPI_ParamUInt64(scpi_t * context, uint64_t * value, scpi_bool_t mandatory) {
1105:libscpi/src/parser.c ****     return ParamSignUInt64(context, value, mandatory, FALSE);
1106:libscpi/src/parser.c **** }
1107:libscpi/src/parser.c **** 
1108:libscpi/src/parser.c **** /**
1109:libscpi/src/parser.c ****  * Read character parameter
1110:libscpi/src/parser.c ****  * @param context
ARM GAS  /tmp/ccJs7hvj.s 			page 70


1111:libscpi/src/parser.c ****  * @param value
1112:libscpi/src/parser.c ****  * @param len
1113:libscpi/src/parser.c ****  * @param mandatory
1114:libscpi/src/parser.c ****  * @return
1115:libscpi/src/parser.c ****  */
1116:libscpi/src/parser.c **** scpi_bool_t SCPI_ParamCharacters(scpi_t * context, const char ** value, size_t * len, scpi_bool_t m
1117:libscpi/src/parser.c ****     scpi_bool_t result;
1118:libscpi/src/parser.c ****     scpi_parameter_t param;
1119:libscpi/src/parser.c **** 
1120:libscpi/src/parser.c ****     if (!value || !len) {
1121:libscpi/src/parser.c ****         SCPI_ErrorPush(context, SCPI_ERROR_SYSTEM_ERROR);
1122:libscpi/src/parser.c ****         return FALSE;
1123:libscpi/src/parser.c ****     }
1124:libscpi/src/parser.c **** 
1125:libscpi/src/parser.c ****     result = SCPI_Parameter(context, &param, mandatory);
1126:libscpi/src/parser.c ****     if (result) {
1127:libscpi/src/parser.c ****         switch (param.type) {
1128:libscpi/src/parser.c ****             case SCPI_TOKEN_SINGLE_QUOTE_PROGRAM_DATA:
1129:libscpi/src/parser.c ****             case SCPI_TOKEN_DOUBLE_QUOTE_PROGRAM_DATA:
1130:libscpi/src/parser.c ****                 *value = param.ptr + 1;
1131:libscpi/src/parser.c ****                 *len = param.len - 2;
1132:libscpi/src/parser.c ****                 break;
1133:libscpi/src/parser.c ****             default:
1134:libscpi/src/parser.c ****                 *value = param.ptr;
1135:libscpi/src/parser.c ****                 *len = param.len;
1136:libscpi/src/parser.c ****                 break;
1137:libscpi/src/parser.c ****         }
1138:libscpi/src/parser.c **** 
1139:libscpi/src/parser.c ****         /* TODO: return also parameter type (ProgramMnemonic, ArbitraryBlockProgramData, SingleQuot
1140:libscpi/src/parser.c ****     }
1141:libscpi/src/parser.c **** 
1142:libscpi/src/parser.c ****     return result;
1143:libscpi/src/parser.c **** }
1144:libscpi/src/parser.c **** 
1145:libscpi/src/parser.c **** /**
1146:libscpi/src/parser.c ****  * Get arbitrary block program data and returns pointer to data
1147:libscpi/src/parser.c ****  * @param context
1148:libscpi/src/parser.c ****  * @param value result pointer to data
1149:libscpi/src/parser.c ****  * @param len result length of data
1150:libscpi/src/parser.c ****  * @param mandatory
1151:libscpi/src/parser.c ****  * @return
1152:libscpi/src/parser.c ****  */
1153:libscpi/src/parser.c **** scpi_bool_t SCPI_ParamArbitraryBlock(scpi_t * context, const char ** value, size_t * len, scpi_bool
1154:libscpi/src/parser.c ****     scpi_bool_t result;
1155:libscpi/src/parser.c ****     scpi_parameter_t param;
1156:libscpi/src/parser.c **** 
1157:libscpi/src/parser.c ****     if (!value || !len) {
1158:libscpi/src/parser.c ****         SCPI_ErrorPush(context, SCPI_ERROR_SYSTEM_ERROR);
1159:libscpi/src/parser.c ****         return FALSE;
1160:libscpi/src/parser.c ****     }
1161:libscpi/src/parser.c **** 
1162:libscpi/src/parser.c ****     result = SCPI_Parameter(context, &param, mandatory);
1163:libscpi/src/parser.c ****     if (result) {
1164:libscpi/src/parser.c ****         if (param.type == SCPI_TOKEN_ARBITRARY_BLOCK_PROGRAM_DATA) {
1165:libscpi/src/parser.c ****             *value = param.ptr;
1166:libscpi/src/parser.c ****             *len = param.len;
1167:libscpi/src/parser.c ****         } else {
ARM GAS  /tmp/ccJs7hvj.s 			page 71


1168:libscpi/src/parser.c ****             SCPI_ErrorPush(context, SCPI_ERROR_DATA_TYPE_ERROR);
1169:libscpi/src/parser.c ****             result = FALSE;
1170:libscpi/src/parser.c ****         }
1171:libscpi/src/parser.c ****     }
1172:libscpi/src/parser.c **** 
1173:libscpi/src/parser.c ****     return result;
1174:libscpi/src/parser.c **** }
1175:libscpi/src/parser.c **** 
1176:libscpi/src/parser.c **** scpi_bool_t SCPI_ParamCopyText(scpi_t * context, char * buffer, size_t buffer_len, size_t * copy_le
1177:libscpi/src/parser.c ****     scpi_bool_t result;
1178:libscpi/src/parser.c ****     scpi_parameter_t param;
1179:libscpi/src/parser.c ****     size_t i_from;
1180:libscpi/src/parser.c ****     size_t i_to;
1181:libscpi/src/parser.c ****     char quote;
1182:libscpi/src/parser.c **** 
1183:libscpi/src/parser.c ****     if (!buffer || !copy_len) {
1184:libscpi/src/parser.c ****         SCPI_ErrorPush(context, SCPI_ERROR_SYSTEM_ERROR);
1185:libscpi/src/parser.c ****         return FALSE;
1186:libscpi/src/parser.c ****     }
1187:libscpi/src/parser.c **** 
1188:libscpi/src/parser.c ****     result = SCPI_Parameter(context, &param, mandatory);
1189:libscpi/src/parser.c ****     if (result) {
1190:libscpi/src/parser.c **** 
1191:libscpi/src/parser.c ****         switch (param.type) {
1192:libscpi/src/parser.c ****             case SCPI_TOKEN_SINGLE_QUOTE_PROGRAM_DATA:
1193:libscpi/src/parser.c ****             case SCPI_TOKEN_DOUBLE_QUOTE_PROGRAM_DATA:
1194:libscpi/src/parser.c ****                 quote = param.type == SCPI_TOKEN_SINGLE_QUOTE_PROGRAM_DATA ? '\'' : '"';
1195:libscpi/src/parser.c ****                 for (i_from = 1, i_to = 0; i_from < (size_t) (param.len - 1); i_from++) {
1196:libscpi/src/parser.c ****                     if (i_from >= buffer_len) {
1197:libscpi/src/parser.c ****                         break;
1198:libscpi/src/parser.c ****                     }
1199:libscpi/src/parser.c ****                     buffer[i_to] = param.ptr[i_from];
1200:libscpi/src/parser.c ****                     i_to++;
1201:libscpi/src/parser.c ****                     if (param.ptr[i_from] == quote) {
1202:libscpi/src/parser.c ****                         i_from++;
1203:libscpi/src/parser.c ****                     }
1204:libscpi/src/parser.c ****                 }
1205:libscpi/src/parser.c ****                 *copy_len = i_to;
1206:libscpi/src/parser.c ****                 if (i_to < buffer_len) {
1207:libscpi/src/parser.c ****                     buffer[i_to] = 0;
1208:libscpi/src/parser.c ****                 }
1209:libscpi/src/parser.c ****                 break;
1210:libscpi/src/parser.c ****             default:
1211:libscpi/src/parser.c ****                 SCPI_ErrorPush(context, SCPI_ERROR_DATA_TYPE_ERROR);
1212:libscpi/src/parser.c ****                 result = FALSE;
1213:libscpi/src/parser.c ****         }
1214:libscpi/src/parser.c ****     }
1215:libscpi/src/parser.c **** 
1216:libscpi/src/parser.c ****     return result;
1217:libscpi/src/parser.c **** }
1218:libscpi/src/parser.c **** 
1219:libscpi/src/parser.c **** /**
1220:libscpi/src/parser.c ****  * Convert parameter to choice
1221:libscpi/src/parser.c ****  * @param context
1222:libscpi/src/parser.c ****  * @param parameter - should be PROGRAM_MNEMONIC
1223:libscpi/src/parser.c ****  * @param options - NULL terminated list of choices
1224:libscpi/src/parser.c ****  * @param value - index to options
ARM GAS  /tmp/ccJs7hvj.s 			page 72


1225:libscpi/src/parser.c ****  * @return
1226:libscpi/src/parser.c ****  */
1227:libscpi/src/parser.c **** scpi_bool_t SCPI_ParamToChoice(scpi_t * context, scpi_parameter_t * parameter, const scpi_choice_de
1228:libscpi/src/parser.c ****     size_t res;
1229:libscpi/src/parser.c ****     scpi_bool_t result = FALSE;
1230:libscpi/src/parser.c **** 
1231:libscpi/src/parser.c ****     if (!options || !value) {
1232:libscpi/src/parser.c ****         SCPI_ErrorPush(context, SCPI_ERROR_SYSTEM_ERROR);
1233:libscpi/src/parser.c ****         return FALSE;
1234:libscpi/src/parser.c ****     }
1235:libscpi/src/parser.c **** 
1236:libscpi/src/parser.c ****     if (parameter->type == SCPI_TOKEN_PROGRAM_MNEMONIC) {
1237:libscpi/src/parser.c ****         for (res = 0; options[res].name; ++res) {
1238:libscpi/src/parser.c ****             if (matchPattern(options[res].name, strlen(options[res].name), parameter->ptr, paramete
1239:libscpi/src/parser.c ****                 *value = options[res].tag;
1240:libscpi/src/parser.c ****                 result = TRUE;
1241:libscpi/src/parser.c ****                 break;
1242:libscpi/src/parser.c ****             }
1243:libscpi/src/parser.c ****         }
1244:libscpi/src/parser.c **** 
1245:libscpi/src/parser.c ****         if (!result) {
1246:libscpi/src/parser.c ****             SCPI_ErrorPush(context, SCPI_ERROR_ILLEGAL_PARAMETER_VALUE);
1247:libscpi/src/parser.c ****         }
1248:libscpi/src/parser.c ****     } else {
1249:libscpi/src/parser.c ****         SCPI_ErrorPush(context, SCPI_ERROR_DATA_TYPE_ERROR);
1250:libscpi/src/parser.c ****     }
1251:libscpi/src/parser.c **** 
1252:libscpi/src/parser.c ****     return result;
1253:libscpi/src/parser.c **** }
1254:libscpi/src/parser.c **** 
1255:libscpi/src/parser.c **** /**
1256:libscpi/src/parser.c ****  * Find tag in choices and returns its first textual representation
1257:libscpi/src/parser.c ****  * @param options specifications of choices numbers (patterns)
1258:libscpi/src/parser.c ****  * @param tag numerical representatio of choice
1259:libscpi/src/parser.c ****  * @param text result text
1260:libscpi/src/parser.c ****  * @return TRUE if succesfule, else FALSE
1261:libscpi/src/parser.c ****  */
1262:libscpi/src/parser.c **** scpi_bool_t SCPI_ChoiceToName(const scpi_choice_def_t * options, int32_t tag, const char ** text) {
1263:libscpi/src/parser.c ****     int i;
1264:libscpi/src/parser.c **** 
1265:libscpi/src/parser.c ****     for (i = 0; options[i].name != NULL; i++) {
1266:libscpi/src/parser.c ****         if (options[i].tag == tag) {
1267:libscpi/src/parser.c ****             *text = options[i].name;
1268:libscpi/src/parser.c ****             return TRUE;
1269:libscpi/src/parser.c ****         }
1270:libscpi/src/parser.c ****     }
1271:libscpi/src/parser.c **** 
1272:libscpi/src/parser.c ****     return FALSE;
1273:libscpi/src/parser.c **** }
1274:libscpi/src/parser.c **** 
1275:libscpi/src/parser.c **** /*
1276:libscpi/src/parser.c ****  * Definition of BOOL choice list
1277:libscpi/src/parser.c ****  */
1278:libscpi/src/parser.c **** const scpi_choice_def_t scpi_bool_def[] = {
1279:libscpi/src/parser.c ****     {"OFF", 0},
1280:libscpi/src/parser.c ****     {"ON", 1},
1281:libscpi/src/parser.c ****     SCPI_CHOICE_LIST_END /* termination of option list */
ARM GAS  /tmp/ccJs7hvj.s 			page 73


1282:libscpi/src/parser.c **** };
1283:libscpi/src/parser.c **** 
1284:libscpi/src/parser.c **** /**
1285:libscpi/src/parser.c ****  * Read BOOL parameter (0,1,ON,OFF)
1286:libscpi/src/parser.c ****  * @param context
1287:libscpi/src/parser.c ****  * @param value
1288:libscpi/src/parser.c ****  * @param mandatory
1289:libscpi/src/parser.c ****  * @return
1290:libscpi/src/parser.c ****  */
1291:libscpi/src/parser.c **** scpi_bool_t SCPI_ParamBool(scpi_t * context, scpi_bool_t * value, scpi_bool_t mandatory) {
1292:libscpi/src/parser.c ****     scpi_bool_t result;
1293:libscpi/src/parser.c ****     scpi_parameter_t param;
1294:libscpi/src/parser.c ****     int32_t intval;
1295:libscpi/src/parser.c **** 
1296:libscpi/src/parser.c ****     if (!value) {
1297:libscpi/src/parser.c ****         SCPI_ErrorPush(context, SCPI_ERROR_SYSTEM_ERROR);
1298:libscpi/src/parser.c ****         return FALSE;
1299:libscpi/src/parser.c ****     }
1300:libscpi/src/parser.c **** 
1301:libscpi/src/parser.c ****     result = SCPI_Parameter(context, &param, mandatory);
1302:libscpi/src/parser.c **** 
1303:libscpi/src/parser.c ****     if (result) {
1304:libscpi/src/parser.c ****         if (param.type == SCPI_TOKEN_DECIMAL_NUMERIC_PROGRAM_DATA) {
1305:libscpi/src/parser.c ****             SCPI_ParamToInt32(context, &param, &intval);
1306:libscpi/src/parser.c ****             *value = intval ? TRUE : FALSE;
1307:libscpi/src/parser.c ****         } else {
1308:libscpi/src/parser.c ****             result = SCPI_ParamToChoice(context, &param, scpi_bool_def, &intval);
1309:libscpi/src/parser.c ****             if (result) {
1310:libscpi/src/parser.c ****                 *value = intval ? TRUE : FALSE;
1311:libscpi/src/parser.c ****             }
1312:libscpi/src/parser.c ****         }
1313:libscpi/src/parser.c ****     }
1314:libscpi/src/parser.c **** 
1315:libscpi/src/parser.c ****     return result;
1316:libscpi/src/parser.c **** }
1317:libscpi/src/parser.c **** 
1318:libscpi/src/parser.c **** /**
1319:libscpi/src/parser.c ****  * Read value from list of options
1320:libscpi/src/parser.c ****  * @param context
1321:libscpi/src/parser.c ****  * @param options
1322:libscpi/src/parser.c ****  * @param value
1323:libscpi/src/parser.c ****  * @param mandatory
1324:libscpi/src/parser.c ****  * @return
1325:libscpi/src/parser.c ****  */
1326:libscpi/src/parser.c **** scpi_bool_t SCPI_ParamChoice(scpi_t * context, const scpi_choice_def_t * options, int32_t * value, 
1327:libscpi/src/parser.c ****     scpi_bool_t result;
1328:libscpi/src/parser.c ****     scpi_parameter_t param;
1329:libscpi/src/parser.c **** 
1330:libscpi/src/parser.c ****     if (!options || !value) {
1331:libscpi/src/parser.c ****         SCPI_ErrorPush(context, SCPI_ERROR_SYSTEM_ERROR);
1332:libscpi/src/parser.c ****         return FALSE;
1333:libscpi/src/parser.c ****     }
1334:libscpi/src/parser.c **** 
1335:libscpi/src/parser.c ****     result = SCPI_Parameter(context, &param, mandatory);
1336:libscpi/src/parser.c ****     if (result) {
1337:libscpi/src/parser.c ****         result = SCPI_ParamToChoice(context, &param, options, value);
1338:libscpi/src/parser.c ****     }
ARM GAS  /tmp/ccJs7hvj.s 			page 74


1339:libscpi/src/parser.c **** 
1340:libscpi/src/parser.c ****     return result;
1341:libscpi/src/parser.c **** }
1342:libscpi/src/parser.c **** 
1343:libscpi/src/parser.c **** /**
1344:libscpi/src/parser.c ****  * Parse one parameter and detect type
1345:libscpi/src/parser.c ****  * @param state
1346:libscpi/src/parser.c ****  * @param token
1347:libscpi/src/parser.c ****  * @return
1348:libscpi/src/parser.c ****  */
1349:libscpi/src/parser.c **** int scpiParser_parseProgramData(lex_state_t * state, scpi_token_t * token) {
1350:libscpi/src/parser.c ****     scpi_token_t tmp;
1351:libscpi/src/parser.c ****     int result = 0;
1352:libscpi/src/parser.c ****     int wsLen;
1353:libscpi/src/parser.c ****     int suffixLen;
1354:libscpi/src/parser.c ****     int realLen = 0;
1355:libscpi/src/parser.c ****     realLen += scpiLex_WhiteSpace(state, &tmp);
1356:libscpi/src/parser.c **** 
1357:libscpi/src/parser.c ****     if (result == 0) result = scpiLex_NondecimalNumericData(state, token);
1358:libscpi/src/parser.c ****     if (result == 0) result = scpiLex_CharacterProgramData(state, token);
1359:libscpi/src/parser.c ****     if (result == 0) {
1360:libscpi/src/parser.c ****         result = scpiLex_DecimalNumericProgramData(state, token);
1361:libscpi/src/parser.c ****         if (result != 0) {
1362:libscpi/src/parser.c ****             wsLen = scpiLex_WhiteSpace(state, &tmp);
1363:libscpi/src/parser.c ****             suffixLen = scpiLex_SuffixProgramData(state, &tmp);
1364:libscpi/src/parser.c ****             if (suffixLen > 0) {
1365:libscpi/src/parser.c ****                 token->len += wsLen + suffixLen;
1366:libscpi/src/parser.c ****                 token->type = SCPI_TOKEN_DECIMAL_NUMERIC_PROGRAM_DATA_WITH_SUFFIX;
1367:libscpi/src/parser.c ****                 result = token->len;
1368:libscpi/src/parser.c ****             }
1369:libscpi/src/parser.c ****         }
1370:libscpi/src/parser.c ****     }
1371:libscpi/src/parser.c **** 
1372:libscpi/src/parser.c ****     if (result == 0) result = scpiLex_StringProgramData(state, token);
1373:libscpi/src/parser.c ****     if (result == 0) result = scpiLex_ArbitraryBlockProgramData(state, token);
1374:libscpi/src/parser.c ****     if (result == 0) result = scpiLex_ProgramExpression(state, token);
1375:libscpi/src/parser.c **** 
1376:libscpi/src/parser.c ****     realLen += scpiLex_WhiteSpace(state, &tmp);
1377:libscpi/src/parser.c **** 
1378:libscpi/src/parser.c ****     return result + realLen;
1379:libscpi/src/parser.c **** }
1380:libscpi/src/parser.c **** 
1381:libscpi/src/parser.c **** /**
1382:libscpi/src/parser.c ****  * Skip all parameters to correctly detect end of command line.
1383:libscpi/src/parser.c ****  * @param state
1384:libscpi/src/parser.c ****  * @param token
1385:libscpi/src/parser.c ****  * @param numberOfParameters
1386:libscpi/src/parser.c ****  * @return
1387:libscpi/src/parser.c ****  */
1388:libscpi/src/parser.c **** int scpiParser_parseAllProgramData(lex_state_t * state, scpi_token_t * token, int * numberOfParamet
1389:libscpi/src/parser.c **** 
1390:libscpi/src/parser.c ****     int result;
1391:libscpi/src/parser.c ****     scpi_token_t tmp;
1392:libscpi/src/parser.c ****     int paramCount = 0;
1393:libscpi/src/parser.c **** 
1394:libscpi/src/parser.c ****     token->len = -1;
1395:libscpi/src/parser.c ****     token->type = SCPI_TOKEN_ALL_PROGRAM_DATA;
ARM GAS  /tmp/ccJs7hvj.s 			page 75


1396:libscpi/src/parser.c ****     token->ptr = state->pos;
1397:libscpi/src/parser.c **** 
1398:libscpi/src/parser.c **** 
1399:libscpi/src/parser.c ****     for (result = 1; result != 0; result = scpiLex_Comma(state, &tmp)) {
1400:libscpi/src/parser.c ****         token->len += result;
1401:libscpi/src/parser.c **** 
1402:libscpi/src/parser.c ****         if (result == 0) {
1403:libscpi/src/parser.c ****             token->type = SCPI_TOKEN_UNKNOWN;
1404:libscpi/src/parser.c ****             token->len = 0;
1405:libscpi/src/parser.c ****             paramCount = -1;
1406:libscpi/src/parser.c ****             break;
1407:libscpi/src/parser.c ****         }
1408:libscpi/src/parser.c **** 
1409:libscpi/src/parser.c ****         result = scpiParser_parseProgramData(state, &tmp);
1410:libscpi/src/parser.c ****         if (tmp.type != SCPI_TOKEN_UNKNOWN) {
1411:libscpi/src/parser.c ****             token->len += result;
1412:libscpi/src/parser.c ****         } else {
1413:libscpi/src/parser.c ****             token->type = SCPI_TOKEN_UNKNOWN;
1414:libscpi/src/parser.c ****             token->len = 0;
1415:libscpi/src/parser.c ****             paramCount = -1;
1416:libscpi/src/parser.c ****             break;
1417:libscpi/src/parser.c ****         }
1418:libscpi/src/parser.c ****         paramCount++;
1419:libscpi/src/parser.c ****     }
1420:libscpi/src/parser.c **** 
1421:libscpi/src/parser.c ****     if (token->len == -1) {
1422:libscpi/src/parser.c ****         token->len = 0;
1423:libscpi/src/parser.c ****     }
1424:libscpi/src/parser.c **** 
1425:libscpi/src/parser.c ****     if (numberOfParameters != NULL) {
1426:libscpi/src/parser.c ****         *numberOfParameters = paramCount;
1427:libscpi/src/parser.c ****     }
1428:libscpi/src/parser.c ****     return token->len;
1429:libscpi/src/parser.c **** }
1430:libscpi/src/parser.c **** 
1431:libscpi/src/parser.c **** /**
1432:libscpi/src/parser.c ****  * Skip complete command line - program header and parameters
1433:libscpi/src/parser.c ****  * @param state
1434:libscpi/src/parser.c ****  * @param buffer
1435:libscpi/src/parser.c ****  * @param len
1436:libscpi/src/parser.c ****  * @return
1437:libscpi/src/parser.c ****  */
1438:libscpi/src/parser.c **** int scpiParser_detectProgramMessageUnit(scpi_parser_state_t * state, char * buffer, int len) {
1439:libscpi/src/parser.c ****     lex_state_t lex_state;
1440:libscpi/src/parser.c ****     scpi_token_t tmp;
1441:libscpi/src/parser.c ****     int result = 0;
1442:libscpi/src/parser.c **** 
1443:libscpi/src/parser.c ****     lex_state.buffer = lex_state.pos = buffer;
1444:libscpi/src/parser.c ****     lex_state.len = len;
1445:libscpi/src/parser.c ****     state->numberOfParameters = 0;
1446:libscpi/src/parser.c **** 
1447:libscpi/src/parser.c ****     /* ignore whitespace at the begginig */
1448:libscpi/src/parser.c ****     scpiLex_WhiteSpace(&lex_state, &tmp);
1449:libscpi/src/parser.c **** 
1450:libscpi/src/parser.c ****     if (scpiLex_ProgramHeader(&lex_state, &state->programHeader) >= 0) {
1451:libscpi/src/parser.c ****         if (scpiLex_WhiteSpace(&lex_state, &tmp) > 0) {
1452:libscpi/src/parser.c ****             scpiParser_parseAllProgramData(&lex_state, &state->programData, &state->numberOfParamet
ARM GAS  /tmp/ccJs7hvj.s 			page 76


1453:libscpi/src/parser.c ****         } else {
1454:libscpi/src/parser.c ****             invalidateToken(&state->programData, lex_state.pos);
1455:libscpi/src/parser.c ****         }
1456:libscpi/src/parser.c ****     } else {
1457:libscpi/src/parser.c ****         invalidateToken(&state->programHeader, lex_state.buffer);
1458:libscpi/src/parser.c ****         invalidateToken(&state->programData, lex_state.buffer);
1459:libscpi/src/parser.c ****     }
1460:libscpi/src/parser.c **** 
1461:libscpi/src/parser.c ****     if (result == 0) result = scpiLex_NewLine(&lex_state, &tmp);
1462:libscpi/src/parser.c ****     if (result == 0) result = scpiLex_Semicolon(&lex_state, &tmp);
1463:libscpi/src/parser.c **** 
1464:libscpi/src/parser.c ****     if (!scpiLex_IsEos(&lex_state) && (result == 0)) {
1465:libscpi/src/parser.c ****         lex_state.pos++;
1466:libscpi/src/parser.c **** 
1467:libscpi/src/parser.c ****         state->programHeader.len = 1;
1468:libscpi/src/parser.c ****         state->programHeader.type = SCPI_TOKEN_INVALID;
1469:libscpi/src/parser.c **** 
1470:libscpi/src/parser.c ****         invalidateToken(&state->programData, lex_state.buffer);
1471:libscpi/src/parser.c ****     }
1472:libscpi/src/parser.c **** 
1473:libscpi/src/parser.c ****     if (SCPI_TOKEN_SEMICOLON == tmp.type) {
1474:libscpi/src/parser.c ****         state->termination = SCPI_MESSAGE_TERMINATION_SEMICOLON;
1475:libscpi/src/parser.c ****     } else if (SCPI_TOKEN_NL == tmp.type) {
1476:libscpi/src/parser.c ****         state->termination = SCPI_MESSAGE_TERMINATION_NL;
1477:libscpi/src/parser.c ****     } else {
1478:libscpi/src/parser.c ****         state->termination = SCPI_MESSAGE_TERMINATION_NONE;
1479:libscpi/src/parser.c ****     }
1480:libscpi/src/parser.c **** 
1481:libscpi/src/parser.c ****     return lex_state.pos - lex_state.buffer;
1482:libscpi/src/parser.c **** }
1483:libscpi/src/parser.c **** 
1484:libscpi/src/parser.c **** /**
1485:libscpi/src/parser.c ****  * Check current command
1486:libscpi/src/parser.c ****  *  - suitable for one handle to multiple commands
1487:libscpi/src/parser.c ****  * @param context
1488:libscpi/src/parser.c ****  * @param cmd
1489:libscpi/src/parser.c ****  * @return
1490:libscpi/src/parser.c ****  */
1491:libscpi/src/parser.c **** scpi_bool_t SCPI_IsCmd(scpi_t * context, const char * cmd) {
1492:libscpi/src/parser.c ****     const char * pattern;
1493:libscpi/src/parser.c **** 
1494:libscpi/src/parser.c ****     if (!context->param_list.cmd) {
1495:libscpi/src/parser.c ****         return FALSE;
1496:libscpi/src/parser.c ****     }
1497:libscpi/src/parser.c **** 
1498:libscpi/src/parser.c ****     pattern = context->param_list.cmd->pattern;
1499:libscpi/src/parser.c ****     return matchCommand(pattern, cmd, strlen(cmd), NULL, 0, 0);
1500:libscpi/src/parser.c **** }
1501:libscpi/src/parser.c **** 
1502:libscpi/src/parser.c **** #if USE_COMMAND_TAGS
1503:libscpi/src/parser.c **** 
1504:libscpi/src/parser.c **** /**
1505:libscpi/src/parser.c ****  * Return the .tag field of the matching scpi_command_t
1506:libscpi/src/parser.c ****  * @param context
1507:libscpi/src/parser.c ****  * @return
1508:libscpi/src/parser.c ****  */
1509:libscpi/src/parser.c **** int32_t SCPI_CmdTag(scpi_t * context) {
ARM GAS  /tmp/ccJs7hvj.s 			page 77


1510:libscpi/src/parser.c ****     if (context->param_list.cmd) {
1511:libscpi/src/parser.c ****         return context->param_list.cmd->tag;
1512:libscpi/src/parser.c ****     } else {
1513:libscpi/src/parser.c ****         return 0;
1514:libscpi/src/parser.c ****     }
1515:libscpi/src/parser.c **** }
1516:libscpi/src/parser.c **** #endif /* USE_COMMAND_TAGS */
1517:libscpi/src/parser.c **** 
1518:libscpi/src/parser.c **** scpi_bool_t SCPI_Match(const char * pattern, const char * value, size_t len) {
1519:libscpi/src/parser.c ****     return matchCommand(pattern, value, len, NULL, 0, 0);
1520:libscpi/src/parser.c **** }
1521:libscpi/src/parser.c **** 
1522:libscpi/src/parser.c **** scpi_bool_t SCPI_CommandNumbers(scpi_t * context, int32_t * numbers, size_t len, int32_t default_va
1523:libscpi/src/parser.c ****     return matchCommand(context->param_list.cmd->pattern, context->param_list.cmd_raw.data, context
1524:libscpi/src/parser.c **** }
1525:libscpi/src/parser.c **** 
1526:libscpi/src/parser.c **** /**
1527:libscpi/src/parser.c ****  * If SCPI_Parameter() returns FALSE, this function can detect, if the parameter
1528:libscpi/src/parser.c ****  * is just missing (TRUE) or if there was an error during processing of the command (FALSE)
1529:libscpi/src/parser.c ****  * @param parameter
1530:libscpi/src/parser.c ****  * @return
1531:libscpi/src/parser.c ****  */
1532:libscpi/src/parser.c **** scpi_bool_t SCPI_ParamIsValid(scpi_parameter_t * parameter) {
1533:libscpi/src/parser.c ****     return parameter->type == SCPI_TOKEN_UNKNOWN ? FALSE : TRUE;
1534:libscpi/src/parser.c **** }
1535:libscpi/src/parser.c **** 
1536:libscpi/src/parser.c **** /**
1537:libscpi/src/parser.c ****  * Returns TRUE if there was an error during parameter handling
1538:libscpi/src/parser.c ****  * @param context
1539:libscpi/src/parser.c ****  * @return
1540:libscpi/src/parser.c ****  */
1541:libscpi/src/parser.c **** scpi_bool_t SCPI_ParamErrorOccurred(scpi_t * context) {
1542:libscpi/src/parser.c ****     return context->cmd_error;
1543:libscpi/src/parser.c **** }
1544:libscpi/src/parser.c **** 
1545:libscpi/src/parser.c **** /**
1546:libscpi/src/parser.c ****  * Result binary array and swap bytes if needed (native endiannes != required endiannes)
1547:libscpi/src/parser.c ****  * @param context
1548:libscpi/src/parser.c ****  * @param array
1549:libscpi/src/parser.c ****  * @param count
1550:libscpi/src/parser.c ****  * @param item_size
1551:libscpi/src/parser.c ****  * @param format
1552:libscpi/src/parser.c ****  * @return
1553:libscpi/src/parser.c ****  */
1554:libscpi/src/parser.c **** static size_t produceResultArrayBinary(scpi_t * context, const void * array, size_t count, size_t i
 2392              		.loc 1 1554 138 is_stmt 1 view -0
 2393              		.cfi_startproc
 2394              		@ args = 4, pretend = 0, frame = 8
 2395              		@ frame_needed = 0, uses_anonymous_args = 0
 2396              		.loc 1 1554 138 is_stmt 0 view .LVU586
 2397 0000 F0B5     		push	{r4, r5, r6, r7, lr}
 2398              	.LCFI37:
 2399              		.cfi_def_cfa_offset 20
 2400              		.cfi_offset 4, -20
 2401              		.cfi_offset 5, -16
 2402              		.cfi_offset 6, -12
 2403              		.cfi_offset 7, -8
ARM GAS  /tmp/ccJs7hvj.s 			page 78


 2404              		.cfi_offset 14, -4
 2405 0002 CE46     		mov	lr, r9
 2406 0004 4746     		mov	r7, r8
 2407 0006 80B5     		push	{r7, lr}
 2408              	.LCFI38:
 2409              		.cfi_def_cfa_offset 28
 2410              		.cfi_offset 8, -28
 2411              		.cfi_offset 9, -24
 2412 0008 83B0     		sub	sp, sp, #12
 2413              	.LCFI39:
 2414              		.cfi_def_cfa_offset 40
 2415 000a 0700     		movs	r7, r0
 2416 000c 8846     		mov	r8, r1
 2417 000e 1600     		movs	r6, r2
 2418 0010 1C00     		movs	r4, r3
 2419 0012 0AAB     		add	r3, sp, #40
 2420              	.LVL302:
 2421              		.loc 1 1554 138 view .LVU587
 2422 0014 1D78     		ldrb	r5, [r3]
1555:libscpi/src/parser.c **** 
1556:libscpi/src/parser.c ****     if (SCPI_GetNativeFormat() == format) {
 2423              		.loc 1 1556 5 is_stmt 1 view .LVU588
 2424              		.loc 1 1556 9 is_stmt 0 view .LVU589
 2425 0016 FFF7FEFF 		bl	SCPI_GetNativeFormat
 2426              	.LVL303:
 2427              		.loc 1 1556 8 view .LVU590
 2428 001a A842     		cmp	r0, r5
 2429 001c 2AD0     		beq	.L141
 2430              	.LBB3:
1557:libscpi/src/parser.c ****         switch (item_size) {
1558:libscpi/src/parser.c ****             case 1:
1559:libscpi/src/parser.c ****             case 2:
1560:libscpi/src/parser.c ****             case 4:
1561:libscpi/src/parser.c ****             case 8:
1562:libscpi/src/parser.c ****                 return SCPI_ResultArbitraryBlock(context, array, count * item_size);
1563:libscpi/src/parser.c ****             default:
1564:libscpi/src/parser.c ****                 SCPI_ErrorPush(context, SCPI_ERROR_SYSTEM_ERROR);
1565:libscpi/src/parser.c ****                 return 0;
1566:libscpi/src/parser.c ****         }
1567:libscpi/src/parser.c ****     } else {
1568:libscpi/src/parser.c ****         size_t result = 0;
 2431              		.loc 1 1568 9 is_stmt 1 view .LVU591
 2432              	.LVL304:
1569:libscpi/src/parser.c ****         size_t i;
 2433              		.loc 1 1569 9 view .LVU592
1570:libscpi/src/parser.c ****         switch (item_size) {
 2434              		.loc 1 1570 9 view .LVU593
 2435 001e 082C     		cmp	r4, #8
 2436 0020 57D8     		bhi	.L128
 2437 0022 0123     		movs	r3, #1
 2438 0024 A340     		lsls	r3, r3, r4
 2439 0026 8B22     		movs	r2, #139
 2440 0028 5200     		lsls	r2, r2, #1
 2441 002a 1342     		tst	r3, r2
 2442 002c 51D0     		beq	.L128
1571:libscpi/src/parser.c ****             case 1:
1572:libscpi/src/parser.c ****             case 2:
ARM GAS  /tmp/ccJs7hvj.s 			page 79


1573:libscpi/src/parser.c ****             case 4:
1574:libscpi/src/parser.c ****             case 8:
1575:libscpi/src/parser.c ****                 result += SCPI_ResultArbitraryBlockHeader(context, count * item_size);
 2443              		.loc 1 1575 17 view .LVU594
 2444              		.loc 1 1575 27 is_stmt 0 view .LVU595
 2445 002e 3100     		movs	r1, r6
 2446 0030 6143     		muls	r1, r4
 2447 0032 3800     		movs	r0, r7
 2448 0034 FFF7FEFF 		bl	SCPI_ResultArbitraryBlockHeader
 2449              	.LVL305:
 2450 0038 0500     		movs	r5, r0
 2451              	.LVL306:
1576:libscpi/src/parser.c ****                 break;
 2452              		.loc 1 1576 17 is_stmt 1 view .LVU596
1577:libscpi/src/parser.c ****             default:
1578:libscpi/src/parser.c ****                 SCPI_ErrorPush(context, SCPI_ERROR_SYSTEM_ERROR);
1579:libscpi/src/parser.c ****                 return 0;
1580:libscpi/src/parser.c ****         }
1581:libscpi/src/parser.c **** 
1582:libscpi/src/parser.c ****         switch (item_size) {
 2453              		.loc 1 1582 9 view .LVU597
 2454 003a 042C     		cmp	r4, #4
 2455 003c 5BD0     		beq	.L138
 2456 003e 2FD8     		bhi	.L130
 2457 0040 012C     		cmp	r4, #1
 2458 0042 51D0     		beq	.L131
 2459 0044 022C     		cmp	r4, #2
 2460 0046 49D1     		bne	.L124
 2461 0048 0023     		movs	r3, #0
 2462 004a 9946     		mov	r9, r3
 2463              	.LVL307:
 2464              	.L132:
1583:libscpi/src/parser.c ****             case 1:
1584:libscpi/src/parser.c ****                 result += SCPI_ResultArbitraryBlockData(context, array, count);
1585:libscpi/src/parser.c ****                 break;
1586:libscpi/src/parser.c ****             case 2:
1587:libscpi/src/parser.c ****                 for (i = 0; i < count; i++) {
 2465              		.loc 1 1587 29 discriminator 1 view .LVU598
 2466              		.loc 1 1587 17 is_stmt 0 discriminator 1 view .LVU599
 2467 004c B145     		cmp	r9, r6
 2468 004e 45D2     		bcs	.L124
 2469              	.LBB4:
1588:libscpi/src/parser.c ****                     uint16_t val = SCPI_Swap16(((uint16_t*) array)[i]);
 2470              		.loc 1 1588 21 is_stmt 1 discriminator 3 view .LVU600
 2471              		.loc 1 1588 67 is_stmt 0 discriminator 3 view .LVU601
 2472 0050 4B46     		mov	r3, r9
 2473 0052 5B00     		lsls	r3, r3, #1
 2474              		.loc 1 1588 36 discriminator 3 view .LVU602
 2475 0054 4246     		mov	r2, r8
 2476 0056 D05A     		ldrh	r0, [r2, r3]
 2477 0058 FFF7FEFF 		bl	SCPI_Swap16
 2478              	.LVL308:
 2479              		.loc 1 1588 30 discriminator 3 view .LVU603
 2480 005c 6B46     		mov	r3, sp
 2481 005e 1880     		strh	r0, [r3]
1589:libscpi/src/parser.c ****                     result += SCPI_ResultArbitraryBlockData(context, &val, item_size);
 2482              		.loc 1 1589 21 is_stmt 1 discriminator 3 view .LVU604
ARM GAS  /tmp/ccJs7hvj.s 			page 80


 2483              		.loc 1 1589 31 is_stmt 0 discriminator 3 view .LVU605
 2484 0060 2200     		movs	r2, r4
 2485 0062 6946     		mov	r1, sp
 2486 0064 3800     		movs	r0, r7
 2487 0066 FFF7FEFF 		bl	SCPI_ResultArbitraryBlockData
 2488              	.LVL309:
 2489              		.loc 1 1589 28 discriminator 3 view .LVU606
 2490 006a 2D18     		adds	r5, r5, r0
 2491              	.LVL310:
 2492              		.loc 1 1589 28 discriminator 3 view .LVU607
 2493              	.LBE4:
1587:libscpi/src/parser.c ****                     uint16_t val = SCPI_Swap16(((uint16_t*) array)[i]);
 2494              		.loc 1 1587 40 is_stmt 1 discriminator 3 view .LVU608
1587:libscpi/src/parser.c ****                     uint16_t val = SCPI_Swap16(((uint16_t*) array)[i]);
 2495              		.loc 1 1587 41 is_stmt 0 discriminator 3 view .LVU609
 2496 006c 0123     		movs	r3, #1
 2497 006e 9C46     		mov	ip, r3
 2498 0070 E144     		add	r9, r9, ip
 2499              	.LVL311:
1587:libscpi/src/parser.c ****                     uint16_t val = SCPI_Swap16(((uint16_t*) array)[i]);
 2500              		.loc 1 1587 41 discriminator 3 view .LVU610
 2501 0072 EBE7     		b	.L132
 2502              	.LVL312:
 2503              	.L141:
1587:libscpi/src/parser.c ****                     uint16_t val = SCPI_Swap16(((uint16_t*) array)[i]);
 2504              		.loc 1 1587 41 discriminator 3 view .LVU611
 2505              	.LBE3:
1557:libscpi/src/parser.c ****             case 1:
 2506              		.loc 1 1557 9 is_stmt 1 view .LVU612
 2507 0074 082C     		cmp	r4, #8
 2508 0076 0DD8     		bhi	.L126
 2509 0078 0123     		movs	r3, #1
 2510 007a A340     		lsls	r3, r3, r4
 2511 007c 8B22     		movs	r2, #139
 2512 007e 5200     		lsls	r2, r2, #1
 2513 0080 1342     		tst	r3, r2
 2514 0082 07D0     		beq	.L126
1562:libscpi/src/parser.c ****             default:
 2515              		.loc 1 1562 17 view .LVU613
1562:libscpi/src/parser.c ****             default:
 2516              		.loc 1 1562 24 is_stmt 0 view .LVU614
 2517 0084 3200     		movs	r2, r6
 2518 0086 6243     		muls	r2, r4
 2519 0088 4146     		mov	r1, r8
 2520 008a 3800     		movs	r0, r7
 2521 008c FFF7FEFF 		bl	SCPI_ResultArbitraryBlock
 2522              	.LVL313:
 2523 0090 0500     		movs	r5, r0
 2524 0092 23E0     		b	.L124
 2525              	.L126:
1564:libscpi/src/parser.c ****                 return 0;
 2526              		.loc 1 1564 17 is_stmt 1 view .LVU615
 2527 0094 2249     		ldr	r1, .L142
 2528 0096 3800     		movs	r0, r7
 2529 0098 FFF7FEFF 		bl	SCPI_ErrorPush
 2530              	.LVL314:
1565:libscpi/src/parser.c ****         }
ARM GAS  /tmp/ccJs7hvj.s 			page 81


 2531              		.loc 1 1565 17 view .LVU616
1565:libscpi/src/parser.c ****         }
 2532              		.loc 1 1565 24 is_stmt 0 view .LVU617
 2533 009c 0025     		movs	r5, #0
 2534 009e 1DE0     		b	.L124
 2535              	.LVL315:
 2536              	.L130:
 2537              	.LBB7:
1582:libscpi/src/parser.c ****             case 1:
 2538              		.loc 1 1582 9 view .LVU618
 2539 00a0 082C     		cmp	r4, #8
 2540 00a2 1BD1     		bne	.L124
 2541 00a4 0023     		movs	r3, #0
 2542 00a6 9946     		mov	r9, r3
 2543              	.LVL316:
 2544              	.L134:
1590:libscpi/src/parser.c ****                 }
1591:libscpi/src/parser.c ****                 break;
1592:libscpi/src/parser.c ****             case 4:
1593:libscpi/src/parser.c ****                 for (i = 0; i < count; i++) {
1594:libscpi/src/parser.c ****                     uint32_t val = SCPI_Swap32(((uint32_t*) array)[i]);
1595:libscpi/src/parser.c ****                     result += SCPI_ResultArbitraryBlockData(context, &val, item_size);
1596:libscpi/src/parser.c ****                 }
1597:libscpi/src/parser.c ****                 break;
1598:libscpi/src/parser.c ****             case 8:
1599:libscpi/src/parser.c ****                 for (i = 0; i < count; i++) {
 2545              		.loc 1 1599 29 is_stmt 1 discriminator 1 view .LVU619
 2546              		.loc 1 1599 17 is_stmt 0 discriminator 1 view .LVU620
 2547 00a8 B145     		cmp	r9, r6
 2548 00aa 17D2     		bcs	.L124
 2549              	.LBB5:
1600:libscpi/src/parser.c ****                     uint64_t val = SCPI_Swap64(((uint64_t*) array)[i]);
 2550              		.loc 1 1600 21 is_stmt 1 discriminator 3 view .LVU621
 2551              		.loc 1 1600 67 is_stmt 0 discriminator 3 view .LVU622
 2552 00ac 4B46     		mov	r3, r9
 2553 00ae DB00     		lsls	r3, r3, #3
 2554 00b0 4344     		add	r3, r3, r8
 2555              		.loc 1 1600 36 discriminator 3 view .LVU623
 2556 00b2 1868     		ldr	r0, [r3]
 2557 00b4 5968     		ldr	r1, [r3, #4]
 2558 00b6 FFF7FEFF 		bl	SCPI_Swap64
 2559              	.LVL317:
 2560              		.loc 1 1600 30 discriminator 3 view .LVU624
 2561 00ba 0090     		str	r0, [sp]
 2562 00bc 0191     		str	r1, [sp, #4]
1601:libscpi/src/parser.c ****                     result += SCPI_ResultArbitraryBlockData(context, &val, item_size);
 2563              		.loc 1 1601 21 is_stmt 1 discriminator 3 view .LVU625
 2564              		.loc 1 1601 31 is_stmt 0 discriminator 3 view .LVU626
 2565 00be 2200     		movs	r2, r4
 2566 00c0 6946     		mov	r1, sp
 2567 00c2 3800     		movs	r0, r7
 2568 00c4 FFF7FEFF 		bl	SCPI_ResultArbitraryBlockData
 2569              	.LVL318:
 2570              		.loc 1 1601 28 discriminator 3 view .LVU627
 2571 00c8 2D18     		adds	r5, r5, r0
 2572              	.LVL319:
 2573              		.loc 1 1601 28 discriminator 3 view .LVU628
ARM GAS  /tmp/ccJs7hvj.s 			page 82


 2574              	.LBE5:
1599:libscpi/src/parser.c ****                     uint64_t val = SCPI_Swap64(((uint64_t*) array)[i]);
 2575              		.loc 1 1599 40 is_stmt 1 discriminator 3 view .LVU629
1599:libscpi/src/parser.c ****                     uint64_t val = SCPI_Swap64(((uint64_t*) array)[i]);
 2576              		.loc 1 1599 41 is_stmt 0 discriminator 3 view .LVU630
 2577 00ca 0123     		movs	r3, #1
 2578 00cc 9C46     		mov	ip, r3
 2579 00ce E144     		add	r9, r9, ip
 2580              	.LVL320:
1599:libscpi/src/parser.c ****                     uint64_t val = SCPI_Swap64(((uint64_t*) array)[i]);
 2581              		.loc 1 1599 41 discriminator 3 view .LVU631
 2582 00d0 EAE7     		b	.L134
 2583              	.LVL321:
 2584              	.L128:
1578:libscpi/src/parser.c ****                 return 0;
 2585              		.loc 1 1578 17 is_stmt 1 view .LVU632
 2586 00d2 1349     		ldr	r1, .L142
 2587 00d4 3800     		movs	r0, r7
 2588 00d6 FFF7FEFF 		bl	SCPI_ErrorPush
 2589              	.LVL322:
1579:libscpi/src/parser.c ****         }
 2590              		.loc 1 1579 17 view .LVU633
1579:libscpi/src/parser.c ****         }
 2591              		.loc 1 1579 24 is_stmt 0 view .LVU634
 2592 00da 0025     		movs	r5, #0
 2593              	.LVL323:
 2594              	.L124:
1579:libscpi/src/parser.c ****         }
 2595              		.loc 1 1579 24 view .LVU635
 2596              	.LBE7:
1602:libscpi/src/parser.c ****                 }
1603:libscpi/src/parser.c ****                 break;
1604:libscpi/src/parser.c ****         }
1605:libscpi/src/parser.c **** 
1606:libscpi/src/parser.c ****         return result;
1607:libscpi/src/parser.c ****     }
1608:libscpi/src/parser.c **** }
 2597              		.loc 1 1608 1 view .LVU636
 2598 00dc 2800     		movs	r0, r5
 2599 00de 03B0     		add	sp, sp, #12
 2600              		@ sp needed
 2601              	.LVL324:
 2602              	.LVL325:
 2603              	.LVL326:
 2604              	.LVL327:
 2605              		.loc 1 1608 1 view .LVU637
 2606 00e0 0CBC     		pop	{r2, r3}
 2607 00e2 9046     		mov	r8, r2
 2608 00e4 9946     		mov	r9, r3
 2609 00e6 F0BD     		pop	{r4, r5, r6, r7, pc}
 2610              	.LVL328:
 2611              	.L131:
 2612              	.LBB8:
1584:libscpi/src/parser.c ****                 break;
 2613              		.loc 1 1584 17 is_stmt 1 view .LVU638
1584:libscpi/src/parser.c ****                 break;
 2614              		.loc 1 1584 27 is_stmt 0 view .LVU639
ARM GAS  /tmp/ccJs7hvj.s 			page 83


 2615 00e8 3200     		movs	r2, r6
 2616 00ea 4146     		mov	r1, r8
 2617 00ec 3800     		movs	r0, r7
 2618              	.LVL329:
1584:libscpi/src/parser.c ****                 break;
 2619              		.loc 1 1584 27 view .LVU640
 2620 00ee FFF7FEFF 		bl	SCPI_ResultArbitraryBlockData
 2621              	.LVL330:
1584:libscpi/src/parser.c ****                 break;
 2622              		.loc 1 1584 24 view .LVU641
 2623 00f2 2D18     		adds	r5, r5, r0
 2624              	.LVL331:
1585:libscpi/src/parser.c ****             case 2:
 2625              		.loc 1 1585 17 is_stmt 1 view .LVU642
 2626 00f4 F2E7     		b	.L124
 2627              	.LVL332:
 2628              	.L138:
1582:libscpi/src/parser.c ****             case 1:
 2629              		.loc 1 1582 9 is_stmt 0 view .LVU643
 2630 00f6 0023     		movs	r3, #0
 2631 00f8 9946     		mov	r9, r3
 2632              	.LVL333:
 2633              	.L129:
1593:libscpi/src/parser.c ****                     uint32_t val = SCPI_Swap32(((uint32_t*) array)[i]);
 2634              		.loc 1 1593 29 is_stmt 1 discriminator 1 view .LVU644
1593:libscpi/src/parser.c ****                     uint32_t val = SCPI_Swap32(((uint32_t*) array)[i]);
 2635              		.loc 1 1593 17 is_stmt 0 discriminator 1 view .LVU645
 2636 00fa B145     		cmp	r9, r6
 2637 00fc EED2     		bcs	.L124
 2638              	.LBB6:
1594:libscpi/src/parser.c ****                     result += SCPI_ResultArbitraryBlockData(context, &val, item_size);
 2639              		.loc 1 1594 21 is_stmt 1 discriminator 3 view .LVU646
1594:libscpi/src/parser.c ****                     result += SCPI_ResultArbitraryBlockData(context, &val, item_size);
 2640              		.loc 1 1594 67 is_stmt 0 discriminator 3 view .LVU647
 2641 00fe 4B46     		mov	r3, r9
 2642 0100 9B00     		lsls	r3, r3, #2
1594:libscpi/src/parser.c ****                     result += SCPI_ResultArbitraryBlockData(context, &val, item_size);
 2643              		.loc 1 1594 36 discriminator 3 view .LVU648
 2644 0102 4246     		mov	r2, r8
 2645 0104 D058     		ldr	r0, [r2, r3]
 2646 0106 FFF7FEFF 		bl	SCPI_Swap32
 2647              	.LVL334:
1594:libscpi/src/parser.c ****                     result += SCPI_ResultArbitraryBlockData(context, &val, item_size);
 2648              		.loc 1 1594 30 discriminator 3 view .LVU649
 2649 010a 0090     		str	r0, [sp]
1595:libscpi/src/parser.c ****                 }
 2650              		.loc 1 1595 21 is_stmt 1 discriminator 3 view .LVU650
1595:libscpi/src/parser.c ****                 }
 2651              		.loc 1 1595 31 is_stmt 0 discriminator 3 view .LVU651
 2652 010c 2200     		movs	r2, r4
 2653 010e 6946     		mov	r1, sp
 2654 0110 3800     		movs	r0, r7
 2655 0112 FFF7FEFF 		bl	SCPI_ResultArbitraryBlockData
 2656              	.LVL335:
1595:libscpi/src/parser.c ****                 }
 2657              		.loc 1 1595 28 discriminator 3 view .LVU652
 2658 0116 2D18     		adds	r5, r5, r0
ARM GAS  /tmp/ccJs7hvj.s 			page 84


 2659              	.LVL336:
1595:libscpi/src/parser.c ****                 }
 2660              		.loc 1 1595 28 discriminator 3 view .LVU653
 2661              	.LBE6:
1593:libscpi/src/parser.c ****                     uint32_t val = SCPI_Swap32(((uint32_t*) array)[i]);
 2662              		.loc 1 1593 40 is_stmt 1 discriminator 3 view .LVU654
1593:libscpi/src/parser.c ****                     uint32_t val = SCPI_Swap32(((uint32_t*) array)[i]);
 2663              		.loc 1 1593 41 is_stmt 0 discriminator 3 view .LVU655
 2664 0118 0123     		movs	r3, #1
 2665 011a 9C46     		mov	ip, r3
 2666 011c E144     		add	r9, r9, ip
 2667              	.LVL337:
1593:libscpi/src/parser.c ****                     uint32_t val = SCPI_Swap32(((uint32_t*) array)[i]);
 2668              		.loc 1 1593 41 discriminator 3 view .LVU656
 2669 011e ECE7     		b	.L129
 2670              	.L143:
 2671              		.align	2
 2672              	.L142:
 2673 0120 CAFEFFFF 		.word	-310
 2674              	.LBE8:
 2675              		.cfi_endproc
 2676              	.LFE61:
 2678              		.section	.text.SCPI_ResultBool,"ax",%progbits
 2679              		.align	1
 2680              		.global	SCPI_ResultBool
 2681              		.syntax unified
 2682              		.code	16
 2683              		.thumb_func
 2684              		.fpu softvfp
 2686              	SCPI_ResultBool:
 2687              	.LVL338:
 2688              	.LFB25:
 664:libscpi/src/parser.c ****     return resultUInt32BaseSign(context, val ? 1 : 0, 10, FALSE);
 2689              		.loc 1 664 59 is_stmt 1 view -0
 2690              		.cfi_startproc
 2691              		@ args = 0, pretend = 0, frame = 0
 2692              		@ frame_needed = 0, uses_anonymous_args = 0
 664:libscpi/src/parser.c ****     return resultUInt32BaseSign(context, val ? 1 : 0, 10, FALSE);
 2693              		.loc 1 664 59 is_stmt 0 view .LVU658
 2694 0000 10B5     		push	{r4, lr}
 2695              	.LCFI40:
 2696              		.cfi_def_cfa_offset 8
 2697              		.cfi_offset 4, -8
 2698              		.cfi_offset 14, -4
 665:libscpi/src/parser.c **** }
 2699              		.loc 1 665 5 is_stmt 1 view .LVU659
 665:libscpi/src/parser.c **** }
 2700              		.loc 1 665 12 is_stmt 0 view .LVU660
 2701 0002 0023     		movs	r3, #0
 2702 0004 0A22     		movs	r2, #10
 2703 0006 FFF7FEFF 		bl	resultUInt32BaseSign
 2704              	.LVL339:
 666:libscpi/src/parser.c **** 
 2705              		.loc 1 666 1 view .LVU661
 2706              		@ sp needed
 2707 000a 10BD     		pop	{r4, pc}
 2708              		.cfi_endproc
ARM GAS  /tmp/ccJs7hvj.s 			page 85


 2709              	.LFE25:
 2711              		.section	.text.SCPI_ParamIsNumber,"ax",%progbits
 2712              		.align	1
 2713              		.global	SCPI_ParamIsNumber
 2714              		.syntax unified
 2715              		.code	16
 2716              		.thumb_func
 2717              		.fpu softvfp
 2719              	SCPI_ParamIsNumber:
 2720              	.LVL340:
 2721              	.LFB28:
 746:libscpi/src/parser.c ****     switch (parameter->type) {
 2722              		.loc 1 746 89 is_stmt 1 view -0
 2723              		.cfi_startproc
 2724              		@ args = 0, pretend = 0, frame = 0
 2725              		@ frame_needed = 0, uses_anonymous_args = 0
 2726              		@ link register save eliminated.
 747:libscpi/src/parser.c ****         case SCPI_TOKEN_HEXNUM:
 2727              		.loc 1 747 5 view .LVU663
 747:libscpi/src/parser.c ****         case SCPI_TOKEN_HEXNUM:
 2728              		.loc 1 747 22 is_stmt 0 view .LVU664
 2729 0000 0378     		ldrb	r3, [r0]
 747:libscpi/src/parser.c ****         case SCPI_TOKEN_HEXNUM:
 2730              		.loc 1 747 5 view .LVU665
 2731 0002 0A2B     		cmp	r3, #10
 2732 0004 0AD0     		beq	.L148
 2733 0006 03D9     		bls	.L151
 2734 0008 0B2B     		cmp	r3, #11
 2735 000a 0BD1     		bne	.L150
 754:libscpi/src/parser.c ****         default:
 2736              		.loc 1 754 20 view .LVU666
 2737 000c 0800     		movs	r0, r1
 2738              	.LVL341:
 2739              	.L146:
 758:libscpi/src/parser.c **** 
 2740              		.loc 1 758 1 view .LVU667
 2741              		@ sp needed
 2742 000e 7047     		bx	lr
 2743              	.LVL342:
 2744              	.L151:
 747:libscpi/src/parser.c ****         case SCPI_TOKEN_HEXNUM:
 2745              		.loc 1 747 5 view .LVU668
 2746 0010 063B     		subs	r3, r3, #6
 2747 0012 DBB2     		uxtb	r3, r3
 2748 0014 022B     		cmp	r3, #2
 2749 0016 03D9     		bls	.L149
 756:libscpi/src/parser.c ****     }
 2750              		.loc 1 756 20 view .LVU669
 2751 0018 0020     		movs	r0, #0
 2752              	.LVL343:
 756:libscpi/src/parser.c ****     }
 2753              		.loc 1 756 20 view .LVU670
 2754 001a F8E7     		b	.L146
 2755              	.LVL344:
 2756              	.L148:
 747:libscpi/src/parser.c ****         case SCPI_TOKEN_HEXNUM:
 2757              		.loc 1 747 5 view .LVU671
ARM GAS  /tmp/ccJs7hvj.s 			page 86


 2758 001c 0120     		movs	r0, #1
 2759              	.LVL345:
 747:libscpi/src/parser.c ****         case SCPI_TOKEN_HEXNUM:
 2760              		.loc 1 747 5 view .LVU672
 2761 001e F6E7     		b	.L146
 2762              	.LVL346:
 2763              	.L149:
 747:libscpi/src/parser.c ****         case SCPI_TOKEN_HEXNUM:
 2764              		.loc 1 747 5 view .LVU673
 2765 0020 0120     		movs	r0, #1
 2766              	.LVL347:
 747:libscpi/src/parser.c ****         case SCPI_TOKEN_HEXNUM:
 2767              		.loc 1 747 5 view .LVU674
 2768 0022 F4E7     		b	.L146
 2769              	.LVL348:
 2770              	.L150:
 756:libscpi/src/parser.c ****     }
 2771              		.loc 1 756 20 view .LVU675
 2772 0024 0020     		movs	r0, #0
 2773              	.LVL349:
 756:libscpi/src/parser.c ****     }
 2774              		.loc 1 756 20 view .LVU676
 2775 0026 F2E7     		b	.L146
 2776              		.cfi_endproc
 2777              	.LFE28:
 2779              		.section	.text.SCPI_ParamToInt32,"ax",%progbits
 2780              		.align	1
 2781              		.global	SCPI_ParamToInt32
 2782              		.syntax unified
 2783              		.code	16
 2784              		.thumb_func
 2785              		.fpu softvfp
 2787              	SCPI_ParamToInt32:
 2788              	.LVL350:
 2789              	.LFB31:
 835:libscpi/src/parser.c ****     return ParamSignToUInt32(context, parameter, (uint32_t *) value, TRUE);
 2790              		.loc 1 835 96 is_stmt 1 view -0
 2791              		.cfi_startproc
 2792              		@ args = 0, pretend = 0, frame = 0
 2793              		@ frame_needed = 0, uses_anonymous_args = 0
 835:libscpi/src/parser.c ****     return ParamSignToUInt32(context, parameter, (uint32_t *) value, TRUE);
 2794              		.loc 1 835 96 is_stmt 0 view .LVU678
 2795 0000 10B5     		push	{r4, lr}
 2796              	.LCFI41:
 2797              		.cfi_def_cfa_offset 8
 2798              		.cfi_offset 4, -8
 2799              		.cfi_offset 14, -4
 836:libscpi/src/parser.c **** }
 2800              		.loc 1 836 5 is_stmt 1 view .LVU679
 836:libscpi/src/parser.c **** }
 2801              		.loc 1 836 12 is_stmt 0 view .LVU680
 2802 0002 0123     		movs	r3, #1
 2803 0004 FFF7FEFF 		bl	ParamSignToUInt32
 2804              	.LVL351:
 837:libscpi/src/parser.c **** 
 2805              		.loc 1 837 1 view .LVU681
 2806              		@ sp needed
ARM GAS  /tmp/ccJs7hvj.s 			page 87


 2807 0008 10BD     		pop	{r4, pc}
 2808              		.cfi_endproc
 2809              	.LFE31:
 2811              		.section	.text.SCPI_ParamToUInt32,"ax",%progbits
 2812              		.align	1
 2813              		.global	SCPI_ParamToUInt32
 2814              		.syntax unified
 2815              		.code	16
 2816              		.thumb_func
 2817              		.fpu softvfp
 2819              	SCPI_ParamToUInt32:
 2820              	.LVL352:
 2821              	.LFB32:
 846:libscpi/src/parser.c ****     return ParamSignToUInt32(context, parameter, value, FALSE);
 2822              		.loc 1 846 98 is_stmt 1 view -0
 2823              		.cfi_startproc
 2824              		@ args = 0, pretend = 0, frame = 0
 2825              		@ frame_needed = 0, uses_anonymous_args = 0
 846:libscpi/src/parser.c ****     return ParamSignToUInt32(context, parameter, value, FALSE);
 2826              		.loc 1 846 98 is_stmt 0 view .LVU683
 2827 0000 10B5     		push	{r4, lr}
 2828              	.LCFI42:
 2829              		.cfi_def_cfa_offset 8
 2830              		.cfi_offset 4, -8
 2831              		.cfi_offset 14, -4
 847:libscpi/src/parser.c **** }
 2832              		.loc 1 847 5 is_stmt 1 view .LVU684
 847:libscpi/src/parser.c **** }
 2833              		.loc 1 847 12 is_stmt 0 view .LVU685
 2834 0002 0023     		movs	r3, #0
 2835 0004 FFF7FEFF 		bl	ParamSignToUInt32
 2836              	.LVL353:
 848:libscpi/src/parser.c **** 
 2837              		.loc 1 848 1 view .LVU686
 2838              		@ sp needed
 2839 0008 10BD     		pop	{r4, pc}
 2840              		.cfi_endproc
 2841              	.LFE32:
 2843              		.section	.text.SCPI_ParamToInt64,"ax",%progbits
 2844              		.align	1
 2845              		.global	SCPI_ParamToInt64
 2846              		.syntax unified
 2847              		.code	16
 2848              		.thumb_func
 2849              		.fpu softvfp
 2851              	SCPI_ParamToInt64:
 2852              	.LVL354:
 2853              	.LFB33:
 857:libscpi/src/parser.c ****     return ParamSignToUInt64(context, parameter, (uint64_t *) value, TRUE);
 2854              		.loc 1 857 96 is_stmt 1 view -0
 2855              		.cfi_startproc
 2856              		@ args = 0, pretend = 0, frame = 0
 2857              		@ frame_needed = 0, uses_anonymous_args = 0
 857:libscpi/src/parser.c ****     return ParamSignToUInt64(context, parameter, (uint64_t *) value, TRUE);
 2858              		.loc 1 857 96 is_stmt 0 view .LVU688
 2859 0000 10B5     		push	{r4, lr}
 2860              	.LCFI43:
ARM GAS  /tmp/ccJs7hvj.s 			page 88


 2861              		.cfi_def_cfa_offset 8
 2862              		.cfi_offset 4, -8
 2863              		.cfi_offset 14, -4
 858:libscpi/src/parser.c **** }
 2864              		.loc 1 858 5 is_stmt 1 view .LVU689
 858:libscpi/src/parser.c **** }
 2865              		.loc 1 858 12 is_stmt 0 view .LVU690
 2866 0002 0123     		movs	r3, #1
 2867 0004 FFF7FEFF 		bl	ParamSignToUInt64
 2868              	.LVL355:
 859:libscpi/src/parser.c **** 
 2869              		.loc 1 859 1 view .LVU691
 2870              		@ sp needed
 2871 0008 10BD     		pop	{r4, pc}
 2872              		.cfi_endproc
 2873              	.LFE33:
 2875              		.section	.text.SCPI_ParamToUInt64,"ax",%progbits
 2876              		.align	1
 2877              		.global	SCPI_ParamToUInt64
 2878              		.syntax unified
 2879              		.code	16
 2880              		.thumb_func
 2881              		.fpu softvfp
 2883              	SCPI_ParamToUInt64:
 2884              	.LVL356:
 2885              	.LFB34:
 868:libscpi/src/parser.c ****     return ParamSignToUInt64(context, parameter, value, FALSE);
 2886              		.loc 1 868 98 is_stmt 1 view -0
 2887              		.cfi_startproc
 2888              		@ args = 0, pretend = 0, frame = 0
 2889              		@ frame_needed = 0, uses_anonymous_args = 0
 868:libscpi/src/parser.c ****     return ParamSignToUInt64(context, parameter, value, FALSE);
 2890              		.loc 1 868 98 is_stmt 0 view .LVU693
 2891 0000 10B5     		push	{r4, lr}
 2892              	.LCFI44:
 2893              		.cfi_def_cfa_offset 8
 2894              		.cfi_offset 4, -8
 2895              		.cfi_offset 14, -4
 869:libscpi/src/parser.c **** }
 2896              		.loc 1 869 5 is_stmt 1 view .LVU694
 869:libscpi/src/parser.c **** }
 2897              		.loc 1 869 12 is_stmt 0 view .LVU695
 2898 0002 0023     		movs	r3, #0
 2899 0004 FFF7FEFF 		bl	ParamSignToUInt64
 2900              	.LVL357:
 870:libscpi/src/parser.c **** 
 2901              		.loc 1 870 1 view .LVU696
 2902              		@ sp needed
 2903 0008 10BD     		pop	{r4, pc}
 2904              		.cfi_endproc
 2905              	.LFE34:
 2907              		.global	__aeabi_ui2f
 2908              		.section	.text.SCPI_ParamToFloat,"ax",%progbits
 2909              		.align	1
 2910              		.global	SCPI_ParamToFloat
 2911              		.syntax unified
 2912              		.code	16
ARM GAS  /tmp/ccJs7hvj.s 			page 89


 2913              		.thumb_func
 2914              		.fpu softvfp
 2916              	SCPI_ParamToFloat:
 2917              	.LVL358:
 2918              	.LFB35:
 879:libscpi/src/parser.c ****     scpi_bool_t result;
 2919              		.loc 1 879 94 is_stmt 1 view -0
 2920              		.cfi_startproc
 2921              		@ args = 0, pretend = 0, frame = 8
 2922              		@ frame_needed = 0, uses_anonymous_args = 0
 879:libscpi/src/parser.c ****     scpi_bool_t result;
 2923              		.loc 1 879 94 is_stmt 0 view .LVU698
 2924 0000 30B5     		push	{r4, r5, lr}
 2925              	.LCFI45:
 2926              		.cfi_def_cfa_offset 12
 2927              		.cfi_offset 4, -12
 2928              		.cfi_offset 5, -8
 2929              		.cfi_offset 14, -4
 2930 0002 83B0     		sub	sp, sp, #12
 2931              	.LCFI46:
 2932              		.cfi_def_cfa_offset 24
 2933 0004 141E     		subs	r4, r2, #0
 880:libscpi/src/parser.c ****     uint32_t valint;
 2934              		.loc 1 880 5 is_stmt 1 view .LVU699
 881:libscpi/src/parser.c **** 
 2935              		.loc 1 881 5 view .LVU700
 883:libscpi/src/parser.c ****         SCPI_ErrorPush(context, SCPI_ERROR_SYSTEM_ERROR);
 2936              		.loc 1 883 5 view .LVU701
 883:libscpi/src/parser.c ****         SCPI_ErrorPush(context, SCPI_ERROR_SYSTEM_ERROR);
 2937              		.loc 1 883 8 is_stmt 0 view .LVU702
 2938 0006 0ED0     		beq	.L164
 888:libscpi/src/parser.c ****         case SCPI_TOKEN_HEXNUM:
 2939              		.loc 1 888 5 is_stmt 1 view .LVU703
 888:libscpi/src/parser.c ****         case SCPI_TOKEN_HEXNUM:
 2940              		.loc 1 888 22 is_stmt 0 view .LVU704
 2941 0008 0B78     		ldrb	r3, [r1]
 888:libscpi/src/parser.c ****         case SCPI_TOKEN_HEXNUM:
 2942              		.loc 1 888 5 view .LVU705
 2943 000a 082B     		cmp	r3, #8
 2944 000c 10D9     		bls	.L165
 2945 000e 0A3B     		subs	r3, r3, #10
 2946 0010 DBB2     		uxtb	r3, r3
 2947 0012 012B     		cmp	r3, #1
 2948 0014 1BD8     		bhi	.L166
 897:libscpi/src/parser.c ****             break;
 2949              		.loc 1 897 13 is_stmt 1 view .LVU706
 897:libscpi/src/parser.c ****             break;
 2950              		.loc 1 897 42 is_stmt 0 view .LVU707
 2951 0016 4868     		ldr	r0, [r1, #4]
 2952              	.LVL359:
 897:libscpi/src/parser.c ****             break;
 2953              		.loc 1 897 22 view .LVU708
 2954 0018 1100     		movs	r1, r2
 2955              	.LVL360:
 897:libscpi/src/parser.c ****             break;
 2956              		.loc 1 897 22 view .LVU709
 2957 001a FFF7FEFF 		bl	strToFloat
ARM GAS  /tmp/ccJs7hvj.s 			page 90


 2958              	.LVL361:
 897:libscpi/src/parser.c ****             break;
 2959              		.loc 1 897 20 view .LVU710
 2960 001e 451E     		subs	r5, r0, #1
 2961 0020 A841     		sbcs	r0, r0, r5
 2962 0022 C5B2     		uxtb	r5, r0
 2963              	.LVL362:
 898:libscpi/src/parser.c ****         default:
 2964              		.loc 1 898 13 is_stmt 1 view .LVU711
 2965 0024 07E0     		b	.L158
 2966              	.LVL363:
 2967              	.L164:
 884:libscpi/src/parser.c ****         return FALSE;
 2968              		.loc 1 884 9 view .LVU712
 2969 0026 0B49     		ldr	r1, .L167
 2970              	.LVL364:
 884:libscpi/src/parser.c ****         return FALSE;
 2971              		.loc 1 884 9 is_stmt 0 view .LVU713
 2972 0028 FFF7FEFF 		bl	SCPI_ErrorPush
 2973              	.LVL365:
 885:libscpi/src/parser.c ****     }
 2974              		.loc 1 885 9 is_stmt 1 view .LVU714
 885:libscpi/src/parser.c ****     }
 2975              		.loc 1 885 16 is_stmt 0 view .LVU715
 2976 002c 0025     		movs	r5, #0
 2977 002e 02E0     		b	.L158
 2978              	.LVL366:
 2979              	.L165:
 888:libscpi/src/parser.c ****         case SCPI_TOKEN_HEXNUM:
 2980              		.loc 1 888 5 view .LVU716
 2981 0030 062B     		cmp	r3, #6
 2982 0032 03D2     		bcs	.L160
 2983 0034 0025     		movs	r5, #0
 2984              	.LVL367:
 2985              	.L158:
 903:libscpi/src/parser.c **** 
 2986              		.loc 1 903 1 view .LVU717
 2987 0036 2800     		movs	r0, r5
 2988 0038 03B0     		add	sp, sp, #12
 2989              		@ sp needed
 2990              	.LVL368:
 903:libscpi/src/parser.c **** 
 2991              		.loc 1 903 1 view .LVU718
 2992 003a 30BD     		pop	{r4, r5, pc}
 2993              	.LVL369:
 2994              	.L160:
 892:libscpi/src/parser.c ****             *value = valint;
 2995              		.loc 1 892 13 is_stmt 1 view .LVU719
 892:libscpi/src/parser.c ****             *value = valint;
 2996              		.loc 1 892 22 is_stmt 0 view .LVU720
 2997 003c 01AA     		add	r2, sp, #4
 2998              	.LVL370:
 892:libscpi/src/parser.c ****             *value = valint;
 2999              		.loc 1 892 22 view .LVU721
 3000 003e FFF7FEFF 		bl	SCPI_ParamToUInt32
 3001              	.LVL371:
 892:libscpi/src/parser.c ****             *value = valint;
ARM GAS  /tmp/ccJs7hvj.s 			page 91


 3002              		.loc 1 892 22 view .LVU722
 3003 0042 0500     		movs	r5, r0
 3004              	.LVL372:
 893:libscpi/src/parser.c ****             break;
 3005              		.loc 1 893 13 is_stmt 1 view .LVU723
 893:libscpi/src/parser.c ****             break;
 3006              		.loc 1 893 20 is_stmt 0 view .LVU724
 3007 0044 0198     		ldr	r0, [sp, #4]
 3008              	.LVL373:
 893:libscpi/src/parser.c ****             break;
 3009              		.loc 1 893 20 view .LVU725
 3010 0046 FFF7FEFF 		bl	__aeabi_ui2f
 3011              	.LVL374:
 3012 004a 2060     		str	r0, [r4]
 894:libscpi/src/parser.c ****         case SCPI_TOKEN_DECIMAL_NUMERIC_PROGRAM_DATA:
 3013              		.loc 1 894 13 is_stmt 1 view .LVU726
 3014 004c F3E7     		b	.L158
 3015              	.LVL375:
 3016              	.L166:
 888:libscpi/src/parser.c ****         case SCPI_TOKEN_HEXNUM:
 3017              		.loc 1 888 5 is_stmt 0 view .LVU727
 3018 004e 0025     		movs	r5, #0
 3019 0050 F1E7     		b	.L158
 3020              	.L168:
 3021 0052 C046     		.align	2
 3022              	.L167:
 3023 0054 CAFEFFFF 		.word	-310
 3024              		.cfi_endproc
 3025              	.LFE35:
 3027              		.global	__aeabi_ul2d
 3028              		.section	.text.SCPI_ParamToDouble,"ax",%progbits
 3029              		.align	1
 3030              		.global	SCPI_ParamToDouble
 3031              		.syntax unified
 3032              		.code	16
 3033              		.thumb_func
 3034              		.fpu softvfp
 3036              	SCPI_ParamToDouble:
 3037              	.LVL376:
 3038              	.LFB36:
 912:libscpi/src/parser.c ****     scpi_bool_t result;
 3039              		.loc 1 912 96 is_stmt 1 view -0
 3040              		.cfi_startproc
 3041              		@ args = 0, pretend = 0, frame = 8
 3042              		@ frame_needed = 0, uses_anonymous_args = 0
 912:libscpi/src/parser.c ****     scpi_bool_t result;
 3043              		.loc 1 912 96 is_stmt 0 view .LVU729
 3044 0000 30B5     		push	{r4, r5, lr}
 3045              	.LCFI47:
 3046              		.cfi_def_cfa_offset 12
 3047              		.cfi_offset 4, -12
 3048              		.cfi_offset 5, -8
 3049              		.cfi_offset 14, -4
 3050 0002 83B0     		sub	sp, sp, #12
 3051              	.LCFI48:
 3052              		.cfi_def_cfa_offset 24
 3053 0004 141E     		subs	r4, r2, #0
ARM GAS  /tmp/ccJs7hvj.s 			page 92


 913:libscpi/src/parser.c ****     uint64_t valint;
 3054              		.loc 1 913 5 is_stmt 1 view .LVU730
 914:libscpi/src/parser.c **** 
 3055              		.loc 1 914 5 view .LVU731
 916:libscpi/src/parser.c ****         SCPI_ErrorPush(context, SCPI_ERROR_SYSTEM_ERROR);
 3056              		.loc 1 916 5 view .LVU732
 916:libscpi/src/parser.c ****         SCPI_ErrorPush(context, SCPI_ERROR_SYSTEM_ERROR);
 3057              		.loc 1 916 8 is_stmt 0 view .LVU733
 3058 0006 0ED0     		beq	.L177
 921:libscpi/src/parser.c ****         case SCPI_TOKEN_HEXNUM:
 3059              		.loc 1 921 5 is_stmt 1 view .LVU734
 921:libscpi/src/parser.c ****         case SCPI_TOKEN_HEXNUM:
 3060              		.loc 1 921 22 is_stmt 0 view .LVU735
 3061 0008 0B78     		ldrb	r3, [r1]
 921:libscpi/src/parser.c ****         case SCPI_TOKEN_HEXNUM:
 3062              		.loc 1 921 5 view .LVU736
 3063 000a 082B     		cmp	r3, #8
 3064 000c 10D9     		bls	.L178
 3065 000e 0A3B     		subs	r3, r3, #10
 3066 0010 DBB2     		uxtb	r3, r3
 3067 0012 012B     		cmp	r3, #1
 3068 0014 1DD8     		bhi	.L179
 930:libscpi/src/parser.c ****             break;
 3069              		.loc 1 930 13 is_stmt 1 view .LVU737
 930:libscpi/src/parser.c ****             break;
 3070              		.loc 1 930 43 is_stmt 0 view .LVU738
 3071 0016 4868     		ldr	r0, [r1, #4]
 3072              	.LVL377:
 930:libscpi/src/parser.c ****             break;
 3073              		.loc 1 930 22 view .LVU739
 3074 0018 1100     		movs	r1, r2
 3075              	.LVL378:
 930:libscpi/src/parser.c ****             break;
 3076              		.loc 1 930 22 view .LVU740
 3077 001a FFF7FEFF 		bl	strToDouble
 3078              	.LVL379:
 930:libscpi/src/parser.c ****             break;
 3079              		.loc 1 930 20 view .LVU741
 3080 001e 451E     		subs	r5, r0, #1
 3081 0020 A841     		sbcs	r0, r0, r5
 3082 0022 C5B2     		uxtb	r5, r0
 3083              	.LVL380:
 931:libscpi/src/parser.c ****         default:
 3084              		.loc 1 931 13 is_stmt 1 view .LVU742
 3085 0024 07E0     		b	.L171
 3086              	.LVL381:
 3087              	.L177:
 917:libscpi/src/parser.c ****         return FALSE;
 3088              		.loc 1 917 9 view .LVU743
 3089 0026 0C49     		ldr	r1, .L180
 3090              	.LVL382:
 917:libscpi/src/parser.c ****         return FALSE;
 3091              		.loc 1 917 9 is_stmt 0 view .LVU744
 3092 0028 FFF7FEFF 		bl	SCPI_ErrorPush
 3093              	.LVL383:
 918:libscpi/src/parser.c ****     }
 3094              		.loc 1 918 9 is_stmt 1 view .LVU745
ARM GAS  /tmp/ccJs7hvj.s 			page 93


 918:libscpi/src/parser.c ****     }
 3095              		.loc 1 918 16 is_stmt 0 view .LVU746
 3096 002c 0025     		movs	r5, #0
 3097 002e 02E0     		b	.L171
 3098              	.LVL384:
 3099              	.L178:
 921:libscpi/src/parser.c ****         case SCPI_TOKEN_HEXNUM:
 3100              		.loc 1 921 5 view .LVU747
 3101 0030 062B     		cmp	r3, #6
 3102 0032 03D2     		bcs	.L173
 3103 0034 0025     		movs	r5, #0
 3104              	.LVL385:
 3105              	.L171:
 936:libscpi/src/parser.c **** 
 3106              		.loc 1 936 1 view .LVU748
 3107 0036 2800     		movs	r0, r5
 3108 0038 03B0     		add	sp, sp, #12
 3109              		@ sp needed
 3110              	.LVL386:
 936:libscpi/src/parser.c **** 
 3111              		.loc 1 936 1 view .LVU749
 3112 003a 30BD     		pop	{r4, r5, pc}
 3113              	.LVL387:
 3114              	.L173:
 925:libscpi/src/parser.c ****             *value = valint;
 3115              		.loc 1 925 13 is_stmt 1 view .LVU750
 925:libscpi/src/parser.c ****             *value = valint;
 3116              		.loc 1 925 22 is_stmt 0 view .LVU751
 3117 003c 6A46     		mov	r2, sp
 3118              	.LVL388:
 925:libscpi/src/parser.c ****             *value = valint;
 3119              		.loc 1 925 22 view .LVU752
 3120 003e FFF7FEFF 		bl	SCPI_ParamToUInt64
 3121              	.LVL389:
 925:libscpi/src/parser.c ****             *value = valint;
 3122              		.loc 1 925 22 view .LVU753
 3123 0042 0500     		movs	r5, r0
 3124              	.LVL390:
 926:libscpi/src/parser.c ****             break;
 3125              		.loc 1 926 13 is_stmt 1 view .LVU754
 926:libscpi/src/parser.c ****             break;
 3126              		.loc 1 926 20 is_stmt 0 view .LVU755
 3127 0044 0098     		ldr	r0, [sp]
 3128 0046 0199     		ldr	r1, [sp, #4]
 3129              	.LVL391:
 926:libscpi/src/parser.c ****             break;
 3130              		.loc 1 926 20 view .LVU756
 3131 0048 FFF7FEFF 		bl	__aeabi_ul2d
 3132              	.LVL392:
 3133 004c 2060     		str	r0, [r4]
 3134 004e 6160     		str	r1, [r4, #4]
 927:libscpi/src/parser.c ****         case SCPI_TOKEN_DECIMAL_NUMERIC_PROGRAM_DATA:
 3135              		.loc 1 927 13 is_stmt 1 view .LVU757
 3136 0050 F1E7     		b	.L171
 3137              	.LVL393:
 3138              	.L179:
 921:libscpi/src/parser.c ****         case SCPI_TOKEN_HEXNUM:
ARM GAS  /tmp/ccJs7hvj.s 			page 94


 3139              		.loc 1 921 5 is_stmt 0 view .LVU758
 3140 0052 0025     		movs	r5, #0
 3141 0054 EFE7     		b	.L171
 3142              	.L181:
 3143 0056 C046     		.align	2
 3144              	.L180:
 3145 0058 CAFEFFFF 		.word	-310
 3146              		.cfi_endproc
 3147              	.LFE36:
 3149              		.section	.text.SCPI_ParamToChoice,"ax",%progbits
 3150              		.align	1
 3151              		.global	SCPI_ParamToChoice
 3152              		.syntax unified
 3153              		.code	16
 3154              		.thumb_func
 3155              		.fpu softvfp
 3157              	SCPI_ParamToChoice:
 3158              	.LVL394:
 3159              	.LFB48:
1227:libscpi/src/parser.c ****     size_t res;
 3160              		.loc 1 1227 132 is_stmt 1 view -0
 3161              		.cfi_startproc
 3162              		@ args = 0, pretend = 0, frame = 0
 3163              		@ frame_needed = 0, uses_anonymous_args = 0
1227:libscpi/src/parser.c ****     size_t res;
 3164              		.loc 1 1227 132 is_stmt 0 view .LVU760
 3165 0000 F0B5     		push	{r4, r5, r6, r7, lr}
 3166              	.LCFI49:
 3167              		.cfi_def_cfa_offset 20
 3168              		.cfi_offset 4, -20
 3169              		.cfi_offset 5, -16
 3170              		.cfi_offset 6, -12
 3171              		.cfi_offset 7, -8
 3172              		.cfi_offset 14, -4
 3173 0002 D646     		mov	lr, r10
 3174 0004 4F46     		mov	r7, r9
 3175 0006 4646     		mov	r6, r8
 3176 0008 C0B5     		push	{r6, r7, lr}
 3177              	.LCFI50:
 3178              		.cfi_def_cfa_offset 32
 3179              		.cfi_offset 8, -32
 3180              		.cfi_offset 9, -28
 3181              		.cfi_offset 10, -24
 3182 000a 82B0     		sub	sp, sp, #8
 3183              	.LCFI51:
 3184              		.cfi_def_cfa_offset 40
 3185 000c 8146     		mov	r9, r0
 3186 000e 0D00     		movs	r5, r1
 3187 0010 9246     		mov	r10, r2
 3188 0012 9846     		mov	r8, r3
1228:libscpi/src/parser.c ****     scpi_bool_t result = FALSE;
 3189              		.loc 1 1228 5 is_stmt 1 view .LVU761
1229:libscpi/src/parser.c **** 
 3190              		.loc 1 1229 5 view .LVU762
 3191              	.LVL395:
1231:libscpi/src/parser.c ****         SCPI_ErrorPush(context, SCPI_ERROR_SYSTEM_ERROR);
 3192              		.loc 1 1231 5 view .LVU763
ARM GAS  /tmp/ccJs7hvj.s 			page 95


1231:libscpi/src/parser.c ****         SCPI_ErrorPush(context, SCPI_ERROR_SYSTEM_ERROR);
 3193              		.loc 1 1231 8 is_stmt 0 view .LVU764
 3194 0014 002A     		cmp	r2, #0
 3195 0016 1AD0     		beq	.L183
1231:libscpi/src/parser.c ****         SCPI_ErrorPush(context, SCPI_ERROR_SYSTEM_ERROR);
 3196              		.loc 1 1231 18 discriminator 1 view .LVU765
 3197 0018 4346     		mov	r3, r8
1231:libscpi/src/parser.c ****         SCPI_ErrorPush(context, SCPI_ERROR_SYSTEM_ERROR);
 3198              		.loc 1 1231 18 discriminator 1 view .LVU766
 3199 001a 002B     		cmp	r3, #0
 3200 001c 17D0     		beq	.L183
1236:libscpi/src/parser.c ****         for (res = 0; options[res].name; ++res) {
 3201              		.loc 1 1236 5 is_stmt 1 view .LVU767
1236:libscpi/src/parser.c ****         for (res = 0; options[res].name; ++res) {
 3202              		.loc 1 1236 18 is_stmt 0 view .LVU768
 3203 001e 0B78     		ldrb	r3, [r1]
 3204              	.LVL396:
1236:libscpi/src/parser.c ****         for (res = 0; options[res].name; ++res) {
 3205              		.loc 1 1236 8 view .LVU769
 3206 0020 092B     		cmp	r3, #9
 3207 0022 25D1     		bne	.L192
1237:libscpi/src/parser.c ****             if (matchPattern(options[res].name, strlen(options[res].name), parameter->ptr, paramete
 3208              		.loc 1 1237 18 view .LVU770
 3209 0024 0026     		movs	r6, #0
 3210              	.LVL397:
 3211              	.L186:
1237:libscpi/src/parser.c ****             if (matchPattern(options[res].name, strlen(options[res].name), parameter->ptr, paramete
 3212              		.loc 1 1237 23 is_stmt 1 discriminator 1 view .LVU771
1237:libscpi/src/parser.c ****             if (matchPattern(options[res].name, strlen(options[res].name), parameter->ptr, paramete
 3213              		.loc 1 1237 30 is_stmt 0 discriminator 1 view .LVU772
 3214 0026 F400     		lsls	r4, r6, #3
 3215 0028 5444     		add	r4, r4, r10
1237:libscpi/src/parser.c ****             if (matchPattern(options[res].name, strlen(options[res].name), parameter->ptr, paramete
 3216              		.loc 1 1237 35 discriminator 1 view .LVU773
 3217 002a 2768     		ldr	r7, [r4]
1237:libscpi/src/parser.c ****             if (matchPattern(options[res].name, strlen(options[res].name), parameter->ptr, paramete
 3218              		.loc 1 1237 9 discriminator 1 view .LVU774
 3219 002c 002F     		cmp	r7, #0
 3220 002e 18D0     		beq	.L193
1238:libscpi/src/parser.c ****                 *value = options[res].tag;
 3221              		.loc 1 1238 13 is_stmt 1 view .LVU775
1238:libscpi/src/parser.c ****                 *value = options[res].tag;
 3222              		.loc 1 1238 17 is_stmt 0 view .LVU776
 3223 0030 3800     		movs	r0, r7
 3224 0032 FFF7FEFF 		bl	strlen
 3225              	.LVL398:
 3226 0036 0100     		movs	r1, r0
 3227 0038 0023     		movs	r3, #0
 3228 003a 0093     		str	r3, [sp]
 3229 003c AB68     		ldr	r3, [r5, #8]
 3230 003e 6A68     		ldr	r2, [r5, #4]
 3231 0040 3800     		movs	r0, r7
 3232 0042 FFF7FEFF 		bl	matchPattern
 3233              	.LVL399:
1238:libscpi/src/parser.c ****                 *value = options[res].tag;
 3234              		.loc 1 1238 16 view .LVU777
 3235 0046 0028     		cmp	r0, #0
ARM GAS  /tmp/ccJs7hvj.s 			page 96


 3236 0048 07D1     		bne	.L194
1237:libscpi/src/parser.c ****             if (matchPattern(options[res].name, strlen(options[res].name), parameter->ptr, paramete
 3237              		.loc 1 1237 42 is_stmt 1 discriminator 2 view .LVU778
 3238 004a 0136     		adds	r6, r6, #1
 3239              	.LVL400:
1237:libscpi/src/parser.c ****             if (matchPattern(options[res].name, strlen(options[res].name), parameter->ptr, paramete
 3240              		.loc 1 1237 42 is_stmt 0 discriminator 2 view .LVU779
 3241 004c EBE7     		b	.L186
 3242              	.LVL401:
 3243              	.L183:
1232:libscpi/src/parser.c ****         return FALSE;
 3244              		.loc 1 1232 9 is_stmt 1 view .LVU780
 3245 004e 0E49     		ldr	r1, .L195
 3246              	.LVL402:
1232:libscpi/src/parser.c ****         return FALSE;
 3247              		.loc 1 1232 9 is_stmt 0 view .LVU781
 3248 0050 4846     		mov	r0, r9
 3249              	.LVL403:
1232:libscpi/src/parser.c ****         return FALSE;
 3250              		.loc 1 1232 9 view .LVU782
 3251 0052 FFF7FEFF 		bl	SCPI_ErrorPush
 3252              	.LVL404:
1233:libscpi/src/parser.c ****     }
 3253              		.loc 1 1233 9 is_stmt 1 view .LVU783
1233:libscpi/src/parser.c ****     }
 3254              		.loc 1 1233 16 is_stmt 0 view .LVU784
 3255 0056 0020     		movs	r0, #0
 3256 0058 0FE0     		b	.L185
 3257              	.LVL405:
 3258              	.L194:
1239:libscpi/src/parser.c ****                 result = TRUE;
 3259              		.loc 1 1239 17 is_stmt 1 view .LVU785
1239:libscpi/src/parser.c ****                 result = TRUE;
 3260              		.loc 1 1239 38 is_stmt 0 view .LVU786
 3261 005a 4346     		mov	r3, r8
 3262 005c 6268     		ldr	r2, [r4, #4]
 3263 005e 1A60     		str	r2, [r3]
1240:libscpi/src/parser.c ****                 break;
 3264              		.loc 1 1240 17 is_stmt 1 view .LVU787
 3265              	.LVL406:
1241:libscpi/src/parser.c ****             }
 3266              		.loc 1 1241 17 view .LVU788
1245:libscpi/src/parser.c ****             SCPI_ErrorPush(context, SCPI_ERROR_ILLEGAL_PARAMETER_VALUE);
 3267              		.loc 1 1245 9 view .LVU789
 3268 0060 0BE0     		b	.L185
 3269              	.LVL407:
 3270              	.L193:
1245:libscpi/src/parser.c ****             SCPI_ErrorPush(context, SCPI_ERROR_ILLEGAL_PARAMETER_VALUE);
 3271              		.loc 1 1245 9 view .LVU790
1246:libscpi/src/parser.c ****         }
 3272              		.loc 1 1246 13 view .LVU791
 3273 0062 E021     		movs	r1, #224
 3274 0064 4942     		rsbs	r1, r1, #0
 3275 0066 4846     		mov	r0, r9
 3276 0068 FFF7FEFF 		bl	SCPI_ErrorPush
 3277              	.LVL408:
1229:libscpi/src/parser.c **** 
ARM GAS  /tmp/ccJs7hvj.s 			page 97


 3278              		.loc 1 1229 17 is_stmt 0 view .LVU792
 3279 006c 0020     		movs	r0, #0
 3280 006e 04E0     		b	.L185
 3281              	.LVL409:
 3282              	.L192:
1249:libscpi/src/parser.c ****     }
 3283              		.loc 1 1249 9 is_stmt 1 view .LVU793
 3284 0070 6821     		movs	r1, #104
 3285              	.LVL410:
1249:libscpi/src/parser.c ****     }
 3286              		.loc 1 1249 9 is_stmt 0 view .LVU794
 3287 0072 4942     		rsbs	r1, r1, #0
 3288 0074 FFF7FEFF 		bl	SCPI_ErrorPush
 3289              	.LVL411:
1229:libscpi/src/parser.c **** 
 3290              		.loc 1 1229 17 view .LVU795
 3291 0078 0020     		movs	r0, #0
 3292              	.LVL412:
 3293              	.L185:
1253:libscpi/src/parser.c **** 
 3294              		.loc 1 1253 1 view .LVU796
 3295 007a 02B0     		add	sp, sp, #8
 3296              		@ sp needed
 3297              	.LVL413:
 3298              	.LVL414:
 3299              	.LVL415:
 3300              	.LVL416:
1253:libscpi/src/parser.c **** 
 3301              		.loc 1 1253 1 view .LVU797
 3302 007c 1CBC     		pop	{r2, r3, r4}
 3303 007e 9046     		mov	r8, r2
 3304 0080 9946     		mov	r9, r3
 3305 0082 A246     		mov	r10, r4
 3306 0084 F0BD     		pop	{r4, r5, r6, r7, pc}
 3307              	.L196:
 3308 0086 C046     		.align	2
 3309              	.L195:
 3310 0088 CAFEFFFF 		.word	-310
 3311              		.cfi_endproc
 3312              	.LFE48:
 3314              		.section	.text.SCPI_ChoiceToName,"ax",%progbits
 3315              		.align	1
 3316              		.global	SCPI_ChoiceToName
 3317              		.syntax unified
 3318              		.code	16
 3319              		.thumb_func
 3320              		.fpu softvfp
 3322              	SCPI_ChoiceToName:
 3323              	.LVL417:
 3324              	.LFB49:
1262:libscpi/src/parser.c ****     int i;
 3325              		.loc 1 1262 99 is_stmt 1 view -0
 3326              		.cfi_startproc
 3327              		@ args = 0, pretend = 0, frame = 0
 3328              		@ frame_needed = 0, uses_anonymous_args = 0
1262:libscpi/src/parser.c ****     int i;
 3329              		.loc 1 1262 99 is_stmt 0 view .LVU799
ARM GAS  /tmp/ccJs7hvj.s 			page 98


 3330 0000 30B5     		push	{r4, r5, lr}
 3331              	.LCFI52:
 3332              		.cfi_def_cfa_offset 12
 3333              		.cfi_offset 4, -12
 3334              		.cfi_offset 5, -8
 3335              		.cfi_offset 14, -4
1263:libscpi/src/parser.c **** 
 3336              		.loc 1 1263 5 is_stmt 1 view .LVU800
1265:libscpi/src/parser.c ****         if (options[i].tag == tag) {
 3337              		.loc 1 1265 5 view .LVU801
 3338              	.LVL418:
1265:libscpi/src/parser.c ****         if (options[i].tag == tag) {
 3339              		.loc 1 1265 12 is_stmt 0 view .LVU802
 3340 0002 0024     		movs	r4, #0
 3341              	.LVL419:
 3342              	.L198:
1265:libscpi/src/parser.c ****         if (options[i].tag == tag) {
 3343              		.loc 1 1265 17 is_stmt 1 discriminator 1 view .LVU803
1265:libscpi/src/parser.c ****         if (options[i].tag == tag) {
 3344              		.loc 1 1265 24 is_stmt 0 discriminator 1 view .LVU804
 3345 0004 E300     		lsls	r3, r4, #3
 3346 0006 C318     		adds	r3, r0, r3
1265:libscpi/src/parser.c ****         if (options[i].tag == tag) {
 3347              		.loc 1 1265 27 discriminator 1 view .LVU805
 3348 0008 1D68     		ldr	r5, [r3]
1265:libscpi/src/parser.c ****         if (options[i].tag == tag) {
 3349              		.loc 1 1265 5 discriminator 1 view .LVU806
 3350 000a 002D     		cmp	r5, #0
 3351 000c 07D0     		beq	.L202
1266:libscpi/src/parser.c ****             *text = options[i].name;
 3352              		.loc 1 1266 9 is_stmt 1 view .LVU807
1266:libscpi/src/parser.c ****             *text = options[i].name;
 3353              		.loc 1 1266 23 is_stmt 0 view .LVU808
 3354 000e 5B68     		ldr	r3, [r3, #4]
1266:libscpi/src/parser.c ****             *text = options[i].name;
 3355              		.loc 1 1266 12 view .LVU809
 3356 0010 8B42     		cmp	r3, r1
 3357 0012 01D0     		beq	.L203
1265:libscpi/src/parser.c ****         if (options[i].tag == tag) {
 3358              		.loc 1 1265 42 is_stmt 1 discriminator 2 view .LVU810
1265:libscpi/src/parser.c ****         if (options[i].tag == tag) {
 3359              		.loc 1 1265 43 is_stmt 0 discriminator 2 view .LVU811
 3360 0014 0134     		adds	r4, r4, #1
 3361              	.LVL420:
1265:libscpi/src/parser.c ****         if (options[i].tag == tag) {
 3362              		.loc 1 1265 43 discriminator 2 view .LVU812
 3363 0016 F5E7     		b	.L198
 3364              	.L203:
1267:libscpi/src/parser.c ****             return TRUE;
 3365              		.loc 1 1267 13 is_stmt 1 view .LVU813
1267:libscpi/src/parser.c ****             return TRUE;
 3366              		.loc 1 1267 19 is_stmt 0 view .LVU814
 3367 0018 1560     		str	r5, [r2]
1268:libscpi/src/parser.c ****         }
 3368              		.loc 1 1268 13 is_stmt 1 view .LVU815
1268:libscpi/src/parser.c ****         }
 3369              		.loc 1 1268 20 is_stmt 0 view .LVU816
ARM GAS  /tmp/ccJs7hvj.s 			page 99


 3370 001a 0120     		movs	r0, #1
 3371              	.LVL421:
1268:libscpi/src/parser.c ****         }
 3372              		.loc 1 1268 20 view .LVU817
 3373 001c 00E0     		b	.L200
 3374              	.LVL422:
 3375              	.L202:
1272:libscpi/src/parser.c **** }
 3376              		.loc 1 1272 12 view .LVU818
 3377 001e 0020     		movs	r0, #0
 3378              	.LVL423:
 3379              	.L200:
1273:libscpi/src/parser.c **** 
 3380              		.loc 1 1273 1 view .LVU819
 3381              		@ sp needed
 3382              	.LVL424:
1273:libscpi/src/parser.c **** 
 3383              		.loc 1 1273 1 view .LVU820
 3384 0020 30BD     		pop	{r4, r5, pc}
 3385              		.cfi_endproc
 3386              	.LFE49:
 3388              		.section	.text.scpiParser_parseProgramData,"ax",%progbits
 3389              		.align	1
 3390              		.global	scpiParser_parseProgramData
 3391              		.hidden	scpiParser_parseProgramData
 3392              		.syntax unified
 3393              		.code	16
 3394              		.thumb_func
 3395              		.fpu softvfp
 3397              	scpiParser_parseProgramData:
 3398              	.LVL425:
 3399              	.LFB52:
1349:libscpi/src/parser.c ****     scpi_token_t tmp;
 3400              		.loc 1 1349 76 is_stmt 1 view -0
 3401              		.cfi_startproc
 3402              		@ args = 0, pretend = 0, frame = 24
 3403              		@ frame_needed = 0, uses_anonymous_args = 0
1349:libscpi/src/parser.c ****     scpi_token_t tmp;
 3404              		.loc 1 1349 76 is_stmt 0 view .LVU822
 3405 0000 F0B5     		push	{r4, r5, r6, r7, lr}
 3406              	.LCFI53:
 3407              		.cfi_def_cfa_offset 20
 3408              		.cfi_offset 4, -20
 3409              		.cfi_offset 5, -16
 3410              		.cfi_offset 6, -12
 3411              		.cfi_offset 7, -8
 3412              		.cfi_offset 14, -4
 3413 0002 87B0     		sub	sp, sp, #28
 3414              	.LCFI54:
 3415              		.cfi_def_cfa_offset 48
 3416 0004 0500     		movs	r5, r0
 3417 0006 0F00     		movs	r7, r1
1350:libscpi/src/parser.c ****     int result = 0;
 3418              		.loc 1 1350 5 is_stmt 1 view .LVU823
1351:libscpi/src/parser.c ****     int wsLen;
 3419              		.loc 1 1351 5 view .LVU824
 3420              	.LVL426:
ARM GAS  /tmp/ccJs7hvj.s 			page 100


1352:libscpi/src/parser.c ****     int suffixLen;
 3421              		.loc 1 1352 5 view .LVU825
1353:libscpi/src/parser.c ****     int realLen = 0;
 3422              		.loc 1 1353 5 view .LVU826
1354:libscpi/src/parser.c ****     realLen += scpiLex_WhiteSpace(state, &tmp);
 3423              		.loc 1 1354 5 view .LVU827
1355:libscpi/src/parser.c **** 
 3424              		.loc 1 1355 5 view .LVU828
1355:libscpi/src/parser.c **** 
 3425              		.loc 1 1355 16 is_stmt 0 view .LVU829
 3426 0008 03A9     		add	r1, sp, #12
 3427              	.LVL427:
1355:libscpi/src/parser.c **** 
 3428              		.loc 1 1355 16 view .LVU830
 3429 000a FFF7FEFF 		bl	scpiLex_WhiteSpace
 3430              	.LVL428:
1355:libscpi/src/parser.c **** 
 3431              		.loc 1 1355 16 view .LVU831
 3432 000e 0600     		movs	r6, r0
 3433              	.LVL429:
1357:libscpi/src/parser.c ****     if (result == 0) result = scpiLex_CharacterProgramData(state, token);
 3434              		.loc 1 1357 5 is_stmt 1 view .LVU832
1357:libscpi/src/parser.c ****     if (result == 0) result = scpiLex_CharacterProgramData(state, token);
 3435              		.loc 1 1357 22 view .LVU833
1357:libscpi/src/parser.c ****     if (result == 0) result = scpiLex_CharacterProgramData(state, token);
 3436              		.loc 1 1357 31 is_stmt 0 view .LVU834
 3437 0010 3900     		movs	r1, r7
 3438 0012 2800     		movs	r0, r5
 3439              	.LVL430:
1357:libscpi/src/parser.c ****     if (result == 0) result = scpiLex_CharacterProgramData(state, token);
 3440              		.loc 1 1357 31 view .LVU835
 3441 0014 FFF7FEFF 		bl	scpiLex_NondecimalNumericData
 3442              	.LVL431:
 3443 0018 041E     		subs	r4, r0, #0
 3444              	.LVL432:
1358:libscpi/src/parser.c ****     if (result == 0) {
 3445              		.loc 1 1358 5 is_stmt 1 view .LVU836
1358:libscpi/src/parser.c ****     if (result == 0) {
 3446              		.loc 1 1358 8 is_stmt 0 view .LVU837
 3447 001a 0FD0     		beq	.L210
 3448              	.L205:
1359:libscpi/src/parser.c ****         result = scpiLex_DecimalNumericProgramData(state, token);
 3449              		.loc 1 1359 5 is_stmt 1 view .LVU838
1359:libscpi/src/parser.c ****         result = scpiLex_DecimalNumericProgramData(state, token);
 3450              		.loc 1 1359 8 is_stmt 0 view .LVU839
 3451 001c 002C     		cmp	r4, #0
 3452 001e 13D0     		beq	.L211
 3453              	.LVL433:
 3454              	.L206:
1372:libscpi/src/parser.c ****     if (result == 0) result = scpiLex_ArbitraryBlockProgramData(state, token);
 3455              		.loc 1 1372 5 is_stmt 1 view .LVU840
1372:libscpi/src/parser.c ****     if (result == 0) result = scpiLex_ArbitraryBlockProgramData(state, token);
 3456              		.loc 1 1372 8 is_stmt 0 view .LVU841
 3457 0020 002C     		cmp	r4, #0
 3458 0022 2BD0     		beq	.L212
 3459              	.L207:
1373:libscpi/src/parser.c ****     if (result == 0) result = scpiLex_ProgramExpression(state, token);
ARM GAS  /tmp/ccJs7hvj.s 			page 101


 3460              		.loc 1 1373 5 is_stmt 1 view .LVU842
1373:libscpi/src/parser.c ****     if (result == 0) result = scpiLex_ProgramExpression(state, token);
 3461              		.loc 1 1373 8 is_stmt 0 view .LVU843
 3462 0024 002C     		cmp	r4, #0
 3463 0026 2FD0     		beq	.L213
 3464              	.L208:
1374:libscpi/src/parser.c **** 
 3465              		.loc 1 1374 5 is_stmt 1 view .LVU844
1374:libscpi/src/parser.c **** 
 3466              		.loc 1 1374 8 is_stmt 0 view .LVU845
 3467 0028 002C     		cmp	r4, #0
 3468 002a 33D0     		beq	.L214
 3469              	.L209:
1376:libscpi/src/parser.c **** 
 3470              		.loc 1 1376 5 is_stmt 1 view .LVU846
1376:libscpi/src/parser.c **** 
 3471              		.loc 1 1376 16 is_stmt 0 view .LVU847
 3472 002c 03A9     		add	r1, sp, #12
 3473 002e 2800     		movs	r0, r5
 3474 0030 FFF7FEFF 		bl	scpiLex_WhiteSpace
 3475              	.LVL434:
1376:libscpi/src/parser.c **** 
 3476              		.loc 1 1376 13 view .LVU848
 3477 0034 3018     		adds	r0, r6, r0
 3478              	.LVL435:
1378:libscpi/src/parser.c **** }
 3479              		.loc 1 1378 5 is_stmt 1 view .LVU849
1378:libscpi/src/parser.c **** }
 3480              		.loc 1 1378 19 is_stmt 0 view .LVU850
 3481 0036 2018     		adds	r0, r4, r0
 3482              	.LVL436:
1379:libscpi/src/parser.c **** 
 3483              		.loc 1 1379 1 view .LVU851
 3484 0038 07B0     		add	sp, sp, #28
 3485              		@ sp needed
 3486              	.LVL437:
 3487              	.LVL438:
 3488              	.LVL439:
1379:libscpi/src/parser.c **** 
 3489              		.loc 1 1379 1 view .LVU852
 3490 003a F0BD     		pop	{r4, r5, r6, r7, pc}
 3491              	.LVL440:
 3492              	.L210:
1358:libscpi/src/parser.c ****     if (result == 0) {
 3493              		.loc 1 1358 22 is_stmt 1 discriminator 1 view .LVU853
1358:libscpi/src/parser.c ****     if (result == 0) {
 3494              		.loc 1 1358 31 is_stmt 0 discriminator 1 view .LVU854
 3495 003c 3900     		movs	r1, r7
 3496 003e 2800     		movs	r0, r5
 3497              	.LVL441:
1358:libscpi/src/parser.c ****     if (result == 0) {
 3498              		.loc 1 1358 31 discriminator 1 view .LVU855
 3499 0040 FFF7FEFF 		bl	scpiLex_CharacterProgramData
 3500              	.LVL442:
 3501 0044 0400     		movs	r4, r0
 3502              	.LVL443:
1358:libscpi/src/parser.c ****     if (result == 0) {
ARM GAS  /tmp/ccJs7hvj.s 			page 102


 3503              		.loc 1 1358 31 discriminator 1 view .LVU856
 3504 0046 E9E7     		b	.L205
 3505              	.L211:
1360:libscpi/src/parser.c ****         if (result != 0) {
 3506              		.loc 1 1360 9 is_stmt 1 view .LVU857
1360:libscpi/src/parser.c ****         if (result != 0) {
 3507              		.loc 1 1360 18 is_stmt 0 view .LVU858
 3508 0048 3900     		movs	r1, r7
 3509 004a 2800     		movs	r0, r5
 3510              	.LVL444:
1360:libscpi/src/parser.c ****         if (result != 0) {
 3511              		.loc 1 1360 18 view .LVU859
 3512 004c FFF7FEFF 		bl	scpiLex_DecimalNumericProgramData
 3513              	.LVL445:
 3514 0050 041E     		subs	r4, r0, #0
 3515              	.LVL446:
1361:libscpi/src/parser.c ****             wsLen = scpiLex_WhiteSpace(state, &tmp);
 3516              		.loc 1 1361 9 is_stmt 1 view .LVU860
1361:libscpi/src/parser.c ****             wsLen = scpiLex_WhiteSpace(state, &tmp);
 3517              		.loc 1 1361 12 is_stmt 0 view .LVU861
 3518 0052 E5D0     		beq	.L206
1362:libscpi/src/parser.c ****             suffixLen = scpiLex_SuffixProgramData(state, &tmp);
 3519              		.loc 1 1362 13 is_stmt 1 view .LVU862
1362:libscpi/src/parser.c ****             suffixLen = scpiLex_SuffixProgramData(state, &tmp);
 3520              		.loc 1 1362 21 is_stmt 0 view .LVU863
 3521 0054 03A9     		add	r1, sp, #12
 3522 0056 2800     		movs	r0, r5
 3523              	.LVL447:
1362:libscpi/src/parser.c ****             suffixLen = scpiLex_SuffixProgramData(state, &tmp);
 3524              		.loc 1 1362 21 view .LVU864
 3525 0058 FFF7FEFF 		bl	scpiLex_WhiteSpace
 3526              	.LVL448:
 3527 005c 0190     		str	r0, [sp, #4]
 3528              	.LVL449:
1363:libscpi/src/parser.c ****             if (suffixLen > 0) {
 3529              		.loc 1 1363 13 is_stmt 1 view .LVU865
1363:libscpi/src/parser.c ****             if (suffixLen > 0) {
 3530              		.loc 1 1363 25 is_stmt 0 view .LVU866
 3531 005e 03A9     		add	r1, sp, #12
 3532 0060 2800     		movs	r0, r5
 3533              	.LVL450:
1363:libscpi/src/parser.c ****             if (suffixLen > 0) {
 3534              		.loc 1 1363 25 view .LVU867
 3535 0062 FFF7FEFF 		bl	scpiLex_SuffixProgramData
 3536              	.LVL451:
1364:libscpi/src/parser.c ****                 token->len += wsLen + suffixLen;
 3537              		.loc 1 1364 13 is_stmt 1 view .LVU868
1364:libscpi/src/parser.c ****                 token->len += wsLen + suffixLen;
 3538              		.loc 1 1364 16 is_stmt 0 view .LVU869
 3539 0066 0028     		cmp	r0, #0
 3540 0068 DADD     		ble	.L206
1365:libscpi/src/parser.c ****                 token->type = SCPI_TOKEN_DECIMAL_NUMERIC_PROGRAM_DATA_WITH_SUFFIX;
 3541              		.loc 1 1365 17 is_stmt 1 view .LVU870
1365:libscpi/src/parser.c ****                 token->type = SCPI_TOKEN_DECIMAL_NUMERIC_PROGRAM_DATA_WITH_SUFFIX;
 3542              		.loc 1 1365 37 is_stmt 0 view .LVU871
 3543 006a 019B     		ldr	r3, [sp, #4]
 3544 006c 9C46     		mov	ip, r3
ARM GAS  /tmp/ccJs7hvj.s 			page 103


 3545 006e 6044     		add	r0, r0, ip
 3546              	.LVL452:
1365:libscpi/src/parser.c ****                 token->type = SCPI_TOKEN_DECIMAL_NUMERIC_PROGRAM_DATA_WITH_SUFFIX;
 3547              		.loc 1 1365 28 view .LVU872
 3548 0070 BB68     		ldr	r3, [r7, #8]
 3549 0072 C418     		adds	r4, r0, r3
 3550              	.LVL453:
1365:libscpi/src/parser.c ****                 token->type = SCPI_TOKEN_DECIMAL_NUMERIC_PROGRAM_DATA_WITH_SUFFIX;
 3551              		.loc 1 1365 28 view .LVU873
 3552 0074 BC60     		str	r4, [r7, #8]
1366:libscpi/src/parser.c ****                 result = token->len;
 3553              		.loc 1 1366 17 is_stmt 1 view .LVU874
1366:libscpi/src/parser.c ****                 result = token->len;
 3554              		.loc 1 1366 29 is_stmt 0 view .LVU875
 3555 0076 0B23     		movs	r3, #11
 3556 0078 3B70     		strb	r3, [r7]
1367:libscpi/src/parser.c ****             }
 3557              		.loc 1 1367 17 is_stmt 1 view .LVU876
 3558              	.LVL454:
1367:libscpi/src/parser.c ****             }
 3559              		.loc 1 1367 17 is_stmt 0 view .LVU877
 3560 007a D1E7     		b	.L206
 3561              	.LVL455:
 3562              	.L212:
1372:libscpi/src/parser.c ****     if (result == 0) result = scpiLex_ArbitraryBlockProgramData(state, token);
 3563              		.loc 1 1372 22 is_stmt 1 discriminator 1 view .LVU878
1372:libscpi/src/parser.c ****     if (result == 0) result = scpiLex_ArbitraryBlockProgramData(state, token);
 3564              		.loc 1 1372 31 is_stmt 0 discriminator 1 view .LVU879
 3565 007c 3900     		movs	r1, r7
 3566 007e 2800     		movs	r0, r5
 3567 0080 FFF7FEFF 		bl	scpiLex_StringProgramData
 3568              	.LVL456:
 3569 0084 0400     		movs	r4, r0
 3570              	.LVL457:
1372:libscpi/src/parser.c ****     if (result == 0) result = scpiLex_ArbitraryBlockProgramData(state, token);
 3571              		.loc 1 1372 31 discriminator 1 view .LVU880
 3572 0086 CDE7     		b	.L207
 3573              	.LVL458:
 3574              	.L213:
1373:libscpi/src/parser.c ****     if (result == 0) result = scpiLex_ProgramExpression(state, token);
 3575              		.loc 1 1373 22 is_stmt 1 discriminator 1 view .LVU881
1373:libscpi/src/parser.c ****     if (result == 0) result = scpiLex_ProgramExpression(state, token);
 3576              		.loc 1 1373 31 is_stmt 0 discriminator 1 view .LVU882
 3577 0088 3900     		movs	r1, r7
 3578 008a 2800     		movs	r0, r5
 3579 008c FFF7FEFF 		bl	scpiLex_ArbitraryBlockProgramData
 3580              	.LVL459:
 3581 0090 0400     		movs	r4, r0
 3582              	.LVL460:
1373:libscpi/src/parser.c ****     if (result == 0) result = scpiLex_ProgramExpression(state, token);
 3583              		.loc 1 1373 31 discriminator 1 view .LVU883
 3584 0092 C9E7     		b	.L208
 3585              	.LVL461:
 3586              	.L214:
1374:libscpi/src/parser.c **** 
 3587              		.loc 1 1374 22 is_stmt 1 discriminator 1 view .LVU884
1374:libscpi/src/parser.c **** 
ARM GAS  /tmp/ccJs7hvj.s 			page 104


 3588              		.loc 1 1374 31 is_stmt 0 discriminator 1 view .LVU885
 3589 0094 3900     		movs	r1, r7
 3590 0096 2800     		movs	r0, r5
 3591 0098 FFF7FEFF 		bl	scpiLex_ProgramExpression
 3592              	.LVL462:
 3593 009c 0400     		movs	r4, r0
 3594              	.LVL463:
1374:libscpi/src/parser.c **** 
 3595              		.loc 1 1374 31 discriminator 1 view .LVU886
 3596 009e C5E7     		b	.L209
 3597              		.cfi_endproc
 3598              	.LFE52:
 3600              		.section	.text.SCPI_Parameter,"ax",%progbits
 3601              		.align	1
 3602              		.global	SCPI_Parameter
 3603              		.syntax unified
 3604              		.code	16
 3605              		.thumb_func
 3606              		.fpu softvfp
 3608              	SCPI_Parameter:
 3609              	.LVL464:
 3610              	.LFB27:
 688:libscpi/src/parser.c ****     lex_state_t * state;
 3611              		.loc 1 688 99 is_stmt 1 view -0
 3612              		.cfi_startproc
 3613              		@ args = 0, pretend = 0, frame = 0
 3614              		@ frame_needed = 0, uses_anonymous_args = 0
 688:libscpi/src/parser.c ****     lex_state_t * state;
 3615              		.loc 1 688 99 is_stmt 0 view .LVU888
 3616 0000 F8B5     		push	{r3, r4, r5, r6, r7, lr}
 3617              	.LCFI55:
 3618              		.cfi_def_cfa_offset 24
 3619              		.cfi_offset 3, -24
 3620              		.cfi_offset 4, -20
 3621              		.cfi_offset 5, -16
 3622              		.cfi_offset 6, -12
 3623              		.cfi_offset 7, -8
 3624              		.cfi_offset 14, -4
 3625 0002 0400     		movs	r4, r0
 3626 0004 0D00     		movs	r5, r1
 3627 0006 1600     		movs	r6, r2
 689:libscpi/src/parser.c **** 
 3628              		.loc 1 689 5 is_stmt 1 view .LVU889
 691:libscpi/src/parser.c ****         SCPI_ErrorPush(context, SCPI_ERROR_SYSTEM_ERROR);
 3629              		.loc 1 691 5 view .LVU890
 691:libscpi/src/parser.c ****         SCPI_ErrorPush(context, SCPI_ERROR_SYSTEM_ERROR);
 3630              		.loc 1 691 8 is_stmt 0 view .LVU891
 3631 0008 0029     		cmp	r1, #0
 3632 000a 2DD0     		beq	.L226
 696:libscpi/src/parser.c **** 
 3633              		.loc 1 696 5 is_stmt 1 view .LVU892
 3634 000c 0021     		movs	r1, #0
 3635              	.LVL465:
 696:libscpi/src/parser.c **** 
 3636              		.loc 1 696 5 is_stmt 0 view .LVU893
 3637 000e 2800     		movs	r0, r5
 3638              	.LVL466:
ARM GAS  /tmp/ccJs7hvj.s 			page 105


 696:libscpi/src/parser.c **** 
 3639              		.loc 1 696 5 view .LVU894
 3640 0010 FFF7FEFF 		bl	invalidateToken
 3641              	.LVL467:
 698:libscpi/src/parser.c **** 
 3642              		.loc 1 698 5 is_stmt 1 view .LVU895
 698:libscpi/src/parser.c **** 
 3643              		.loc 1 698 11 is_stmt 0 view .LVU896
 3644 0014 2700     		movs	r7, r4
 3645 0016 1437     		adds	r7, r7, #20
 3646              	.LVL468:
 700:libscpi/src/parser.c ****         if (mandatory) {
 3647              		.loc 1 700 5 is_stmt 1 view .LVU897
 700:libscpi/src/parser.c ****         if (mandatory) {
 3648              		.loc 1 700 38 is_stmt 0 view .LVU898
 3649 0018 6369     		ldr	r3, [r4, #20]
 3650 001a E269     		ldr	r2, [r4, #28]
 3651 001c 9446     		mov	ip, r2
 3652 001e 6344     		add	r3, r3, ip
 700:libscpi/src/parser.c ****         if (mandatory) {
 3653              		.loc 1 700 8 view .LVU899
 3654 0020 A269     		ldr	r2, [r4, #24]
 3655 0022 9A42     		cmp	r2, r3
 3656 0024 25D2     		bcs	.L227
 708:libscpi/src/parser.c ****         scpiLex_Comma(state, parameter);
 3657              		.loc 1 708 5 is_stmt 1 view .LVU900
 708:libscpi/src/parser.c ****         scpiLex_Comma(state, parameter);
 3658              		.loc 1 708 8 is_stmt 0 view .LVU901
 3659 0026 636B     		ldr	r3, [r4, #52]
 3660 0028 002B     		cmp	r3, #0
 3661 002a 06D0     		beq	.L221
 709:libscpi/src/parser.c ****         if (parameter->type != SCPI_TOKEN_COMMA) {
 3662              		.loc 1 709 9 is_stmt 1 view .LVU902
 3663 002c 2900     		movs	r1, r5
 3664 002e 3800     		movs	r0, r7
 3665 0030 FFF7FEFF 		bl	scpiLex_Comma
 3666              	.LVL469:
 710:libscpi/src/parser.c ****             invalidateToken(parameter, NULL);
 3667              		.loc 1 710 9 view .LVU903
 710:libscpi/src/parser.c ****             invalidateToken(parameter, NULL);
 3668              		.loc 1 710 22 is_stmt 0 view .LVU904
 3669 0034 2B78     		ldrb	r3, [r5]
 710:libscpi/src/parser.c ****             invalidateToken(parameter, NULL);
 3670              		.loc 1 710 12 view .LVU905
 3671 0036 002B     		cmp	r3, #0
 3672 0038 27D1     		bne	.L228
 3673              	.L221:
 717:libscpi/src/parser.c **** 
 3674              		.loc 1 717 5 is_stmt 1 view .LVU906
 717:libscpi/src/parser.c **** 
 3675              		.loc 1 717 25 is_stmt 0 view .LVU907
 3676 003a 636B     		ldr	r3, [r4, #52]
 3677 003c 0133     		adds	r3, r3, #1
 3678 003e 6363     		str	r3, [r4, #52]
 719:libscpi/src/parser.c **** 
 3679              		.loc 1 719 5 is_stmt 1 view .LVU908
 3680 0040 2900     		movs	r1, r5
ARM GAS  /tmp/ccJs7hvj.s 			page 106


 3681 0042 3800     		movs	r0, r7
 3682 0044 FFF7FEFF 		bl	scpiParser_parseProgramData
 3683              	.LVL470:
 721:libscpi/src/parser.c ****         case SCPI_TOKEN_HEXNUM:
 3684              		.loc 1 721 5 view .LVU909
 721:libscpi/src/parser.c ****         case SCPI_TOKEN_HEXNUM:
 3685              		.loc 1 721 22 is_stmt 0 view .LVU910
 3686 0048 2B78     		ldrb	r3, [r5]
 721:libscpi/src/parser.c ****         case SCPI_TOKEN_HEXNUM:
 3687              		.loc 1 721 5 view .LVU911
 3688 004a 0B2B     		cmp	r3, #11
 3689 004c 28D8     		bhi	.L222
 3690 004e 062B     		cmp	r3, #6
 3691 0050 2CD2     		bcs	.L229
 3692              	.L223:
 734:libscpi/src/parser.c ****             SCPI_ErrorPush(context, SCPI_ERROR_INVALID_STRING_DATA);
 3693              		.loc 1 734 13 is_stmt 1 view .LVU912
 3694 0052 0021     		movs	r1, #0
 3695 0054 2800     		movs	r0, r5
 3696 0056 FFF7FEFF 		bl	invalidateToken
 3697              	.LVL471:
 735:libscpi/src/parser.c ****             return FALSE;
 3698              		.loc 1 735 13 view .LVU913
 3699 005a 9721     		movs	r1, #151
 3700 005c 4942     		rsbs	r1, r1, #0
 3701 005e 2000     		movs	r0, r4
 3702 0060 FFF7FEFF 		bl	SCPI_ErrorPush
 3703              	.LVL472:
 736:libscpi/src/parser.c ****     }
 3704              		.loc 1 736 13 view .LVU914
 736:libscpi/src/parser.c ****     }
 3705              		.loc 1 736 20 is_stmt 0 view .LVU915
 3706 0064 0020     		movs	r0, #0
 3707 0066 20E0     		b	.L217
 3708              	.LVL473:
 3709              	.L226:
 692:libscpi/src/parser.c ****         return FALSE;
 3710              		.loc 1 692 9 is_stmt 1 view .LVU916
 3711 0068 1149     		ldr	r1, .L231
 3712              	.LVL474:
 692:libscpi/src/parser.c ****         return FALSE;
 3713              		.loc 1 692 9 is_stmt 0 view .LVU917
 3714 006a FFF7FEFF 		bl	SCPI_ErrorPush
 3715              	.LVL475:
 693:libscpi/src/parser.c ****     }
 3716              		.loc 1 693 9 is_stmt 1 view .LVU918
 693:libscpi/src/parser.c ****     }
 3717              		.loc 1 693 16 is_stmt 0 view .LVU919
 3718 006e 0020     		movs	r0, #0
 3719 0070 1BE0     		b	.L217
 3720              	.LVL476:
 3721              	.L227:
 701:libscpi/src/parser.c ****             SCPI_ErrorPush(context, SCPI_ERROR_MISSING_PARAMETER);
 3722              		.loc 1 701 9 is_stmt 1 view .LVU920
 701:libscpi/src/parser.c ****             SCPI_ErrorPush(context, SCPI_ERROR_MISSING_PARAMETER);
 3723              		.loc 1 701 12 is_stmt 0 view .LVU921
 3724 0072 002E     		cmp	r6, #0
ARM GAS  /tmp/ccJs7hvj.s 			page 107


 3725 0074 03D1     		bne	.L230
 704:libscpi/src/parser.c ****         }
 3726              		.loc 1 704 13 is_stmt 1 view .LVU922
 704:libscpi/src/parser.c ****         }
 3727              		.loc 1 704 29 is_stmt 0 view .LVU923
 3728 0076 0923     		movs	r3, #9
 3729 0078 2B70     		strb	r3, [r5]
 3730              	.L220:
 706:libscpi/src/parser.c ****     }
 3731              		.loc 1 706 9 is_stmt 1 view .LVU924
 706:libscpi/src/parser.c ****     }
 3732              		.loc 1 706 16 is_stmt 0 view .LVU925
 3733 007a 0020     		movs	r0, #0
 3734 007c 15E0     		b	.L217
 3735              	.L230:
 702:libscpi/src/parser.c ****         } else {
 3736              		.loc 1 702 13 is_stmt 1 view .LVU926
 3737 007e 6D21     		movs	r1, #109
 3738 0080 4942     		rsbs	r1, r1, #0
 3739 0082 2000     		movs	r0, r4
 3740 0084 FFF7FEFF 		bl	SCPI_ErrorPush
 3741              	.LVL477:
 3742 0088 F7E7     		b	.L220
 3743              	.L228:
 711:libscpi/src/parser.c ****             SCPI_ErrorPush(context, SCPI_ERROR_INVALID_SEPARATOR);
 3744              		.loc 1 711 13 view .LVU927
 3745 008a 0021     		movs	r1, #0
 3746 008c 2800     		movs	r0, r5
 3747 008e FFF7FEFF 		bl	invalidateToken
 3748              	.LVL478:
 712:libscpi/src/parser.c ****             return FALSE;
 3749              		.loc 1 712 13 view .LVU928
 3750 0092 6721     		movs	r1, #103
 3751 0094 4942     		rsbs	r1, r1, #0
 3752 0096 2000     		movs	r0, r4
 3753 0098 FFF7FEFF 		bl	SCPI_ErrorPush
 3754              	.LVL479:
 713:libscpi/src/parser.c ****         }
 3755              		.loc 1 713 13 view .LVU929
 713:libscpi/src/parser.c ****         }
 3756              		.loc 1 713 20 is_stmt 0 view .LVU930
 3757 009c 0020     		movs	r0, #0
 3758 009e 04E0     		b	.L217
 3759              	.L222:
 721:libscpi/src/parser.c ****         case SCPI_TOKEN_HEXNUM:
 3760              		.loc 1 721 5 view .LVU931
 3761 00a0 0D3B     		subs	r3, r3, #13
 3762 00a2 DBB2     		uxtb	r3, r3
 3763 00a4 032B     		cmp	r3, #3
 3764 00a6 D4D8     		bhi	.L223
 3765 00a8 0120     		movs	r0, #1
 3766              	.LVL480:
 3767              	.L217:
 738:libscpi/src/parser.c **** 
 3768              		.loc 1 738 1 view .LVU932
 3769              		@ sp needed
 3770              	.LVL481:
ARM GAS  /tmp/ccJs7hvj.s 			page 108


 3771              	.LVL482:
 738:libscpi/src/parser.c **** 
 3772              		.loc 1 738 1 view .LVU933
 3773 00aa F8BD     		pop	{r3, r4, r5, r6, r7, pc}
 3774              	.LVL483:
 3775              	.L229:
 721:libscpi/src/parser.c ****         case SCPI_TOKEN_HEXNUM:
 3776              		.loc 1 721 5 view .LVU934
 3777 00ac 0120     		movs	r0, #1
 3778 00ae FCE7     		b	.L217
 3779              	.L232:
 3780              		.align	2
 3781              	.L231:
 3782 00b0 CAFEFFFF 		.word	-310
 3783              		.cfi_endproc
 3784              	.LFE27:
 3786              		.section	.text.SCPI_ParamFloat,"ax",%progbits
 3787              		.align	1
 3788              		.global	SCPI_ParamFloat
 3789              		.syntax unified
 3790              		.code	16
 3791              		.thumb_func
 3792              		.fpu softvfp
 3794              	SCPI_ParamFloat:
 3795              	.LVL484:
 3796              	.LFB37:
 945:libscpi/src/parser.c ****     scpi_bool_t result;
 3797              		.loc 1 945 85 is_stmt 1 view -0
 3798              		.cfi_startproc
 3799              		@ args = 0, pretend = 0, frame = 16
 3800              		@ frame_needed = 0, uses_anonymous_args = 0
 945:libscpi/src/parser.c ****     scpi_bool_t result;
 3801              		.loc 1 945 85 is_stmt 0 view .LVU936
 3802 0000 F0B5     		push	{r4, r5, r6, r7, lr}
 3803              	.LCFI56:
 3804              		.cfi_def_cfa_offset 20
 3805              		.cfi_offset 4, -20
 3806              		.cfi_offset 5, -16
 3807              		.cfi_offset 6, -12
 3808              		.cfi_offset 7, -8
 3809              		.cfi_offset 14, -4
 3810 0002 85B0     		sub	sp, sp, #20
 3811              	.LCFI57:
 3812              		.cfi_def_cfa_offset 40
 3813 0004 0500     		movs	r5, r0
 3814 0006 0F1E     		subs	r7, r1, #0
 946:libscpi/src/parser.c ****     scpi_parameter_t param;
 3815              		.loc 1 946 5 is_stmt 1 view .LVU937
 947:libscpi/src/parser.c **** 
 3816              		.loc 1 947 5 view .LVU938
 949:libscpi/src/parser.c ****         SCPI_ErrorPush(context, SCPI_ERROR_SYSTEM_ERROR);
 3817              		.loc 1 949 5 view .LVU939
 949:libscpi/src/parser.c ****         SCPI_ErrorPush(context, SCPI_ERROR_SYSTEM_ERROR);
 3818              		.loc 1 949 8 is_stmt 0 view .LVU940
 3819 0008 17D0     		beq	.L238
 954:libscpi/src/parser.c ****     if (result) {
 3820              		.loc 1 954 5 is_stmt 1 view .LVU941
ARM GAS  /tmp/ccJs7hvj.s 			page 109


 954:libscpi/src/parser.c ****     if (result) {
 3821              		.loc 1 954 14 is_stmt 0 view .LVU942
 3822 000a 01A9     		add	r1, sp, #4
 3823              	.LVL485:
 954:libscpi/src/parser.c ****     if (result) {
 3824              		.loc 1 954 14 view .LVU943
 3825 000c FFF7FEFF 		bl	SCPI_Parameter
 3826              	.LVL486:
 954:libscpi/src/parser.c ****     if (result) {
 3827              		.loc 1 954 14 view .LVU944
 3828 0010 041E     		subs	r4, r0, #0
 3829              	.LVL487:
 955:libscpi/src/parser.c ****         if (SCPI_ParamIsNumber(&param, FALSE)) {
 3830              		.loc 1 955 5 is_stmt 1 view .LVU945
 955:libscpi/src/parser.c ****         if (SCPI_ParamIsNumber(&param, FALSE)) {
 3831              		.loc 1 955 8 is_stmt 0 view .LVU946
 3832 0012 16D0     		beq	.L235
 956:libscpi/src/parser.c ****             SCPI_ParamToFloat(context, &param, value);
 3833              		.loc 1 956 9 is_stmt 1 view .LVU947
 956:libscpi/src/parser.c ****             SCPI_ParamToFloat(context, &param, value);
 3834              		.loc 1 956 13 is_stmt 0 view .LVU948
 3835 0014 0021     		movs	r1, #0
 3836 0016 01A8     		add	r0, sp, #4
 3837              	.LVL488:
 956:libscpi/src/parser.c ****             SCPI_ParamToFloat(context, &param, value);
 3838              		.loc 1 956 13 view .LVU949
 3839 0018 FFF7FEFF 		bl	SCPI_ParamIsNumber
 3840              	.LVL489:
 3841 001c 061E     		subs	r6, r0, #0
 956:libscpi/src/parser.c ****             SCPI_ParamToFloat(context, &param, value);
 3842              		.loc 1 956 12 view .LVU950
 3843 001e 13D1     		bne	.L239
 958:libscpi/src/parser.c ****             SCPI_ErrorPush(context, SCPI_ERROR_SUFFIX_NOT_ALLOWED);
 3844              		.loc 1 958 16 is_stmt 1 view .LVU951
 958:libscpi/src/parser.c ****             SCPI_ErrorPush(context, SCPI_ERROR_SUFFIX_NOT_ALLOWED);
 3845              		.loc 1 958 20 is_stmt 0 view .LVU952
 3846 0020 0121     		movs	r1, #1
 3847 0022 01A8     		add	r0, sp, #4
 3848 0024 FFF7FEFF 		bl	SCPI_ParamIsNumber
 3849              	.LVL490:
 3850 0028 041E     		subs	r4, r0, #0
 3851              	.LVL491:
 958:libscpi/src/parser.c ****             SCPI_ErrorPush(context, SCPI_ERROR_SUFFIX_NOT_ALLOWED);
 3852              		.loc 1 958 19 view .LVU953
 3853 002a 13D0     		beq	.L237
 959:libscpi/src/parser.c ****             result = FALSE;
 3854              		.loc 1 959 13 is_stmt 1 view .LVU954
 3855 002c 8A21     		movs	r1, #138
 3856 002e 4942     		rsbs	r1, r1, #0
 3857 0030 2800     		movs	r0, r5
 3858 0032 FFF7FEFF 		bl	SCPI_ErrorPush
 3859              	.LVL492:
 960:libscpi/src/parser.c ****         } else {
 3860              		.loc 1 960 13 view .LVU955
 960:libscpi/src/parser.c ****         } else {
 3861              		.loc 1 960 20 is_stmt 0 view .LVU956
 3862 0036 3400     		movs	r4, r6
ARM GAS  /tmp/ccJs7hvj.s 			page 110


 3863 0038 03E0     		b	.L235
 3864              	.LVL493:
 3865              	.L238:
 950:libscpi/src/parser.c ****         return FALSE;
 3866              		.loc 1 950 9 is_stmt 1 view .LVU957
 3867 003a 0949     		ldr	r1, .L240
 3868              	.LVL494:
 950:libscpi/src/parser.c ****         return FALSE;
 3869              		.loc 1 950 9 is_stmt 0 view .LVU958
 3870 003c FFF7FEFF 		bl	SCPI_ErrorPush
 3871              	.LVL495:
 951:libscpi/src/parser.c ****     }
 3872              		.loc 1 951 9 is_stmt 1 view .LVU959
 951:libscpi/src/parser.c ****     }
 3873              		.loc 1 951 16 is_stmt 0 view .LVU960
 3874 0040 0024     		movs	r4, #0
 3875              	.L235:
 967:libscpi/src/parser.c **** 
 3876              		.loc 1 967 1 view .LVU961
 3877 0042 2000     		movs	r0, r4
 3878 0044 05B0     		add	sp, sp, #20
 3879              		@ sp needed
 3880              	.LVL496:
 3881              	.LVL497:
 967:libscpi/src/parser.c **** 
 3882              		.loc 1 967 1 view .LVU962
 3883 0046 F0BD     		pop	{r4, r5, r6, r7, pc}
 3884              	.LVL498:
 3885              	.L239:
 957:libscpi/src/parser.c ****         } else if (SCPI_ParamIsNumber(&param, TRUE)) {
 3886              		.loc 1 957 13 is_stmt 1 view .LVU963
 3887 0048 3A00     		movs	r2, r7
 3888 004a 01A9     		add	r1, sp, #4
 3889 004c 2800     		movs	r0, r5
 3890 004e FFF7FEFF 		bl	SCPI_ParamToFloat
 3891              	.LVL499:
 3892 0052 F6E7     		b	.L235
 3893              	.LVL500:
 3894              	.L237:
 962:libscpi/src/parser.c ****             result = FALSE;
 3895              		.loc 1 962 13 view .LVU964
 3896 0054 6821     		movs	r1, #104
 3897 0056 4942     		rsbs	r1, r1, #0
 3898 0058 2800     		movs	r0, r5
 3899 005a FFF7FEFF 		bl	SCPI_ErrorPush
 3900              	.LVL501:
 963:libscpi/src/parser.c ****         }
 3901              		.loc 1 963 13 view .LVU965
 963:libscpi/src/parser.c ****         }
 3902              		.loc 1 963 13 is_stmt 0 view .LVU966
 3903 005e F0E7     		b	.L235
 3904              	.L241:
 3905              		.align	2
 3906              	.L240:
 3907 0060 CAFEFFFF 		.word	-310
 3908              		.cfi_endproc
 3909              	.LFE37:
ARM GAS  /tmp/ccJs7hvj.s 			page 111


 3911              		.section	.text.SCPI_ParamDouble,"ax",%progbits
 3912              		.align	1
 3913              		.global	SCPI_ParamDouble
 3914              		.syntax unified
 3915              		.code	16
 3916              		.thumb_func
 3917              		.fpu softvfp
 3919              	SCPI_ParamDouble:
 3920              	.LVL502:
 3921              	.LFB38:
 976:libscpi/src/parser.c ****     scpi_bool_t result;
 3922              		.loc 1 976 87 is_stmt 1 view -0
 3923              		.cfi_startproc
 3924              		@ args = 0, pretend = 0, frame = 16
 3925              		@ frame_needed = 0, uses_anonymous_args = 0
 976:libscpi/src/parser.c ****     scpi_bool_t result;
 3926              		.loc 1 976 87 is_stmt 0 view .LVU968
 3927 0000 F0B5     		push	{r4, r5, r6, r7, lr}
 3928              	.LCFI58:
 3929              		.cfi_def_cfa_offset 20
 3930              		.cfi_offset 4, -20
 3931              		.cfi_offset 5, -16
 3932              		.cfi_offset 6, -12
 3933              		.cfi_offset 7, -8
 3934              		.cfi_offset 14, -4
 3935 0002 85B0     		sub	sp, sp, #20
 3936              	.LCFI59:
 3937              		.cfi_def_cfa_offset 40
 3938 0004 0500     		movs	r5, r0
 3939 0006 0F1E     		subs	r7, r1, #0
 977:libscpi/src/parser.c ****     scpi_parameter_t param;
 3940              		.loc 1 977 5 is_stmt 1 view .LVU969
 978:libscpi/src/parser.c **** 
 3941              		.loc 1 978 5 view .LVU970
 980:libscpi/src/parser.c ****         SCPI_ErrorPush(context, SCPI_ERROR_SYSTEM_ERROR);
 3942              		.loc 1 980 5 view .LVU971
 980:libscpi/src/parser.c ****         SCPI_ErrorPush(context, SCPI_ERROR_SYSTEM_ERROR);
 3943              		.loc 1 980 8 is_stmt 0 view .LVU972
 3944 0008 17D0     		beq	.L247
 985:libscpi/src/parser.c ****     if (result) {
 3945              		.loc 1 985 5 is_stmt 1 view .LVU973
 985:libscpi/src/parser.c ****     if (result) {
 3946              		.loc 1 985 14 is_stmt 0 view .LVU974
 3947 000a 01A9     		add	r1, sp, #4
 3948              	.LVL503:
 985:libscpi/src/parser.c ****     if (result) {
 3949              		.loc 1 985 14 view .LVU975
 3950 000c FFF7FEFF 		bl	SCPI_Parameter
 3951              	.LVL504:
 985:libscpi/src/parser.c ****     if (result) {
 3952              		.loc 1 985 14 view .LVU976
 3953 0010 041E     		subs	r4, r0, #0
 3954              	.LVL505:
 986:libscpi/src/parser.c ****         if (SCPI_ParamIsNumber(&param, FALSE)) {
 3955              		.loc 1 986 5 is_stmt 1 view .LVU977
 986:libscpi/src/parser.c ****         if (SCPI_ParamIsNumber(&param, FALSE)) {
 3956              		.loc 1 986 8 is_stmt 0 view .LVU978
ARM GAS  /tmp/ccJs7hvj.s 			page 112


 3957 0012 16D0     		beq	.L244
 987:libscpi/src/parser.c ****             SCPI_ParamToDouble(context, &param, value);
 3958              		.loc 1 987 9 is_stmt 1 view .LVU979
 987:libscpi/src/parser.c ****             SCPI_ParamToDouble(context, &param, value);
 3959              		.loc 1 987 13 is_stmt 0 view .LVU980
 3960 0014 0021     		movs	r1, #0
 3961 0016 01A8     		add	r0, sp, #4
 3962              	.LVL506:
 987:libscpi/src/parser.c ****             SCPI_ParamToDouble(context, &param, value);
 3963              		.loc 1 987 13 view .LVU981
 3964 0018 FFF7FEFF 		bl	SCPI_ParamIsNumber
 3965              	.LVL507:
 3966 001c 061E     		subs	r6, r0, #0
 987:libscpi/src/parser.c ****             SCPI_ParamToDouble(context, &param, value);
 3967              		.loc 1 987 12 view .LVU982
 3968 001e 13D1     		bne	.L248
 989:libscpi/src/parser.c ****             SCPI_ErrorPush(context, SCPI_ERROR_SUFFIX_NOT_ALLOWED);
 3969              		.loc 1 989 16 is_stmt 1 view .LVU983
 989:libscpi/src/parser.c ****             SCPI_ErrorPush(context, SCPI_ERROR_SUFFIX_NOT_ALLOWED);
 3970              		.loc 1 989 20 is_stmt 0 view .LVU984
 3971 0020 0121     		movs	r1, #1
 3972 0022 01A8     		add	r0, sp, #4
 3973 0024 FFF7FEFF 		bl	SCPI_ParamIsNumber
 3974              	.LVL508:
 3975 0028 041E     		subs	r4, r0, #0
 3976              	.LVL509:
 989:libscpi/src/parser.c ****             SCPI_ErrorPush(context, SCPI_ERROR_SUFFIX_NOT_ALLOWED);
 3977              		.loc 1 989 19 view .LVU985
 3978 002a 13D0     		beq	.L246
 990:libscpi/src/parser.c ****             result = FALSE;
 3979              		.loc 1 990 13 is_stmt 1 view .LVU986
 3980 002c 8A21     		movs	r1, #138
 3981 002e 4942     		rsbs	r1, r1, #0
 3982 0030 2800     		movs	r0, r5
 3983 0032 FFF7FEFF 		bl	SCPI_ErrorPush
 3984              	.LVL510:
 991:libscpi/src/parser.c ****         } else {
 3985              		.loc 1 991 13 view .LVU987
 991:libscpi/src/parser.c ****         } else {
 3986              		.loc 1 991 20 is_stmt 0 view .LVU988
 3987 0036 3400     		movs	r4, r6
 3988 0038 03E0     		b	.L244
 3989              	.LVL511:
 3990              	.L247:
 981:libscpi/src/parser.c ****         return FALSE;
 3991              		.loc 1 981 9 is_stmt 1 view .LVU989
 3992 003a 0949     		ldr	r1, .L249
 3993              	.LVL512:
 981:libscpi/src/parser.c ****         return FALSE;
 3994              		.loc 1 981 9 is_stmt 0 view .LVU990
 3995 003c FFF7FEFF 		bl	SCPI_ErrorPush
 3996              	.LVL513:
 982:libscpi/src/parser.c ****     }
 3997              		.loc 1 982 9 is_stmt 1 view .LVU991
 982:libscpi/src/parser.c ****     }
 3998              		.loc 1 982 16 is_stmt 0 view .LVU992
 3999 0040 0024     		movs	r4, #0
ARM GAS  /tmp/ccJs7hvj.s 			page 113


 4000              	.L244:
 998:libscpi/src/parser.c **** 
 4001              		.loc 1 998 1 view .LVU993
 4002 0042 2000     		movs	r0, r4
 4003 0044 05B0     		add	sp, sp, #20
 4004              		@ sp needed
 4005              	.LVL514:
 4006              	.LVL515:
 998:libscpi/src/parser.c **** 
 4007              		.loc 1 998 1 view .LVU994
 4008 0046 F0BD     		pop	{r4, r5, r6, r7, pc}
 4009              	.LVL516:
 4010              	.L248:
 988:libscpi/src/parser.c ****         } else if (SCPI_ParamIsNumber(&param, TRUE)) {
 4011              		.loc 1 988 13 is_stmt 1 view .LVU995
 4012 0048 3A00     		movs	r2, r7
 4013 004a 01A9     		add	r1, sp, #4
 4014 004c 2800     		movs	r0, r5
 4015 004e FFF7FEFF 		bl	SCPI_ParamToDouble
 4016              	.LVL517:
 4017 0052 F6E7     		b	.L244
 4018              	.LVL518:
 4019              	.L246:
 993:libscpi/src/parser.c ****             result = FALSE;
 4020              		.loc 1 993 13 view .LVU996
 4021 0054 6821     		movs	r1, #104
 4022 0056 4942     		rsbs	r1, r1, #0
 4023 0058 2800     		movs	r0, r5
 4024 005a FFF7FEFF 		bl	SCPI_ErrorPush
 4025              	.LVL519:
 994:libscpi/src/parser.c ****         }
 4026              		.loc 1 994 13 view .LVU997
 994:libscpi/src/parser.c ****         }
 4027              		.loc 1 994 13 is_stmt 0 view .LVU998
 4028 005e F0E7     		b	.L244
 4029              	.L250:
 4030              		.align	2
 4031              	.L249:
 4032 0060 CAFEFFFF 		.word	-310
 4033              		.cfi_endproc
 4034              	.LFE38:
 4036              		.section	.text.ParamSignUInt32,"ax",%progbits
 4037              		.align	1
 4038              		.syntax unified
 4039              		.code	16
 4040              		.thumb_func
 4041              		.fpu softvfp
 4043              	ParamSignUInt32:
 4044              	.LVL520:
 4045              	.LFB39:
1008:libscpi/src/parser.c ****     scpi_bool_t result;
 4046              		.loc 1 1008 113 is_stmt 1 view -0
 4047              		.cfi_startproc
 4048              		@ args = 0, pretend = 0, frame = 16
 4049              		@ frame_needed = 0, uses_anonymous_args = 0
1008:libscpi/src/parser.c ****     scpi_bool_t result;
 4050              		.loc 1 1008 113 is_stmt 0 view .LVU1000
ARM GAS  /tmp/ccJs7hvj.s 			page 114


 4051 0000 F0B5     		push	{r4, r5, r6, r7, lr}
 4052              	.LCFI60:
 4053              		.cfi_def_cfa_offset 20
 4054              		.cfi_offset 4, -20
 4055              		.cfi_offset 5, -16
 4056              		.cfi_offset 6, -12
 4057              		.cfi_offset 7, -8
 4058              		.cfi_offset 14, -4
 4059 0002 85B0     		sub	sp, sp, #20
 4060              	.LCFI61:
 4061              		.cfi_def_cfa_offset 40
 4062 0004 0600     		movs	r6, r0
 4063 0006 0F00     		movs	r7, r1
 4064 0008 1D00     		movs	r5, r3
1009:libscpi/src/parser.c ****     scpi_parameter_t param;
 4065              		.loc 1 1009 5 is_stmt 1 view .LVU1001
1010:libscpi/src/parser.c **** 
 4066              		.loc 1 1010 5 view .LVU1002
1012:libscpi/src/parser.c ****         SCPI_ErrorPush(context, SCPI_ERROR_SYSTEM_ERROR);
 4067              		.loc 1 1012 5 view .LVU1003
1012:libscpi/src/parser.c ****         SCPI_ErrorPush(context, SCPI_ERROR_SYSTEM_ERROR);
 4068              		.loc 1 1012 8 is_stmt 0 view .LVU1004
 4069 000a 0029     		cmp	r1, #0
 4070 000c 16D0     		beq	.L256
1017:libscpi/src/parser.c ****     if (result) {
 4071              		.loc 1 1017 5 is_stmt 1 view .LVU1005
1017:libscpi/src/parser.c ****     if (result) {
 4072              		.loc 1 1017 14 is_stmt 0 view .LVU1006
 4073 000e 01A9     		add	r1, sp, #4
 4074              	.LVL521:
1017:libscpi/src/parser.c ****     if (result) {
 4075              		.loc 1 1017 14 view .LVU1007
 4076 0010 FFF7FEFF 		bl	SCPI_Parameter
 4077              	.LVL522:
1017:libscpi/src/parser.c ****     if (result) {
 4078              		.loc 1 1017 14 view .LVU1008
 4079 0014 041E     		subs	r4, r0, #0
 4080              	.LVL523:
1018:libscpi/src/parser.c ****         if (SCPI_ParamIsNumber(&param, FALSE)) {
 4081              		.loc 1 1018 5 is_stmt 1 view .LVU1009
1018:libscpi/src/parser.c ****         if (SCPI_ParamIsNumber(&param, FALSE)) {
 4082              		.loc 1 1018 8 is_stmt 0 view .LVU1010
 4083 0016 15D0     		beq	.L253
1019:libscpi/src/parser.c ****             result = ParamSignToUInt32(context, &param, value, sign);
 4084              		.loc 1 1019 9 is_stmt 1 view .LVU1011
1019:libscpi/src/parser.c ****             result = ParamSignToUInt32(context, &param, value, sign);
 4085              		.loc 1 1019 13 is_stmt 0 view .LVU1012
 4086 0018 0021     		movs	r1, #0
 4087 001a 01A8     		add	r0, sp, #4
 4088              	.LVL524:
1019:libscpi/src/parser.c ****             result = ParamSignToUInt32(context, &param, value, sign);
 4089              		.loc 1 1019 13 view .LVU1013
 4090 001c FFF7FEFF 		bl	SCPI_ParamIsNumber
 4091              	.LVL525:
 4092 0020 041E     		subs	r4, r0, #0
 4093              	.LVL526:
1019:libscpi/src/parser.c ****             result = ParamSignToUInt32(context, &param, value, sign);
ARM GAS  /tmp/ccJs7hvj.s 			page 115


 4094              		.loc 1 1019 12 view .LVU1014
 4095 0022 12D1     		bne	.L257
1021:libscpi/src/parser.c ****             SCPI_ErrorPush(context, SCPI_ERROR_SUFFIX_NOT_ALLOWED);
 4096              		.loc 1 1021 16 is_stmt 1 view .LVU1015
1021:libscpi/src/parser.c ****             SCPI_ErrorPush(context, SCPI_ERROR_SUFFIX_NOT_ALLOWED);
 4097              		.loc 1 1021 20 is_stmt 0 view .LVU1016
 4098 0024 0121     		movs	r1, #1
 4099 0026 01A8     		add	r0, sp, #4
 4100 0028 FFF7FEFF 		bl	SCPI_ParamIsNumber
 4101              	.LVL527:
 4102 002c 051E     		subs	r5, r0, #0
1021:libscpi/src/parser.c ****             SCPI_ErrorPush(context, SCPI_ERROR_SUFFIX_NOT_ALLOWED);
 4103              		.loc 1 1021 19 view .LVU1017
 4104 002e 14D0     		beq	.L255
1022:libscpi/src/parser.c ****             result = FALSE;
 4105              		.loc 1 1022 13 is_stmt 1 view .LVU1018
 4106 0030 8A21     		movs	r1, #138
 4107 0032 4942     		rsbs	r1, r1, #0
 4108 0034 3000     		movs	r0, r6
 4109 0036 FFF7FEFF 		bl	SCPI_ErrorPush
 4110              	.LVL528:
1023:libscpi/src/parser.c ****         } else {
 4111              		.loc 1 1023 13 view .LVU1019
1023:libscpi/src/parser.c ****         } else {
 4112              		.loc 1 1023 13 is_stmt 0 view .LVU1020
 4113 003a 03E0     		b	.L253
 4114              	.LVL529:
 4115              	.L256:
1013:libscpi/src/parser.c ****         return FALSE;
 4116              		.loc 1 1013 9 is_stmt 1 view .LVU1021
 4117 003c 0A49     		ldr	r1, .L258
 4118              	.LVL530:
1013:libscpi/src/parser.c ****         return FALSE;
 4119              		.loc 1 1013 9 is_stmt 0 view .LVU1022
 4120 003e FFF7FEFF 		bl	SCPI_ErrorPush
 4121              	.LVL531:
1014:libscpi/src/parser.c ****     }
 4122              		.loc 1 1014 9 is_stmt 1 view .LVU1023
1014:libscpi/src/parser.c ****     }
 4123              		.loc 1 1014 16 is_stmt 0 view .LVU1024
 4124 0042 0024     		movs	r4, #0
 4125              	.L253:
1030:libscpi/src/parser.c **** 
 4126              		.loc 1 1030 1 view .LVU1025
 4127 0044 2000     		movs	r0, r4
 4128 0046 05B0     		add	sp, sp, #20
 4129              		@ sp needed
 4130              	.LVL532:
 4131              	.LVL533:
1030:libscpi/src/parser.c **** 
 4132              		.loc 1 1030 1 view .LVU1026
 4133 0048 F0BD     		pop	{r4, r5, r6, r7, pc}
 4134              	.LVL534:
 4135              	.L257:
1020:libscpi/src/parser.c ****         } else if (SCPI_ParamIsNumber(&param, TRUE)) {
 4136              		.loc 1 1020 13 is_stmt 1 view .LVU1027
1020:libscpi/src/parser.c ****         } else if (SCPI_ParamIsNumber(&param, TRUE)) {
ARM GAS  /tmp/ccJs7hvj.s 			page 116


 4137              		.loc 1 1020 22 is_stmt 0 view .LVU1028
 4138 004a 2B00     		movs	r3, r5
 4139 004c 3A00     		movs	r2, r7
 4140 004e 01A9     		add	r1, sp, #4
 4141 0050 3000     		movs	r0, r6
 4142 0052 FFF7FEFF 		bl	ParamSignToUInt32
 4143              	.LVL535:
 4144 0056 0400     		movs	r4, r0
 4145              	.LVL536:
1020:libscpi/src/parser.c ****         } else if (SCPI_ParamIsNumber(&param, TRUE)) {
 4146              		.loc 1 1020 22 view .LVU1029
 4147 0058 F4E7     		b	.L253
 4148              	.LVL537:
 4149              	.L255:
1025:libscpi/src/parser.c ****             result = FALSE;
 4150              		.loc 1 1025 13 is_stmt 1 view .LVU1030
 4151 005a 6821     		movs	r1, #104
 4152 005c 4942     		rsbs	r1, r1, #0
 4153 005e 3000     		movs	r0, r6
 4154 0060 FFF7FEFF 		bl	SCPI_ErrorPush
 4155              	.LVL538:
1026:libscpi/src/parser.c ****         }
 4156              		.loc 1 1026 13 view .LVU1031
1026:libscpi/src/parser.c ****         }
 4157              		.loc 1 1026 20 is_stmt 0 view .LVU1032
 4158 0064 2C00     		movs	r4, r5
 4159 0066 EDE7     		b	.L253
 4160              	.L259:
 4161              		.align	2
 4162              	.L258:
 4163 0068 CAFEFFFF 		.word	-310
 4164              		.cfi_endproc
 4165              	.LFE39:
 4167              		.section	.text.SCPI_ParamInt32,"ax",%progbits
 4168              		.align	1
 4169              		.global	SCPI_ParamInt32
 4170              		.syntax unified
 4171              		.code	16
 4172              		.thumb_func
 4173              		.fpu softvfp
 4175              	SCPI_ParamInt32:
 4176              	.LVL539:
 4177              	.LFB41:
1071:libscpi/src/parser.c ****     return ParamSignUInt32(context, (uint32_t *) value, mandatory, TRUE);
 4178              		.loc 1 1071 87 is_stmt 1 view -0
 4179              		.cfi_startproc
 4180              		@ args = 0, pretend = 0, frame = 0
 4181              		@ frame_needed = 0, uses_anonymous_args = 0
1071:libscpi/src/parser.c ****     return ParamSignUInt32(context, (uint32_t *) value, mandatory, TRUE);
 4182              		.loc 1 1071 87 is_stmt 0 view .LVU1034
 4183 0000 10B5     		push	{r4, lr}
 4184              	.LCFI62:
 4185              		.cfi_def_cfa_offset 8
 4186              		.cfi_offset 4, -8
 4187              		.cfi_offset 14, -4
1072:libscpi/src/parser.c **** }
 4188              		.loc 1 1072 5 is_stmt 1 view .LVU1035
ARM GAS  /tmp/ccJs7hvj.s 			page 117


1072:libscpi/src/parser.c **** }
 4189              		.loc 1 1072 12 is_stmt 0 view .LVU1036
 4190 0002 0123     		movs	r3, #1
 4191 0004 FFF7FEFF 		bl	ParamSignUInt32
 4192              	.LVL540:
1073:libscpi/src/parser.c **** 
 4193              		.loc 1 1073 1 view .LVU1037
 4194              		@ sp needed
 4195 0008 10BD     		pop	{r4, pc}
 4196              		.cfi_endproc
 4197              	.LFE41:
 4199              		.section	.text.SCPI_ParamUInt32,"ax",%progbits
 4200              		.align	1
 4201              		.global	SCPI_ParamUInt32
 4202              		.syntax unified
 4203              		.code	16
 4204              		.thumb_func
 4205              		.fpu softvfp
 4207              	SCPI_ParamUInt32:
 4208              	.LVL541:
 4209              	.LFB42:
1082:libscpi/src/parser.c ****     return ParamSignUInt32(context, value, mandatory, FALSE);
 4210              		.loc 1 1082 89 is_stmt 1 view -0
 4211              		.cfi_startproc
 4212              		@ args = 0, pretend = 0, frame = 0
 4213              		@ frame_needed = 0, uses_anonymous_args = 0
1082:libscpi/src/parser.c ****     return ParamSignUInt32(context, value, mandatory, FALSE);
 4214              		.loc 1 1082 89 is_stmt 0 view .LVU1039
 4215 0000 10B5     		push	{r4, lr}
 4216              	.LCFI63:
 4217              		.cfi_def_cfa_offset 8
 4218              		.cfi_offset 4, -8
 4219              		.cfi_offset 14, -4
1083:libscpi/src/parser.c **** }
 4220              		.loc 1 1083 5 is_stmt 1 view .LVU1040
1083:libscpi/src/parser.c **** }
 4221              		.loc 1 1083 12 is_stmt 0 view .LVU1041
 4222 0002 0023     		movs	r3, #0
 4223 0004 FFF7FEFF 		bl	ParamSignUInt32
 4224              	.LVL542:
1084:libscpi/src/parser.c **** 
 4225              		.loc 1 1084 1 view .LVU1042
 4226              		@ sp needed
 4227 0008 10BD     		pop	{r4, pc}
 4228              		.cfi_endproc
 4229              	.LFE42:
 4231              		.section	.text.ParamSignUInt64,"ax",%progbits
 4232              		.align	1
 4233              		.syntax unified
 4234              		.code	16
 4235              		.thumb_func
 4236              		.fpu softvfp
 4238              	ParamSignUInt64:
 4239              	.LVL543:
 4240              	.LFB40:
1040:libscpi/src/parser.c ****     scpi_bool_t result;
 4241              		.loc 1 1040 113 is_stmt 1 view -0
ARM GAS  /tmp/ccJs7hvj.s 			page 118


 4242              		.cfi_startproc
 4243              		@ args = 0, pretend = 0, frame = 16
 4244              		@ frame_needed = 0, uses_anonymous_args = 0
1040:libscpi/src/parser.c ****     scpi_bool_t result;
 4245              		.loc 1 1040 113 is_stmt 0 view .LVU1044
 4246 0000 F0B5     		push	{r4, r5, r6, r7, lr}
 4247              	.LCFI64:
 4248              		.cfi_def_cfa_offset 20
 4249              		.cfi_offset 4, -20
 4250              		.cfi_offset 5, -16
 4251              		.cfi_offset 6, -12
 4252              		.cfi_offset 7, -8
 4253              		.cfi_offset 14, -4
 4254 0002 85B0     		sub	sp, sp, #20
 4255              	.LCFI65:
 4256              		.cfi_def_cfa_offset 40
 4257 0004 0600     		movs	r6, r0
 4258 0006 0F00     		movs	r7, r1
 4259 0008 1D00     		movs	r5, r3
1041:libscpi/src/parser.c ****     scpi_parameter_t param;
 4260              		.loc 1 1041 5 is_stmt 1 view .LVU1045
1042:libscpi/src/parser.c **** 
 4261              		.loc 1 1042 5 view .LVU1046
1044:libscpi/src/parser.c ****         SCPI_ErrorPush(context, SCPI_ERROR_SYSTEM_ERROR);
 4262              		.loc 1 1044 5 view .LVU1047
1044:libscpi/src/parser.c ****         SCPI_ErrorPush(context, SCPI_ERROR_SYSTEM_ERROR);
 4263              		.loc 1 1044 8 is_stmt 0 view .LVU1048
 4264 000a 0029     		cmp	r1, #0
 4265 000c 16D0     		beq	.L267
1049:libscpi/src/parser.c ****     if (result) {
 4266              		.loc 1 1049 5 is_stmt 1 view .LVU1049
1049:libscpi/src/parser.c ****     if (result) {
 4267              		.loc 1 1049 14 is_stmt 0 view .LVU1050
 4268 000e 01A9     		add	r1, sp, #4
 4269              	.LVL544:
1049:libscpi/src/parser.c ****     if (result) {
 4270              		.loc 1 1049 14 view .LVU1051
 4271 0010 FFF7FEFF 		bl	SCPI_Parameter
 4272              	.LVL545:
1049:libscpi/src/parser.c ****     if (result) {
 4273              		.loc 1 1049 14 view .LVU1052
 4274 0014 041E     		subs	r4, r0, #0
 4275              	.LVL546:
1050:libscpi/src/parser.c ****         if (SCPI_ParamIsNumber(&param, FALSE)) {
 4276              		.loc 1 1050 5 is_stmt 1 view .LVU1053
1050:libscpi/src/parser.c ****         if (SCPI_ParamIsNumber(&param, FALSE)) {
 4277              		.loc 1 1050 8 is_stmt 0 view .LVU1054
 4278 0016 15D0     		beq	.L264
1051:libscpi/src/parser.c ****             result = ParamSignToUInt64(context, &param, value, sign);
 4279              		.loc 1 1051 9 is_stmt 1 view .LVU1055
1051:libscpi/src/parser.c ****             result = ParamSignToUInt64(context, &param, value, sign);
 4280              		.loc 1 1051 13 is_stmt 0 view .LVU1056
 4281 0018 0021     		movs	r1, #0
 4282 001a 01A8     		add	r0, sp, #4
 4283              	.LVL547:
1051:libscpi/src/parser.c ****             result = ParamSignToUInt64(context, &param, value, sign);
 4284              		.loc 1 1051 13 view .LVU1057
ARM GAS  /tmp/ccJs7hvj.s 			page 119


 4285 001c FFF7FEFF 		bl	SCPI_ParamIsNumber
 4286              	.LVL548:
 4287 0020 041E     		subs	r4, r0, #0
 4288              	.LVL549:
1051:libscpi/src/parser.c ****             result = ParamSignToUInt64(context, &param, value, sign);
 4289              		.loc 1 1051 12 view .LVU1058
 4290 0022 12D1     		bne	.L268
1053:libscpi/src/parser.c ****             SCPI_ErrorPush(context, SCPI_ERROR_SUFFIX_NOT_ALLOWED);
 4291              		.loc 1 1053 16 is_stmt 1 view .LVU1059
1053:libscpi/src/parser.c ****             SCPI_ErrorPush(context, SCPI_ERROR_SUFFIX_NOT_ALLOWED);
 4292              		.loc 1 1053 20 is_stmt 0 view .LVU1060
 4293 0024 0121     		movs	r1, #1
 4294 0026 01A8     		add	r0, sp, #4
 4295 0028 FFF7FEFF 		bl	SCPI_ParamIsNumber
 4296              	.LVL550:
 4297 002c 051E     		subs	r5, r0, #0
1053:libscpi/src/parser.c ****             SCPI_ErrorPush(context, SCPI_ERROR_SUFFIX_NOT_ALLOWED);
 4298              		.loc 1 1053 19 view .LVU1061
 4299 002e 14D0     		beq	.L266
1054:libscpi/src/parser.c ****             result = FALSE;
 4300              		.loc 1 1054 13 is_stmt 1 view .LVU1062
 4301 0030 8A21     		movs	r1, #138
 4302 0032 4942     		rsbs	r1, r1, #0
 4303 0034 3000     		movs	r0, r6
 4304 0036 FFF7FEFF 		bl	SCPI_ErrorPush
 4305              	.LVL551:
1055:libscpi/src/parser.c ****         } else {
 4306              		.loc 1 1055 13 view .LVU1063
1055:libscpi/src/parser.c ****         } else {
 4307              		.loc 1 1055 13 is_stmt 0 view .LVU1064
 4308 003a 03E0     		b	.L264
 4309              	.LVL552:
 4310              	.L267:
1045:libscpi/src/parser.c ****         return FALSE;
 4311              		.loc 1 1045 9 is_stmt 1 view .LVU1065
 4312 003c 0A49     		ldr	r1, .L269
 4313              	.LVL553:
1045:libscpi/src/parser.c ****         return FALSE;
 4314              		.loc 1 1045 9 is_stmt 0 view .LVU1066
 4315 003e FFF7FEFF 		bl	SCPI_ErrorPush
 4316              	.LVL554:
1046:libscpi/src/parser.c ****     }
 4317              		.loc 1 1046 9 is_stmt 1 view .LVU1067
1046:libscpi/src/parser.c ****     }
 4318              		.loc 1 1046 16 is_stmt 0 view .LVU1068
 4319 0042 0024     		movs	r4, #0
 4320              	.L264:
1062:libscpi/src/parser.c **** 
 4321              		.loc 1 1062 1 view .LVU1069
 4322 0044 2000     		movs	r0, r4
 4323 0046 05B0     		add	sp, sp, #20
 4324              		@ sp needed
 4325              	.LVL555:
 4326              	.LVL556:
1062:libscpi/src/parser.c **** 
 4327              		.loc 1 1062 1 view .LVU1070
 4328 0048 F0BD     		pop	{r4, r5, r6, r7, pc}
ARM GAS  /tmp/ccJs7hvj.s 			page 120


 4329              	.LVL557:
 4330              	.L268:
1052:libscpi/src/parser.c ****         } else if (SCPI_ParamIsNumber(&param, TRUE)) {
 4331              		.loc 1 1052 13 is_stmt 1 view .LVU1071
1052:libscpi/src/parser.c ****         } else if (SCPI_ParamIsNumber(&param, TRUE)) {
 4332              		.loc 1 1052 22 is_stmt 0 view .LVU1072
 4333 004a 2B00     		movs	r3, r5
 4334 004c 3A00     		movs	r2, r7
 4335 004e 01A9     		add	r1, sp, #4
 4336 0050 3000     		movs	r0, r6
 4337 0052 FFF7FEFF 		bl	ParamSignToUInt64
 4338              	.LVL558:
 4339 0056 0400     		movs	r4, r0
 4340              	.LVL559:
1052:libscpi/src/parser.c ****         } else if (SCPI_ParamIsNumber(&param, TRUE)) {
 4341              		.loc 1 1052 22 view .LVU1073
 4342 0058 F4E7     		b	.L264
 4343              	.LVL560:
 4344              	.L266:
1057:libscpi/src/parser.c ****             result = FALSE;
 4345              		.loc 1 1057 13 is_stmt 1 view .LVU1074
 4346 005a 6821     		movs	r1, #104
 4347 005c 4942     		rsbs	r1, r1, #0
 4348 005e 3000     		movs	r0, r6
 4349 0060 FFF7FEFF 		bl	SCPI_ErrorPush
 4350              	.LVL561:
1058:libscpi/src/parser.c ****         }
 4351              		.loc 1 1058 13 view .LVU1075
1058:libscpi/src/parser.c ****         }
 4352              		.loc 1 1058 20 is_stmt 0 view .LVU1076
 4353 0064 2C00     		movs	r4, r5
 4354 0066 EDE7     		b	.L264
 4355              	.L270:
 4356              		.align	2
 4357              	.L269:
 4358 0068 CAFEFFFF 		.word	-310
 4359              		.cfi_endproc
 4360              	.LFE40:
 4362              		.section	.text.SCPI_ParamInt64,"ax",%progbits
 4363              		.align	1
 4364              		.global	SCPI_ParamInt64
 4365              		.syntax unified
 4366              		.code	16
 4367              		.thumb_func
 4368              		.fpu softvfp
 4370              	SCPI_ParamInt64:
 4371              	.LVL562:
 4372              	.LFB43:
1093:libscpi/src/parser.c ****     return ParamSignUInt64(context, (uint64_t *) value, mandatory, TRUE);
 4373              		.loc 1 1093 87 is_stmt 1 view -0
 4374              		.cfi_startproc
 4375              		@ args = 0, pretend = 0, frame = 0
 4376              		@ frame_needed = 0, uses_anonymous_args = 0
1093:libscpi/src/parser.c ****     return ParamSignUInt64(context, (uint64_t *) value, mandatory, TRUE);
 4377              		.loc 1 1093 87 is_stmt 0 view .LVU1078
 4378 0000 10B5     		push	{r4, lr}
 4379              	.LCFI66:
ARM GAS  /tmp/ccJs7hvj.s 			page 121


 4380              		.cfi_def_cfa_offset 8
 4381              		.cfi_offset 4, -8
 4382              		.cfi_offset 14, -4
1094:libscpi/src/parser.c **** }
 4383              		.loc 1 1094 5 is_stmt 1 view .LVU1079
1094:libscpi/src/parser.c **** }
 4384              		.loc 1 1094 12 is_stmt 0 view .LVU1080
 4385 0002 0123     		movs	r3, #1
 4386 0004 FFF7FEFF 		bl	ParamSignUInt64
 4387              	.LVL563:
1095:libscpi/src/parser.c **** 
 4388              		.loc 1 1095 1 view .LVU1081
 4389              		@ sp needed
 4390 0008 10BD     		pop	{r4, pc}
 4391              		.cfi_endproc
 4392              	.LFE43:
 4394              		.section	.text.SCPI_ParamUInt64,"ax",%progbits
 4395              		.align	1
 4396              		.global	SCPI_ParamUInt64
 4397              		.syntax unified
 4398              		.code	16
 4399              		.thumb_func
 4400              		.fpu softvfp
 4402              	SCPI_ParamUInt64:
 4403              	.LVL564:
 4404              	.LFB44:
1104:libscpi/src/parser.c ****     return ParamSignUInt64(context, value, mandatory, FALSE);
 4405              		.loc 1 1104 89 is_stmt 1 view -0
 4406              		.cfi_startproc
 4407              		@ args = 0, pretend = 0, frame = 0
 4408              		@ frame_needed = 0, uses_anonymous_args = 0
1104:libscpi/src/parser.c ****     return ParamSignUInt64(context, value, mandatory, FALSE);
 4409              		.loc 1 1104 89 is_stmt 0 view .LVU1083
 4410 0000 10B5     		push	{r4, lr}
 4411              	.LCFI67:
 4412              		.cfi_def_cfa_offset 8
 4413              		.cfi_offset 4, -8
 4414              		.cfi_offset 14, -4
1105:libscpi/src/parser.c **** }
 4415              		.loc 1 1105 5 is_stmt 1 view .LVU1084
1105:libscpi/src/parser.c **** }
 4416              		.loc 1 1105 12 is_stmt 0 view .LVU1085
 4417 0002 0023     		movs	r3, #0
 4418 0004 FFF7FEFF 		bl	ParamSignUInt64
 4419              	.LVL565:
1106:libscpi/src/parser.c **** 
 4420              		.loc 1 1106 1 view .LVU1086
 4421              		@ sp needed
 4422 0008 10BD     		pop	{r4, pc}
 4423              		.cfi_endproc
 4424              	.LFE44:
 4426              		.section	.text.SCPI_ParamCharacters,"ax",%progbits
 4427              		.align	1
 4428              		.global	SCPI_ParamCharacters
 4429              		.syntax unified
 4430              		.code	16
 4431              		.thumb_func
ARM GAS  /tmp/ccJs7hvj.s 			page 122


 4432              		.fpu softvfp
 4434              	SCPI_ParamCharacters:
 4435              	.LVL566:
 4436              	.LFB45:
1116:libscpi/src/parser.c ****     scpi_bool_t result;
 4437              		.loc 1 1116 110 is_stmt 1 view -0
 4438              		.cfi_startproc
 4439              		@ args = 0, pretend = 0, frame = 24
 4440              		@ frame_needed = 0, uses_anonymous_args = 0
1116:libscpi/src/parser.c ****     scpi_bool_t result;
 4441              		.loc 1 1116 110 is_stmt 0 view .LVU1088
 4442 0000 30B5     		push	{r4, r5, lr}
 4443              	.LCFI68:
 4444              		.cfi_def_cfa_offset 12
 4445              		.cfi_offset 4, -12
 4446              		.cfi_offset 5, -8
 4447              		.cfi_offset 14, -4
 4448 0002 87B0     		sub	sp, sp, #28
 4449              	.LCFI69:
 4450              		.cfi_def_cfa_offset 40
 4451 0004 0C00     		movs	r4, r1
 4452 0006 1500     		movs	r5, r2
 4453 0008 1A00     		movs	r2, r3
 4454              	.LVL567:
1117:libscpi/src/parser.c ****     scpi_parameter_t param;
 4455              		.loc 1 1117 5 is_stmt 1 view .LVU1089
1118:libscpi/src/parser.c **** 
 4456              		.loc 1 1118 5 view .LVU1090
1120:libscpi/src/parser.c ****         SCPI_ErrorPush(context, SCPI_ERROR_SYSTEM_ERROR);
 4457              		.loc 1 1120 5 view .LVU1091
1120:libscpi/src/parser.c ****         SCPI_ErrorPush(context, SCPI_ERROR_SYSTEM_ERROR);
 4458              		.loc 1 1120 8 is_stmt 0 view .LVU1092
 4459 000a 0029     		cmp	r1, #0
 4460 000c 11D0     		beq	.L274
1120:libscpi/src/parser.c ****         SCPI_ErrorPush(context, SCPI_ERROR_SYSTEM_ERROR);
 4461              		.loc 1 1120 16 discriminator 1 view .LVU1093
 4462 000e 002D     		cmp	r5, #0
 4463 0010 0FD0     		beq	.L274
1125:libscpi/src/parser.c ****     if (result) {
 4464              		.loc 1 1125 5 is_stmt 1 view .LVU1094
1125:libscpi/src/parser.c ****     if (result) {
 4465              		.loc 1 1125 14 is_stmt 0 view .LVU1095
 4466 0012 03A9     		add	r1, sp, #12
 4467              	.LVL568:
1125:libscpi/src/parser.c ****     if (result) {
 4468              		.loc 1 1125 14 view .LVU1096
 4469 0014 FFF7FEFF 		bl	SCPI_Parameter
 4470              	.LVL569:
1126:libscpi/src/parser.c ****         switch (param.type) {
 4471              		.loc 1 1126 5 is_stmt 1 view .LVU1097
1126:libscpi/src/parser.c ****         switch (param.type) {
 4472              		.loc 1 1126 8 is_stmt 0 view .LVU1098
 4473 0018 0028     		cmp	r0, #0
 4474 001a 0ED0     		beq	.L276
1127:libscpi/src/parser.c ****             case SCPI_TOKEN_SINGLE_QUOTE_PROGRAM_DATA:
 4475              		.loc 1 1127 9 is_stmt 1 view .LVU1099
1127:libscpi/src/parser.c ****             case SCPI_TOKEN_SINGLE_QUOTE_PROGRAM_DATA:
ARM GAS  /tmp/ccJs7hvj.s 			page 123


 4476              		.loc 1 1127 22 is_stmt 0 view .LVU1100
 4477 001c 03AB     		add	r3, sp, #12
 4478 001e 1B78     		ldrb	r3, [r3]
1127:libscpi/src/parser.c ****             case SCPI_TOKEN_SINGLE_QUOTE_PROGRAM_DATA:
 4479              		.loc 1 1127 9 view .LVU1101
 4480 0020 0E3B     		subs	r3, r3, #14
 4481 0022 012B     		cmp	r3, #1
 4482 0024 0BD9     		bls	.L278
1134:libscpi/src/parser.c ****                 *len = param.len;
 4483              		.loc 1 1134 17 is_stmt 1 view .LVU1102
1134:libscpi/src/parser.c ****                 *len = param.len;
 4484              		.loc 1 1134 31 is_stmt 0 view .LVU1103
 4485 0026 049B     		ldr	r3, [sp, #16]
 4486 0028 0193     		str	r3, [sp, #4]
1134:libscpi/src/parser.c ****                 *len = param.len;
 4487              		.loc 1 1134 24 view .LVU1104
 4488 002a 2360     		str	r3, [r4]
1135:libscpi/src/parser.c ****                 break;
 4489              		.loc 1 1135 17 is_stmt 1 view .LVU1105
1135:libscpi/src/parser.c ****                 break;
 4490              		.loc 1 1135 29 is_stmt 0 view .LVU1106
 4491 002c 059B     		ldr	r3, [sp, #20]
 4492 002e 2B60     		str	r3, [r5]
1136:libscpi/src/parser.c ****         }
 4493              		.loc 1 1136 17 is_stmt 1 view .LVU1107
 4494 0030 03E0     		b	.L276
 4495              	.LVL570:
 4496              	.L274:
1121:libscpi/src/parser.c ****         return FALSE;
 4497              		.loc 1 1121 9 view .LVU1108
 4498 0032 0749     		ldr	r1, .L279
 4499              	.LVL571:
1121:libscpi/src/parser.c ****         return FALSE;
 4500              		.loc 1 1121 9 is_stmt 0 view .LVU1109
 4501 0034 FFF7FEFF 		bl	SCPI_ErrorPush
 4502              	.LVL572:
1122:libscpi/src/parser.c ****     }
 4503              		.loc 1 1122 9 is_stmt 1 view .LVU1110
1122:libscpi/src/parser.c ****     }
 4504              		.loc 1 1122 16 is_stmt 0 view .LVU1111
 4505 0038 0020     		movs	r0, #0
 4506              	.L276:
1143:libscpi/src/parser.c **** 
 4507              		.loc 1 1143 1 view .LVU1112
 4508 003a 07B0     		add	sp, sp, #28
 4509              		@ sp needed
 4510              	.LVL573:
 4511              	.LVL574:
1143:libscpi/src/parser.c **** 
 4512              		.loc 1 1143 1 view .LVU1113
 4513 003c 30BD     		pop	{r4, r5, pc}
 4514              	.LVL575:
 4515              	.L278:
1130:libscpi/src/parser.c ****                 *len = param.len - 2;
 4516              		.loc 1 1130 17 is_stmt 1 view .LVU1114
1130:libscpi/src/parser.c ****                 *len = param.len - 2;
 4517              		.loc 1 1130 31 is_stmt 0 view .LVU1115
ARM GAS  /tmp/ccJs7hvj.s 			page 124


 4518 003e 049B     		ldr	r3, [sp, #16]
 4519 0040 0193     		str	r3, [sp, #4]
1130:libscpi/src/parser.c ****                 *len = param.len - 2;
 4520              		.loc 1 1130 36 view .LVU1116
 4521 0042 0133     		adds	r3, r3, #1
1130:libscpi/src/parser.c ****                 *len = param.len - 2;
 4522              		.loc 1 1130 24 view .LVU1117
 4523 0044 2360     		str	r3, [r4]
1131:libscpi/src/parser.c ****                 break;
 4524              		.loc 1 1131 17 is_stmt 1 view .LVU1118
1131:libscpi/src/parser.c ****                 break;
 4525              		.loc 1 1131 29 is_stmt 0 view .LVU1119
 4526 0046 059B     		ldr	r3, [sp, #20]
1131:libscpi/src/parser.c ****                 break;
 4527              		.loc 1 1131 34 view .LVU1120
 4528 0048 023B     		subs	r3, r3, #2
1131:libscpi/src/parser.c ****                 break;
 4529              		.loc 1 1131 22 view .LVU1121
 4530 004a 2B60     		str	r3, [r5]
1132:libscpi/src/parser.c ****             default:
 4531              		.loc 1 1132 17 is_stmt 1 view .LVU1122
 4532 004c F5E7     		b	.L276
 4533              	.L280:
 4534 004e C046     		.align	2
 4535              	.L279:
 4536 0050 CAFEFFFF 		.word	-310
 4537              		.cfi_endproc
 4538              	.LFE45:
 4540              		.section	.text.SCPI_ParamArbitraryBlock,"ax",%progbits
 4541              		.align	1
 4542              		.global	SCPI_ParamArbitraryBlock
 4543              		.syntax unified
 4544              		.code	16
 4545              		.thumb_func
 4546              		.fpu softvfp
 4548              	SCPI_ParamArbitraryBlock:
 4549              	.LVL576:
 4550              	.LFB46:
1153:libscpi/src/parser.c ****     scpi_bool_t result;
 4551              		.loc 1 1153 114 view -0
 4552              		.cfi_startproc
 4553              		@ args = 0, pretend = 0, frame = 24
 4554              		@ frame_needed = 0, uses_anonymous_args = 0
1153:libscpi/src/parser.c ****     scpi_bool_t result;
 4555              		.loc 1 1153 114 is_stmt 0 view .LVU1124
 4556 0000 70B5     		push	{r4, r5, r6, lr}
 4557              	.LCFI70:
 4558              		.cfi_def_cfa_offset 16
 4559              		.cfi_offset 4, -16
 4560              		.cfi_offset 5, -12
 4561              		.cfi_offset 6, -8
 4562              		.cfi_offset 14, -4
 4563 0002 86B0     		sub	sp, sp, #24
 4564              	.LCFI71:
 4565              		.cfi_def_cfa_offset 40
 4566 0004 0500     		movs	r5, r0
 4567 0006 0C00     		movs	r4, r1
ARM GAS  /tmp/ccJs7hvj.s 			page 125


 4568 0008 1600     		movs	r6, r2
 4569 000a 1A00     		movs	r2, r3
 4570              	.LVL577:
1154:libscpi/src/parser.c ****     scpi_parameter_t param;
 4571              		.loc 1 1154 5 is_stmt 1 view .LVU1125
1155:libscpi/src/parser.c **** 
 4572              		.loc 1 1155 5 view .LVU1126
1157:libscpi/src/parser.c ****         SCPI_ErrorPush(context, SCPI_ERROR_SYSTEM_ERROR);
 4573              		.loc 1 1157 5 view .LVU1127
1157:libscpi/src/parser.c ****         SCPI_ErrorPush(context, SCPI_ERROR_SYSTEM_ERROR);
 4574              		.loc 1 1157 8 is_stmt 0 view .LVU1128
 4575 000c 0029     		cmp	r1, #0
 4576 000e 10D0     		beq	.L282
1157:libscpi/src/parser.c ****         SCPI_ErrorPush(context, SCPI_ERROR_SYSTEM_ERROR);
 4577              		.loc 1 1157 16 discriminator 1 view .LVU1129
 4578 0010 002E     		cmp	r6, #0
 4579 0012 0ED0     		beq	.L282
1162:libscpi/src/parser.c ****     if (result) {
 4580              		.loc 1 1162 5 is_stmt 1 view .LVU1130
1162:libscpi/src/parser.c ****     if (result) {
 4581              		.loc 1 1162 14 is_stmt 0 view .LVU1131
 4582 0014 03A9     		add	r1, sp, #12
 4583              	.LVL578:
1162:libscpi/src/parser.c ****     if (result) {
 4584              		.loc 1 1162 14 view .LVU1132
 4585 0016 FFF7FEFF 		bl	SCPI_Parameter
 4586              	.LVL579:
1163:libscpi/src/parser.c ****         if (param.type == SCPI_TOKEN_ARBITRARY_BLOCK_PROGRAM_DATA) {
 4587              		.loc 1 1163 5 is_stmt 1 view .LVU1133
1163:libscpi/src/parser.c ****         if (param.type == SCPI_TOKEN_ARBITRARY_BLOCK_PROGRAM_DATA) {
 4588              		.loc 1 1163 8 is_stmt 0 view .LVU1134
 4589 001a 0028     		cmp	r0, #0
 4590 001c 0ED0     		beq	.L284
1164:libscpi/src/parser.c ****             *value = param.ptr;
 4591              		.loc 1 1164 9 is_stmt 1 view .LVU1135
1164:libscpi/src/parser.c ****             *value = param.ptr;
 4592              		.loc 1 1164 18 is_stmt 0 view .LVU1136
 4593 001e 03AB     		add	r3, sp, #12
 4594 0020 1B78     		ldrb	r3, [r3]
1164:libscpi/src/parser.c ****             *value = param.ptr;
 4595              		.loc 1 1164 12 view .LVU1137
 4596 0022 0D2B     		cmp	r3, #13
 4597 0024 0CD1     		bne	.L285
1165:libscpi/src/parser.c ****             *len = param.len;
 4598              		.loc 1 1165 13 is_stmt 1 view .LVU1138
1165:libscpi/src/parser.c ****             *len = param.len;
 4599              		.loc 1 1165 27 is_stmt 0 view .LVU1139
 4600 0026 049B     		ldr	r3, [sp, #16]
 4601 0028 0193     		str	r3, [sp, #4]
1165:libscpi/src/parser.c ****             *len = param.len;
 4602              		.loc 1 1165 20 view .LVU1140
 4603 002a 2360     		str	r3, [r4]
1166:libscpi/src/parser.c ****         } else {
 4604              		.loc 1 1166 13 is_stmt 1 view .LVU1141
1166:libscpi/src/parser.c ****         } else {
 4605              		.loc 1 1166 25 is_stmt 0 view .LVU1142
 4606 002c 059B     		ldr	r3, [sp, #20]
ARM GAS  /tmp/ccJs7hvj.s 			page 126


 4607 002e 3360     		str	r3, [r6]
 4608 0030 04E0     		b	.L284
 4609              	.LVL580:
 4610              	.L282:
1158:libscpi/src/parser.c ****         return FALSE;
 4611              		.loc 1 1158 9 is_stmt 1 view .LVU1143
 4612 0032 0749     		ldr	r1, .L286
 4613              	.LVL581:
1158:libscpi/src/parser.c ****         return FALSE;
 4614              		.loc 1 1158 9 is_stmt 0 view .LVU1144
 4615 0034 2800     		movs	r0, r5
 4616              	.LVL582:
1158:libscpi/src/parser.c ****         return FALSE;
 4617              		.loc 1 1158 9 view .LVU1145
 4618 0036 FFF7FEFF 		bl	SCPI_ErrorPush
 4619              	.LVL583:
1159:libscpi/src/parser.c ****     }
 4620              		.loc 1 1159 9 is_stmt 1 view .LVU1146
1159:libscpi/src/parser.c ****     }
 4621              		.loc 1 1159 16 is_stmt 0 view .LVU1147
 4622 003a 0020     		movs	r0, #0
 4623              	.L284:
1174:libscpi/src/parser.c **** 
 4624              		.loc 1 1174 1 view .LVU1148
 4625 003c 06B0     		add	sp, sp, #24
 4626              		@ sp needed
 4627              	.LVL584:
 4628              	.LVL585:
 4629              	.LVL586:
1174:libscpi/src/parser.c **** 
 4630              		.loc 1 1174 1 view .LVU1149
 4631 003e 70BD     		pop	{r4, r5, r6, pc}
 4632              	.LVL587:
 4633              	.L285:
1168:libscpi/src/parser.c ****             result = FALSE;
 4634              		.loc 1 1168 13 is_stmt 1 view .LVU1150
 4635 0040 6821     		movs	r1, #104
 4636 0042 4942     		rsbs	r1, r1, #0
 4637 0044 2800     		movs	r0, r5
 4638              	.LVL588:
1168:libscpi/src/parser.c ****             result = FALSE;
 4639              		.loc 1 1168 13 is_stmt 0 view .LVU1151
 4640 0046 FFF7FEFF 		bl	SCPI_ErrorPush
 4641              	.LVL589:
1169:libscpi/src/parser.c ****         }
 4642              		.loc 1 1169 13 is_stmt 1 view .LVU1152
1169:libscpi/src/parser.c ****         }
 4643              		.loc 1 1169 20 is_stmt 0 view .LVU1153
 4644 004a 0020     		movs	r0, #0
 4645 004c F6E7     		b	.L284
 4646              	.L287:
 4647 004e C046     		.align	2
 4648              	.L286:
 4649 0050 CAFEFFFF 		.word	-310
 4650              		.cfi_endproc
 4651              	.LFE46:
 4653              		.section	.text.SCPI_ParamCopyText,"ax",%progbits
ARM GAS  /tmp/ccJs7hvj.s 			page 127


 4654              		.align	1
 4655              		.global	SCPI_ParamCopyText
 4656              		.syntax unified
 4657              		.code	16
 4658              		.thumb_func
 4659              		.fpu softvfp
 4661              	SCPI_ParamCopyText:
 4662              	.LVL590:
 4663              	.LFB47:
1176:libscpi/src/parser.c ****     scpi_bool_t result;
 4664              		.loc 1 1176 126 is_stmt 1 view -0
 4665              		.cfi_startproc
 4666              		@ args = 4, pretend = 0, frame = 16
 4667              		@ frame_needed = 0, uses_anonymous_args = 0
1176:libscpi/src/parser.c ****     scpi_bool_t result;
 4668              		.loc 1 1176 126 is_stmt 0 view .LVU1155
 4669 0000 F0B5     		push	{r4, r5, r6, r7, lr}
 4670              	.LCFI72:
 4671              		.cfi_def_cfa_offset 20
 4672              		.cfi_offset 4, -20
 4673              		.cfi_offset 5, -16
 4674              		.cfi_offset 6, -12
 4675              		.cfi_offset 7, -8
 4676              		.cfi_offset 14, -4
 4677 0002 C646     		mov	lr, r8
 4678 0004 00B5     		push	{lr}
 4679              	.LCFI73:
 4680              		.cfi_def_cfa_offset 24
 4681              		.cfi_offset 8, -24
 4682 0006 84B0     		sub	sp, sp, #16
 4683              	.LCFI74:
 4684              		.cfi_def_cfa_offset 40
 4685 0008 0400     		movs	r4, r0
 4686 000a 0E00     		movs	r6, r1
 4687 000c 1700     		movs	r7, r2
 4688 000e 9846     		mov	r8, r3
 4689 0010 0AAB     		add	r3, sp, #40
 4690              	.LVL591:
1176:libscpi/src/parser.c ****     scpi_bool_t result;
 4691              		.loc 1 1176 126 view .LVU1156
 4692 0012 1A78     		ldrb	r2, [r3]
 4693              	.LVL592:
1177:libscpi/src/parser.c ****     scpi_parameter_t param;
 4694              		.loc 1 1177 5 is_stmt 1 view .LVU1157
1178:libscpi/src/parser.c ****     size_t i_from;
 4695              		.loc 1 1178 5 view .LVU1158
1179:libscpi/src/parser.c ****     size_t i_to;
 4696              		.loc 1 1179 5 view .LVU1159
1180:libscpi/src/parser.c ****     char quote;
 4697              		.loc 1 1180 5 view .LVU1160
1181:libscpi/src/parser.c **** 
 4698              		.loc 1 1181 5 view .LVU1161
1183:libscpi/src/parser.c ****         SCPI_ErrorPush(context, SCPI_ERROR_SYSTEM_ERROR);
 4699              		.loc 1 1183 5 view .LVU1162
1183:libscpi/src/parser.c ****         SCPI_ErrorPush(context, SCPI_ERROR_SYSTEM_ERROR);
 4700              		.loc 1 1183 8 is_stmt 0 view .LVU1163
 4701 0014 0029     		cmp	r1, #0
ARM GAS  /tmp/ccJs7hvj.s 			page 128


 4702 0016 13D0     		beq	.L289
1183:libscpi/src/parser.c ****         SCPI_ErrorPush(context, SCPI_ERROR_SYSTEM_ERROR);
 4703              		.loc 1 1183 17 discriminator 1 view .LVU1164
 4704 0018 4346     		mov	r3, r8
 4705              	.LVL593:
1183:libscpi/src/parser.c ****         SCPI_ErrorPush(context, SCPI_ERROR_SYSTEM_ERROR);
 4706              		.loc 1 1183 17 discriminator 1 view .LVU1165
 4707 001a 002B     		cmp	r3, #0
 4708 001c 10D0     		beq	.L289
1188:libscpi/src/parser.c ****     if (result) {
 4709              		.loc 1 1188 5 is_stmt 1 view .LVU1166
1188:libscpi/src/parser.c ****     if (result) {
 4710              		.loc 1 1188 14 is_stmt 0 view .LVU1167
 4711 001e 01A9     		add	r1, sp, #4
 4712              	.LVL594:
1188:libscpi/src/parser.c ****     if (result) {
 4713              		.loc 1 1188 14 view .LVU1168
 4714 0020 FFF7FEFF 		bl	SCPI_Parameter
 4715              	.LVL595:
1189:libscpi/src/parser.c **** 
 4716              		.loc 1 1189 5 is_stmt 1 view .LVU1169
1189:libscpi/src/parser.c **** 
 4717              		.loc 1 1189 8 is_stmt 0 view .LVU1170
 4718 0024 0028     		cmp	r0, #0
 4719 0026 10D0     		beq	.L291
1191:libscpi/src/parser.c ****             case SCPI_TOKEN_SINGLE_QUOTE_PROGRAM_DATA:
 4720              		.loc 1 1191 9 is_stmt 1 view .LVU1171
1191:libscpi/src/parser.c ****             case SCPI_TOKEN_SINGLE_QUOTE_PROGRAM_DATA:
 4721              		.loc 1 1191 22 is_stmt 0 view .LVU1172
 4722 0028 01AB     		add	r3, sp, #4
 4723 002a 1B78     		ldrb	r3, [r3]
1191:libscpi/src/parser.c ****             case SCPI_TOKEN_SINGLE_QUOTE_PROGRAM_DATA:
 4724              		.loc 1 1191 9 view .LVU1173
 4725 002c 1A00     		movs	r2, r3
 4726 002e 0E3A     		subs	r2, r2, #14
 4727 0030 012A     		cmp	r2, #1
 4728 0032 28D8     		bhi	.L292
1194:libscpi/src/parser.c ****                 for (i_from = 1, i_to = 0; i_from < (size_t) (param.len - 1); i_from++) {
 4729              		.loc 1 1194 17 is_stmt 1 view .LVU1174
1194:libscpi/src/parser.c ****                 for (i_from = 1, i_to = 0; i_from < (size_t) (param.len - 1); i_from++) {
 4730              		.loc 1 1194 23 is_stmt 0 view .LVU1175
 4731 0034 0E2B     		cmp	r3, #14
 4732 0036 0CD0     		beq	.L299
 4733 0038 2222     		movs	r2, #34
 4734              	.L293:
 4735              	.LVL596:
1195:libscpi/src/parser.c ****                     if (i_from >= buffer_len) {
 4736              		.loc 1 1195 17 is_stmt 1 discriminator 4 view .LVU1176
1195:libscpi/src/parser.c ****                     if (i_from >= buffer_len) {
 4737              		.loc 1 1195 39 is_stmt 0 discriminator 4 view .LVU1177
 4738 003a 0021     		movs	r1, #0
1195:libscpi/src/parser.c ****                     if (i_from >= buffer_len) {
 4739              		.loc 1 1195 29 discriminator 4 view .LVU1178
 4740 003c 0124     		movs	r4, #1
 4741              	.LVL597:
1195:libscpi/src/parser.c ****                     if (i_from >= buffer_len) {
 4742              		.loc 1 1195 17 discriminator 4 view .LVU1179
ARM GAS  /tmp/ccJs7hvj.s 			page 129


 4743 003e 0BE0     		b	.L294
 4744              	.LVL598:
 4745              	.L289:
1184:libscpi/src/parser.c ****         return FALSE;
 4746              		.loc 1 1184 9 is_stmt 1 view .LVU1180
 4747 0040 1449     		ldr	r1, .L300
 4748              	.LVL599:
1184:libscpi/src/parser.c ****         return FALSE;
 4749              		.loc 1 1184 9 is_stmt 0 view .LVU1181
 4750 0042 2000     		movs	r0, r4
 4751              	.LVL600:
1184:libscpi/src/parser.c ****         return FALSE;
 4752              		.loc 1 1184 9 view .LVU1182
 4753 0044 FFF7FEFF 		bl	SCPI_ErrorPush
 4754              	.LVL601:
1185:libscpi/src/parser.c ****     }
 4755              		.loc 1 1185 9 is_stmt 1 view .LVU1183
1185:libscpi/src/parser.c ****     }
 4756              		.loc 1 1185 16 is_stmt 0 view .LVU1184
 4757 0048 0020     		movs	r0, #0
 4758              	.LVL602:
 4759              	.L291:
1217:libscpi/src/parser.c **** 
 4760              		.loc 1 1217 1 view .LVU1185
 4761 004a 04B0     		add	sp, sp, #16
 4762              		@ sp needed
 4763              	.LVL603:
 4764              	.LVL604:
 4765              	.LVL605:
1217:libscpi/src/parser.c **** 
 4766              		.loc 1 1217 1 view .LVU1186
 4767 004c 04BC     		pop	{r2}
 4768 004e 9046     		mov	r8, r2
 4769 0050 F0BD     		pop	{r4, r5, r6, r7, pc}
 4770              	.LVL606:
 4771              	.L299:
1194:libscpi/src/parser.c ****                 for (i_from = 1, i_to = 0; i_from < (size_t) (param.len - 1); i_from++) {
 4772              		.loc 1 1194 23 view .LVU1187
 4773 0052 2722     		movs	r2, #39
 4774 0054 F1E7     		b	.L293
 4775              	.LVL607:
 4776              	.L296:
1195:libscpi/src/parser.c ****                     if (i_from >= buffer_len) {
 4777              		.loc 1 1195 79 is_stmt 1 discriminator 2 view .LVU1188
1195:libscpi/src/parser.c ****                     if (i_from >= buffer_len) {
 4778              		.loc 1 1195 85 is_stmt 0 discriminator 2 view .LVU1189
 4779 0056 0134     		adds	r4, r4, #1
 4780              	.LVL608:
 4781              	.L294:
1195:libscpi/src/parser.c ****                     if (i_from >= buffer_len) {
 4782              		.loc 1 1195 44 is_stmt 1 discriminator 1 view .LVU1190
1195:libscpi/src/parser.c ****                     if (i_from >= buffer_len) {
 4783              		.loc 1 1195 73 is_stmt 0 discriminator 1 view .LVU1191
 4784 0058 039B     		ldr	r3, [sp, #12]
 4785 005a 5D1E     		subs	r5, r3, #1
1195:libscpi/src/parser.c ****                     if (i_from >= buffer_len) {
 4786              		.loc 1 1195 17 discriminator 1 view .LVU1192
ARM GAS  /tmp/ccJs7hvj.s 			page 130


 4787 005c A542     		cmp	r5, r4
 4788 005e 0AD9     		bls	.L295
1196:libscpi/src/parser.c ****                         break;
 4789              		.loc 1 1196 21 is_stmt 1 view .LVU1193
1196:libscpi/src/parser.c ****                         break;
 4790              		.loc 1 1196 24 is_stmt 0 view .LVU1194
 4791 0060 BC42     		cmp	r4, r7
 4792 0062 08D2     		bcs	.L295
1199:libscpi/src/parser.c ****                     i_to++;
 4793              		.loc 1 1199 21 is_stmt 1 view .LVU1195
1199:libscpi/src/parser.c ****                     i_to++;
 4794              		.loc 1 1199 41 is_stmt 0 view .LVU1196
 4795 0064 029D     		ldr	r5, [sp, #8]
1199:libscpi/src/parser.c ****                     i_to++;
 4796              		.loc 1 1199 45 view .LVU1197
 4797 0066 2B5D     		ldrb	r3, [r5, r4]
1199:libscpi/src/parser.c ****                     i_to++;
 4798              		.loc 1 1199 34 view .LVU1198
 4799 0068 7354     		strb	r3, [r6, r1]
1200:libscpi/src/parser.c ****                     if (param.ptr[i_from] == quote) {
 4800              		.loc 1 1200 21 is_stmt 1 view .LVU1199
1200:libscpi/src/parser.c ****                     if (param.ptr[i_from] == quote) {
 4801              		.loc 1 1200 25 is_stmt 0 view .LVU1200
 4802 006a 0131     		adds	r1, r1, #1
 4803              	.LVL609:
1201:libscpi/src/parser.c ****                         i_from++;
 4804              		.loc 1 1201 21 is_stmt 1 view .LVU1201
1201:libscpi/src/parser.c ****                         i_from++;
 4805              		.loc 1 1201 34 is_stmt 0 view .LVU1202
 4806 006c 2B5D     		ldrb	r3, [r5, r4]
1201:libscpi/src/parser.c ****                         i_from++;
 4807              		.loc 1 1201 24 view .LVU1203
 4808 006e 9342     		cmp	r3, r2
 4809 0070 F1D1     		bne	.L296
1202:libscpi/src/parser.c ****                     }
 4810              		.loc 1 1202 25 is_stmt 1 view .LVU1204
1202:libscpi/src/parser.c ****                     }
 4811              		.loc 1 1202 31 is_stmt 0 view .LVU1205
 4812 0072 0134     		adds	r4, r4, #1
 4813              	.LVL610:
1202:libscpi/src/parser.c ****                     }
 4814              		.loc 1 1202 31 view .LVU1206
 4815 0074 EFE7     		b	.L296
 4816              	.L295:
1205:libscpi/src/parser.c ****                 if (i_to < buffer_len) {
 4817              		.loc 1 1205 17 is_stmt 1 view .LVU1207
1205:libscpi/src/parser.c ****                 if (i_to < buffer_len) {
 4818              		.loc 1 1205 27 is_stmt 0 view .LVU1208
 4819 0076 4346     		mov	r3, r8
 4820 0078 1960     		str	r1, [r3]
1206:libscpi/src/parser.c ****                     buffer[i_to] = 0;
 4821              		.loc 1 1206 17 is_stmt 1 view .LVU1209
1206:libscpi/src/parser.c ****                     buffer[i_to] = 0;
 4822              		.loc 1 1206 20 is_stmt 0 view .LVU1210
 4823 007a B942     		cmp	r1, r7
 4824 007c E5D2     		bcs	.L291
 4825              	.LVL611:
ARM GAS  /tmp/ccJs7hvj.s 			page 131


1207:libscpi/src/parser.c ****                 }
 4826              		.loc 1 1207 21 is_stmt 1 view .LVU1211
1207:libscpi/src/parser.c ****                 }
 4827              		.loc 1 1207 27 is_stmt 0 view .LVU1212
 4828 007e 7118     		adds	r1, r6, r1
 4829              	.LVL612:
1207:libscpi/src/parser.c ****                 }
 4830              		.loc 1 1207 34 view .LVU1213
 4831 0080 0023     		movs	r3, #0
 4832              	.LVL613:
1207:libscpi/src/parser.c ****                 }
 4833              		.loc 1 1207 34 view .LVU1214
 4834 0082 0B70     		strb	r3, [r1]
 4835              	.LVL614:
1207:libscpi/src/parser.c ****                 }
 4836              		.loc 1 1207 34 view .LVU1215
 4837 0084 E1E7     		b	.L291
 4838              	.LVL615:
 4839              	.L292:
1211:libscpi/src/parser.c ****                 result = FALSE;
 4840              		.loc 1 1211 17 is_stmt 1 view .LVU1216
 4841 0086 6821     		movs	r1, #104
 4842 0088 4942     		rsbs	r1, r1, #0
 4843 008a 2000     		movs	r0, r4
 4844              	.LVL616:
1211:libscpi/src/parser.c ****                 result = FALSE;
 4845              		.loc 1 1211 17 is_stmt 0 view .LVU1217
 4846 008c FFF7FEFF 		bl	SCPI_ErrorPush
 4847              	.LVL617:
1212:libscpi/src/parser.c ****         }
 4848              		.loc 1 1212 17 is_stmt 1 view .LVU1218
1212:libscpi/src/parser.c ****         }
 4849              		.loc 1 1212 24 is_stmt 0 view .LVU1219
 4850 0090 0020     		movs	r0, #0
 4851 0092 DAE7     		b	.L291
 4852              	.L301:
 4853              		.align	2
 4854              	.L300:
 4855 0094 CAFEFFFF 		.word	-310
 4856              		.cfi_endproc
 4857              	.LFE47:
 4859              		.section	.text.SCPI_ParamBool,"ax",%progbits
 4860              		.align	1
 4861              		.global	SCPI_ParamBool
 4862              		.syntax unified
 4863              		.code	16
 4864              		.thumb_func
 4865              		.fpu softvfp
 4867              	SCPI_ParamBool:
 4868              	.LVL618:
 4869              	.LFB50:
1291:libscpi/src/parser.c ****     scpi_bool_t result;
 4870              		.loc 1 1291 90 is_stmt 1 view -0
 4871              		.cfi_startproc
 4872              		@ args = 0, pretend = 0, frame = 16
 4873              		@ frame_needed = 0, uses_anonymous_args = 0
1291:libscpi/src/parser.c ****     scpi_bool_t result;
ARM GAS  /tmp/ccJs7hvj.s 			page 132


 4874              		.loc 1 1291 90 is_stmt 0 view .LVU1221
 4875 0000 70B5     		push	{r4, r5, r6, lr}
 4876              	.LCFI75:
 4877              		.cfi_def_cfa_offset 16
 4878              		.cfi_offset 4, -16
 4879              		.cfi_offset 5, -12
 4880              		.cfi_offset 6, -8
 4881              		.cfi_offset 14, -4
 4882 0002 84B0     		sub	sp, sp, #16
 4883              	.LCFI76:
 4884              		.cfi_def_cfa_offset 32
 4885 0004 0500     		movs	r5, r0
 4886 0006 0E1E     		subs	r6, r1, #0
1292:libscpi/src/parser.c ****     scpi_parameter_t param;
 4887              		.loc 1 1292 5 is_stmt 1 view .LVU1222
1293:libscpi/src/parser.c ****     int32_t intval;
 4888              		.loc 1 1293 5 view .LVU1223
1294:libscpi/src/parser.c **** 
 4889              		.loc 1 1294 5 view .LVU1224
1296:libscpi/src/parser.c ****         SCPI_ErrorPush(context, SCPI_ERROR_SYSTEM_ERROR);
 4890              		.loc 1 1296 5 view .LVU1225
1296:libscpi/src/parser.c ****         SCPI_ErrorPush(context, SCPI_ERROR_SYSTEM_ERROR);
 4891              		.loc 1 1296 8 is_stmt 0 view .LVU1226
 4892 0008 15D0     		beq	.L306
1301:libscpi/src/parser.c **** 
 4893              		.loc 1 1301 5 is_stmt 1 view .LVU1227
1301:libscpi/src/parser.c **** 
 4894              		.loc 1 1301 14 is_stmt 0 view .LVU1228
 4895 000a 01A9     		add	r1, sp, #4
 4896              	.LVL619:
1301:libscpi/src/parser.c **** 
 4897              		.loc 1 1301 14 view .LVU1229
 4898 000c FFF7FEFF 		bl	SCPI_Parameter
 4899              	.LVL620:
1301:libscpi/src/parser.c **** 
 4900              		.loc 1 1301 14 view .LVU1230
 4901 0010 041E     		subs	r4, r0, #0
 4902              	.LVL621:
1303:libscpi/src/parser.c ****         if (param.type == SCPI_TOKEN_DECIMAL_NUMERIC_PROGRAM_DATA) {
 4903              		.loc 1 1303 5 is_stmt 1 view .LVU1231
1303:libscpi/src/parser.c ****         if (param.type == SCPI_TOKEN_DECIMAL_NUMERIC_PROGRAM_DATA) {
 4904              		.loc 1 1303 8 is_stmt 0 view .LVU1232
 4905 0012 14D0     		beq	.L304
1304:libscpi/src/parser.c ****             SCPI_ParamToInt32(context, &param, &intval);
 4906              		.loc 1 1304 9 is_stmt 1 view .LVU1233
1304:libscpi/src/parser.c ****             SCPI_ParamToInt32(context, &param, &intval);
 4907              		.loc 1 1304 18 is_stmt 0 view .LVU1234
 4908 0014 01AB     		add	r3, sp, #4
 4909 0016 1B78     		ldrb	r3, [r3]
1304:libscpi/src/parser.c ****             SCPI_ParamToInt32(context, &param, &intval);
 4910              		.loc 1 1304 12 view .LVU1235
 4911 0018 0A2B     		cmp	r3, #10
 4912 001a 13D0     		beq	.L307
1308:libscpi/src/parser.c ****             if (result) {
 4913              		.loc 1 1308 13 is_stmt 1 view .LVU1236
1308:libscpi/src/parser.c ****             if (result) {
 4914              		.loc 1 1308 22 is_stmt 0 view .LVU1237
ARM GAS  /tmp/ccJs7hvj.s 			page 133


 4915 001c 6B46     		mov	r3, sp
 4916 001e 0E4A     		ldr	r2, .L308
 4917 0020 01A9     		add	r1, sp, #4
 4918 0022 2800     		movs	r0, r5
 4919              	.LVL622:
1308:libscpi/src/parser.c ****             if (result) {
 4920              		.loc 1 1308 22 view .LVU1238
 4921 0024 FFF7FEFF 		bl	SCPI_ParamToChoice
 4922              	.LVL623:
 4923 0028 041E     		subs	r4, r0, #0
 4924              	.LVL624:
1309:libscpi/src/parser.c ****                 *value = intval ? TRUE : FALSE;
 4925              		.loc 1 1309 13 is_stmt 1 view .LVU1239
1309:libscpi/src/parser.c ****                 *value = intval ? TRUE : FALSE;
 4926              		.loc 1 1309 16 is_stmt 0 view .LVU1240
 4927 002a 08D0     		beq	.L304
1310:libscpi/src/parser.c ****             }
 4928              		.loc 1 1310 17 is_stmt 1 view .LVU1241
1310:libscpi/src/parser.c ****             }
 4929              		.loc 1 1310 40 is_stmt 0 view .LVU1242
 4930 002c 009B     		ldr	r3, [sp]
 4931 002e 5A1E     		subs	r2, r3, #1
 4932 0030 9341     		sbcs	r3, r3, r2
1310:libscpi/src/parser.c ****             }
 4933              		.loc 1 1310 24 view .LVU1243
 4934 0032 3370     		strb	r3, [r6]
 4935 0034 03E0     		b	.L304
 4936              	.LVL625:
 4937              	.L306:
1297:libscpi/src/parser.c ****         return FALSE;
 4938              		.loc 1 1297 9 is_stmt 1 view .LVU1244
 4939 0036 0949     		ldr	r1, .L308+4
 4940              	.LVL626:
1297:libscpi/src/parser.c ****         return FALSE;
 4941              		.loc 1 1297 9 is_stmt 0 view .LVU1245
 4942 0038 FFF7FEFF 		bl	SCPI_ErrorPush
 4943              	.LVL627:
1298:libscpi/src/parser.c ****     }
 4944              		.loc 1 1298 9 is_stmt 1 view .LVU1246
1298:libscpi/src/parser.c ****     }
 4945              		.loc 1 1298 16 is_stmt 0 view .LVU1247
 4946 003c 0024     		movs	r4, #0
 4947              	.L304:
1316:libscpi/src/parser.c **** 
 4948              		.loc 1 1316 1 view .LVU1248
 4949 003e 2000     		movs	r0, r4
 4950 0040 04B0     		add	sp, sp, #16
 4951              		@ sp needed
 4952              	.LVL628:
 4953              	.LVL629:
1316:libscpi/src/parser.c **** 
 4954              		.loc 1 1316 1 view .LVU1249
 4955 0042 70BD     		pop	{r4, r5, r6, pc}
 4956              	.LVL630:
 4957              	.L307:
1305:libscpi/src/parser.c ****             *value = intval ? TRUE : FALSE;
 4958              		.loc 1 1305 13 is_stmt 1 view .LVU1250
ARM GAS  /tmp/ccJs7hvj.s 			page 134


 4959 0044 6A46     		mov	r2, sp
 4960 0046 01A9     		add	r1, sp, #4
 4961 0048 2800     		movs	r0, r5
 4962              	.LVL631:
1305:libscpi/src/parser.c ****             *value = intval ? TRUE : FALSE;
 4963              		.loc 1 1305 13 is_stmt 0 view .LVU1251
 4964 004a FFF7FEFF 		bl	SCPI_ParamToInt32
 4965              	.LVL632:
1306:libscpi/src/parser.c ****         } else {
 4966              		.loc 1 1306 13 is_stmt 1 view .LVU1252
1306:libscpi/src/parser.c ****         } else {
 4967              		.loc 1 1306 36 is_stmt 0 view .LVU1253
 4968 004e 009B     		ldr	r3, [sp]
 4969 0050 5A1E     		subs	r2, r3, #1
 4970 0052 9341     		sbcs	r3, r3, r2
1306:libscpi/src/parser.c ****         } else {
 4971              		.loc 1 1306 20 view .LVU1254
 4972 0054 3370     		strb	r3, [r6]
 4973 0056 F2E7     		b	.L304
 4974              	.L309:
 4975              		.align	2
 4976              	.L308:
 4977 0058 00000000 		.word	.LANCHOR0
 4978 005c CAFEFFFF 		.word	-310
 4979              		.cfi_endproc
 4980              	.LFE50:
 4982              		.section	.text.SCPI_ParamChoice,"ax",%progbits
 4983              		.align	1
 4984              		.global	SCPI_ParamChoice
 4985              		.syntax unified
 4986              		.code	16
 4987              		.thumb_func
 4988              		.fpu softvfp
 4990              	SCPI_ParamChoice:
 4991              	.LVL633:
 4992              	.LFB51:
1326:libscpi/src/parser.c ****     scpi_bool_t result;
 4993              		.loc 1 1326 123 is_stmt 1 view -0
 4994              		.cfi_startproc
 4995              		@ args = 0, pretend = 0, frame = 16
 4996              		@ frame_needed = 0, uses_anonymous_args = 0
1326:libscpi/src/parser.c ****     scpi_bool_t result;
 4997              		.loc 1 1326 123 is_stmt 0 view .LVU1256
 4998 0000 70B5     		push	{r4, r5, r6, lr}
 4999              	.LCFI77:
 5000              		.cfi_def_cfa_offset 16
 5001              		.cfi_offset 4, -16
 5002              		.cfi_offset 5, -12
 5003              		.cfi_offset 6, -8
 5004              		.cfi_offset 14, -4
 5005 0002 84B0     		sub	sp, sp, #16
 5006              	.LCFI78:
 5007              		.cfi_def_cfa_offset 32
 5008 0004 0500     		movs	r5, r0
 5009 0006 0C00     		movs	r4, r1
 5010 0008 1600     		movs	r6, r2
 5011 000a 1A00     		movs	r2, r3
ARM GAS  /tmp/ccJs7hvj.s 			page 135


 5012              	.LVL634:
1327:libscpi/src/parser.c ****     scpi_parameter_t param;
 5013              		.loc 1 1327 5 is_stmt 1 view .LVU1257
1328:libscpi/src/parser.c **** 
 5014              		.loc 1 1328 5 view .LVU1258
1330:libscpi/src/parser.c ****         SCPI_ErrorPush(context, SCPI_ERROR_SYSTEM_ERROR);
 5015              		.loc 1 1330 5 view .LVU1259
1330:libscpi/src/parser.c ****         SCPI_ErrorPush(context, SCPI_ERROR_SYSTEM_ERROR);
 5016              		.loc 1 1330 8 is_stmt 0 view .LVU1260
 5017 000c 0029     		cmp	r1, #0
 5018 000e 08D0     		beq	.L311
1330:libscpi/src/parser.c ****         SCPI_ErrorPush(context, SCPI_ERROR_SYSTEM_ERROR);
 5019              		.loc 1 1330 18 discriminator 1 view .LVU1261
 5020 0010 002E     		cmp	r6, #0
 5021 0012 06D0     		beq	.L311
1335:libscpi/src/parser.c ****     if (result) {
 5022              		.loc 1 1335 5 is_stmt 1 view .LVU1262
1335:libscpi/src/parser.c ****     if (result) {
 5023              		.loc 1 1335 14 is_stmt 0 view .LVU1263
 5024 0014 01A9     		add	r1, sp, #4
 5025              	.LVL635:
1335:libscpi/src/parser.c ****     if (result) {
 5026              		.loc 1 1335 14 view .LVU1264
 5027 0016 FFF7FEFF 		bl	SCPI_Parameter
 5028              	.LVL636:
1336:libscpi/src/parser.c ****         result = SCPI_ParamToChoice(context, &param, options, value);
 5029              		.loc 1 1336 5 is_stmt 1 view .LVU1265
1336:libscpi/src/parser.c ****         result = SCPI_ParamToChoice(context, &param, options, value);
 5030              		.loc 1 1336 8 is_stmt 0 view .LVU1266
 5031 001a 0028     		cmp	r0, #0
 5032 001c 07D1     		bne	.L314
 5033              	.LVL637:
 5034              	.L313:
1341:libscpi/src/parser.c **** 
 5035              		.loc 1 1341 1 view .LVU1267
 5036 001e 04B0     		add	sp, sp, #16
 5037              		@ sp needed
 5038              	.LVL638:
 5039              	.LVL639:
 5040              	.LVL640:
1341:libscpi/src/parser.c **** 
 5041              		.loc 1 1341 1 view .LVU1268
 5042 0020 70BD     		pop	{r4, r5, r6, pc}
 5043              	.LVL641:
 5044              	.L311:
1331:libscpi/src/parser.c ****         return FALSE;
 5045              		.loc 1 1331 9 is_stmt 1 view .LVU1269
 5046 0022 0649     		ldr	r1, .L315
 5047              	.LVL642:
1331:libscpi/src/parser.c ****         return FALSE;
 5048              		.loc 1 1331 9 is_stmt 0 view .LVU1270
 5049 0024 2800     		movs	r0, r5
 5050              	.LVL643:
1331:libscpi/src/parser.c ****         return FALSE;
 5051              		.loc 1 1331 9 view .LVU1271
 5052 0026 FFF7FEFF 		bl	SCPI_ErrorPush
 5053              	.LVL644:
ARM GAS  /tmp/ccJs7hvj.s 			page 136


1332:libscpi/src/parser.c ****     }
 5054              		.loc 1 1332 9 is_stmt 1 view .LVU1272
1332:libscpi/src/parser.c ****     }
 5055              		.loc 1 1332 16 is_stmt 0 view .LVU1273
 5056 002a 0020     		movs	r0, #0
 5057 002c F7E7     		b	.L313
 5058              	.LVL645:
 5059              	.L314:
1337:libscpi/src/parser.c ****     }
 5060              		.loc 1 1337 9 is_stmt 1 view .LVU1274
1337:libscpi/src/parser.c ****     }
 5061              		.loc 1 1337 18 is_stmt 0 view .LVU1275
 5062 002e 3300     		movs	r3, r6
 5063 0030 2200     		movs	r2, r4
 5064 0032 01A9     		add	r1, sp, #4
 5065 0034 2800     		movs	r0, r5
 5066              	.LVL646:
1337:libscpi/src/parser.c ****     }
 5067              		.loc 1 1337 18 view .LVU1276
 5068 0036 FFF7FEFF 		bl	SCPI_ParamToChoice
 5069              	.LVL647:
1337:libscpi/src/parser.c ****     }
 5070              		.loc 1 1337 18 view .LVU1277
 5071 003a F0E7     		b	.L313
 5072              	.L316:
 5073              		.align	2
 5074              	.L315:
 5075 003c CAFEFFFF 		.word	-310
 5076              		.cfi_endproc
 5077              	.LFE51:
 5079              		.section	.text.scpiParser_parseAllProgramData,"ax",%progbits
 5080              		.align	1
 5081              		.global	scpiParser_parseAllProgramData
 5082              		.hidden	scpiParser_parseAllProgramData
 5083              		.syntax unified
 5084              		.code	16
 5085              		.thumb_func
 5086              		.fpu softvfp
 5088              	scpiParser_parseAllProgramData:
 5089              	.LVL648:
 5090              	.LFB53:
1388:libscpi/src/parser.c **** 
 5091              		.loc 1 1388 105 is_stmt 1 view -0
 5092              		.cfi_startproc
 5093              		@ args = 0, pretend = 0, frame = 16
 5094              		@ frame_needed = 0, uses_anonymous_args = 0
1388:libscpi/src/parser.c **** 
 5095              		.loc 1 1388 105 is_stmt 0 view .LVU1279
 5096 0000 F0B5     		push	{r4, r5, r6, r7, lr}
 5097              	.LCFI79:
 5098              		.cfi_def_cfa_offset 20
 5099              		.cfi_offset 4, -20
 5100              		.cfi_offset 5, -16
 5101              		.cfi_offset 6, -12
 5102              		.cfi_offset 7, -8
 5103              		.cfi_offset 14, -4
 5104 0002 C646     		mov	lr, r8
ARM GAS  /tmp/ccJs7hvj.s 			page 137


 5105 0004 00B5     		push	{lr}
 5106              	.LCFI80:
 5107              		.cfi_def_cfa_offset 24
 5108              		.cfi_offset 8, -24
 5109 0006 84B0     		sub	sp, sp, #16
 5110              	.LCFI81:
 5111              		.cfi_def_cfa_offset 40
 5112 0008 0500     		movs	r5, r0
 5113 000a 0C00     		movs	r4, r1
 5114 000c 9046     		mov	r8, r2
1390:libscpi/src/parser.c ****     scpi_token_t tmp;
 5115              		.loc 1 1390 5 is_stmt 1 view .LVU1280
1391:libscpi/src/parser.c ****     int paramCount = 0;
 5116              		.loc 1 1391 5 view .LVU1281
1392:libscpi/src/parser.c **** 
 5117              		.loc 1 1392 5 view .LVU1282
 5118              	.LVL649:
1394:libscpi/src/parser.c ****     token->type = SCPI_TOKEN_ALL_PROGRAM_DATA;
 5119              		.loc 1 1394 5 view .LVU1283
1394:libscpi/src/parser.c ****     token->type = SCPI_TOKEN_ALL_PROGRAM_DATA;
 5120              		.loc 1 1394 16 is_stmt 0 view .LVU1284
 5121 000e 0123     		movs	r3, #1
 5122 0010 5B42     		rsbs	r3, r3, #0
 5123 0012 8B60     		str	r3, [r1, #8]
1395:libscpi/src/parser.c ****     token->ptr = state->pos;
 5124              		.loc 1 1395 5 is_stmt 1 view .LVU1285
1395:libscpi/src/parser.c ****     token->ptr = state->pos;
 5125              		.loc 1 1395 17 is_stmt 0 view .LVU1286
 5126 0014 1933     		adds	r3, r3, #25
 5127 0016 0B70     		strb	r3, [r1]
1396:libscpi/src/parser.c **** 
 5128              		.loc 1 1396 5 is_stmt 1 view .LVU1287
1396:libscpi/src/parser.c **** 
 5129              		.loc 1 1396 16 is_stmt 0 view .LVU1288
 5130 0018 4368     		ldr	r3, [r0, #4]
 5131 001a 4B60     		str	r3, [r1, #4]
1399:libscpi/src/parser.c ****         token->len += result;
 5132              		.loc 1 1399 5 is_stmt 1 view .LVU1289
 5133              	.LVL650:
1392:libscpi/src/parser.c **** 
 5134              		.loc 1 1392 9 is_stmt 0 view .LVU1290
 5135 001c 0026     		movs	r6, #0
1399:libscpi/src/parser.c ****         token->len += result;
 5136              		.loc 1 1399 17 view .LVU1291
 5137 001e 0120     		movs	r0, #1
 5138              	.LVL651:
 5139              	.L318:
1399:libscpi/src/parser.c ****         token->len += result;
 5140              		.loc 1 1399 22 is_stmt 1 discriminator 1 view .LVU1292
1399:libscpi/src/parser.c ****         token->len += result;
 5141              		.loc 1 1399 5 is_stmt 0 discriminator 1 view .LVU1293
 5142 0020 0028     		cmp	r0, #0
 5143 0022 1BD0     		beq	.L320
1400:libscpi/src/parser.c **** 
 5144              		.loc 1 1400 9 is_stmt 1 view .LVU1294
1400:libscpi/src/parser.c **** 
 5145              		.loc 1 1400 20 is_stmt 0 view .LVU1295
ARM GAS  /tmp/ccJs7hvj.s 			page 138


 5146 0024 A368     		ldr	r3, [r4, #8]
 5147 0026 9C46     		mov	ip, r3
 5148 0028 6044     		add	r0, r0, ip
 5149              	.LVL652:
1400:libscpi/src/parser.c **** 
 5150              		.loc 1 1400 20 view .LVU1296
 5151 002a A060     		str	r0, [r4, #8]
1402:libscpi/src/parser.c ****             token->type = SCPI_TOKEN_UNKNOWN;
 5152              		.loc 1 1402 9 is_stmt 1 view .LVU1297
1409:libscpi/src/parser.c ****         if (tmp.type != SCPI_TOKEN_UNKNOWN) {
 5153              		.loc 1 1409 9 view .LVU1298
1409:libscpi/src/parser.c ****         if (tmp.type != SCPI_TOKEN_UNKNOWN) {
 5154              		.loc 1 1409 18 is_stmt 0 view .LVU1299
 5155 002c 01AF     		add	r7, sp, #4
 5156 002e 3900     		movs	r1, r7
 5157 0030 2800     		movs	r0, r5
 5158 0032 FFF7FEFF 		bl	scpiParser_parseProgramData
 5159              	.LVL653:
1410:libscpi/src/parser.c ****             token->len += result;
 5160              		.loc 1 1410 9 is_stmt 1 view .LVU1300
1410:libscpi/src/parser.c ****             token->len += result;
 5161              		.loc 1 1410 16 is_stmt 0 view .LVU1301
 5162 0036 3B78     		ldrb	r3, [r7]
1410:libscpi/src/parser.c ****             token->len += result;
 5163              		.loc 1 1410 12 view .LVU1302
 5164 0038 1A2B     		cmp	r3, #26
 5165 003a 09D0     		beq	.L319
1411:libscpi/src/parser.c ****         } else {
 5166              		.loc 1 1411 13 is_stmt 1 view .LVU1303
1411:libscpi/src/parser.c ****         } else {
 5167              		.loc 1 1411 24 is_stmt 0 view .LVU1304
 5168 003c A368     		ldr	r3, [r4, #8]
 5169 003e 9C46     		mov	ip, r3
 5170 0040 6044     		add	r0, r0, ip
 5171              	.LVL654:
1411:libscpi/src/parser.c ****         } else {
 5172              		.loc 1 1411 24 view .LVU1305
 5173 0042 A060     		str	r0, [r4, #8]
1418:libscpi/src/parser.c ****     }
 5174              		.loc 1 1418 9 is_stmt 1 view .LVU1306
1418:libscpi/src/parser.c ****     }
 5175              		.loc 1 1418 19 is_stmt 0 view .LVU1307
 5176 0044 0136     		adds	r6, r6, #1
 5177              	.LVL655:
1399:libscpi/src/parser.c ****         token->len += result;
 5178              		.loc 1 1399 35 is_stmt 1 view .LVU1308
1399:libscpi/src/parser.c ****         token->len += result;
 5179              		.loc 1 1399 44 is_stmt 0 view .LVU1309
 5180 0046 01A9     		add	r1, sp, #4
 5181 0048 2800     		movs	r0, r5
 5182 004a FFF7FEFF 		bl	scpiLex_Comma
 5183              	.LVL656:
1399:libscpi/src/parser.c ****         token->len += result;
 5184              		.loc 1 1399 44 view .LVU1310
 5185 004e E7E7     		b	.L318
 5186              	.L319:
1413:libscpi/src/parser.c ****             token->len = 0;
ARM GAS  /tmp/ccJs7hvj.s 			page 139


 5187              		.loc 1 1413 13 is_stmt 1 view .LVU1311
1413:libscpi/src/parser.c ****             token->len = 0;
 5188              		.loc 1 1413 25 is_stmt 0 view .LVU1312
 5189 0050 1A23     		movs	r3, #26
 5190 0052 2370     		strb	r3, [r4]
1414:libscpi/src/parser.c ****             paramCount = -1;
 5191              		.loc 1 1414 13 is_stmt 1 view .LVU1313
1414:libscpi/src/parser.c ****             paramCount = -1;
 5192              		.loc 1 1414 24 is_stmt 0 view .LVU1314
 5193 0054 0023     		movs	r3, #0
 5194 0056 A360     		str	r3, [r4, #8]
1415:libscpi/src/parser.c ****             break;
 5195              		.loc 1 1415 13 is_stmt 1 view .LVU1315
 5196              	.LVL657:
1416:libscpi/src/parser.c ****         }
 5197              		.loc 1 1416 13 view .LVU1316
1415:libscpi/src/parser.c ****             break;
 5198              		.loc 1 1415 24 is_stmt 0 view .LVU1317
 5199 0058 0126     		movs	r6, #1
 5200 005a 7642     		rsbs	r6, r6, #0
 5201              	.LVL658:
 5202              	.L320:
1421:libscpi/src/parser.c ****         token->len = 0;
 5203              		.loc 1 1421 5 is_stmt 1 view .LVU1318
1421:libscpi/src/parser.c ****         token->len = 0;
 5204              		.loc 1 1421 8 is_stmt 0 view .LVU1319
 5205 005c A368     		ldr	r3, [r4, #8]
 5206 005e 0133     		adds	r3, r3, #1
 5207 0060 08D0     		beq	.L324
 5208              	.L322:
1425:libscpi/src/parser.c ****         *numberOfParameters = paramCount;
 5209              		.loc 1 1425 5 is_stmt 1 view .LVU1320
1425:libscpi/src/parser.c ****         *numberOfParameters = paramCount;
 5210              		.loc 1 1425 8 is_stmt 0 view .LVU1321
 5211 0062 4346     		mov	r3, r8
 5212 0064 002B     		cmp	r3, #0
 5213 0066 00D0     		beq	.L323
 5214              	.LVL659:
1426:libscpi/src/parser.c ****     }
 5215              		.loc 1 1426 9 is_stmt 1 view .LVU1322
1426:libscpi/src/parser.c ****     }
 5216              		.loc 1 1426 29 is_stmt 0 view .LVU1323
 5217 0068 1E60     		str	r6, [r3]
 5218              	.L323:
1428:libscpi/src/parser.c **** }
 5219              		.loc 1 1428 5 is_stmt 1 view .LVU1324
1428:libscpi/src/parser.c **** }
 5220              		.loc 1 1428 17 is_stmt 0 view .LVU1325
 5221 006a A068     		ldr	r0, [r4, #8]
 5222              	.LVL660:
1429:libscpi/src/parser.c **** 
 5223              		.loc 1 1429 1 view .LVU1326
 5224 006c 04B0     		add	sp, sp, #16
 5225              		@ sp needed
 5226              	.LVL661:
 5227              	.LVL662:
 5228              	.LVL663:
ARM GAS  /tmp/ccJs7hvj.s 			page 140


1429:libscpi/src/parser.c **** 
 5229              		.loc 1 1429 1 view .LVU1327
 5230 006e 04BC     		pop	{r2}
 5231 0070 9046     		mov	r8, r2
 5232 0072 F0BD     		pop	{r4, r5, r6, r7, pc}
 5233              	.LVL664:
 5234              	.L324:
1422:libscpi/src/parser.c ****     }
 5235              		.loc 1 1422 9 is_stmt 1 view .LVU1328
1422:libscpi/src/parser.c ****     }
 5236              		.loc 1 1422 20 is_stmt 0 view .LVU1329
 5237 0074 0023     		movs	r3, #0
 5238 0076 A360     		str	r3, [r4, #8]
 5239 0078 F3E7     		b	.L322
 5240              		.cfi_endproc
 5241              	.LFE53:
 5243              		.section	.text.scpiParser_detectProgramMessageUnit,"ax",%progbits
 5244              		.align	1
 5245              		.global	scpiParser_detectProgramMessageUnit
 5246              		.hidden	scpiParser_detectProgramMessageUnit
 5247              		.syntax unified
 5248              		.code	16
 5249              		.thumb_func
 5250              		.fpu softvfp
 5252              	scpiParser_detectProgramMessageUnit:
 5253              	.LVL665:
 5254              	.LFB54:
1438:libscpi/src/parser.c ****     lex_state_t lex_state;
 5255              		.loc 1 1438 94 is_stmt 1 view -0
 5256              		.cfi_startproc
 5257              		@ args = 0, pretend = 0, frame = 32
 5258              		@ frame_needed = 0, uses_anonymous_args = 0
1438:libscpi/src/parser.c ****     lex_state_t lex_state;
 5259              		.loc 1 1438 94 is_stmt 0 view .LVU1331
 5260 0000 30B5     		push	{r4, r5, lr}
 5261              	.LCFI82:
 5262              		.cfi_def_cfa_offset 12
 5263              		.cfi_offset 4, -12
 5264              		.cfi_offset 5, -8
 5265              		.cfi_offset 14, -4
 5266 0002 89B0     		sub	sp, sp, #36
 5267              	.LCFI83:
 5268              		.cfi_def_cfa_offset 48
 5269 0004 0400     		movs	r4, r0
1439:libscpi/src/parser.c ****     scpi_token_t tmp;
 5270              		.loc 1 1439 5 is_stmt 1 view .LVU1332
1440:libscpi/src/parser.c ****     int result = 0;
 5271              		.loc 1 1440 5 view .LVU1333
1441:libscpi/src/parser.c **** 
 5272              		.loc 1 1441 5 view .LVU1334
 5273              	.LVL666:
1443:libscpi/src/parser.c ****     lex_state.len = len;
 5274              		.loc 1 1443 5 view .LVU1335
1443:libscpi/src/parser.c ****     lex_state.len = len;
 5275              		.loc 1 1443 38 is_stmt 0 view .LVU1336
 5276 0006 0691     		str	r1, [sp, #24]
1443:libscpi/src/parser.c ****     lex_state.len = len;
ARM GAS  /tmp/ccJs7hvj.s 			page 141


 5277              		.loc 1 1443 22 view .LVU1337
 5278 0008 0591     		str	r1, [sp, #20]
1444:libscpi/src/parser.c ****     state->numberOfParameters = 0;
 5279              		.loc 1 1444 5 is_stmt 1 view .LVU1338
1444:libscpi/src/parser.c ****     state->numberOfParameters = 0;
 5280              		.loc 1 1444 19 is_stmt 0 view .LVU1339
 5281 000a 0792     		str	r2, [sp, #28]
1445:libscpi/src/parser.c **** 
 5282              		.loc 1 1445 5 is_stmt 1 view .LVU1340
1445:libscpi/src/parser.c **** 
 5283              		.loc 1 1445 31 is_stmt 0 view .LVU1341
 5284 000c 0023     		movs	r3, #0
 5285 000e 8361     		str	r3, [r0, #24]
1448:libscpi/src/parser.c **** 
 5286              		.loc 1 1448 5 is_stmt 1 view .LVU1342
 5287 0010 02A9     		add	r1, sp, #8
 5288              	.LVL667:
1448:libscpi/src/parser.c **** 
 5289              		.loc 1 1448 5 is_stmt 0 view .LVU1343
 5290 0012 05A8     		add	r0, sp, #20
 5291              	.LVL668:
1448:libscpi/src/parser.c **** 
 5292              		.loc 1 1448 5 view .LVU1344
 5293 0014 FFF7FEFF 		bl	scpiLex_WhiteSpace
 5294              	.LVL669:
1450:libscpi/src/parser.c ****         if (scpiLex_WhiteSpace(&lex_state, &tmp) > 0) {
 5295              		.loc 1 1450 5 is_stmt 1 view .LVU1345
1450:libscpi/src/parser.c ****         if (scpiLex_WhiteSpace(&lex_state, &tmp) > 0) {
 5296              		.loc 1 1450 9 is_stmt 0 view .LVU1346
 5297 0018 2100     		movs	r1, r4
 5298 001a 05A8     		add	r0, sp, #20
 5299 001c FFF7FEFF 		bl	scpiLex_ProgramHeader
 5300              	.LVL670:
1450:libscpi/src/parser.c ****         if (scpiLex_WhiteSpace(&lex_state, &tmp) > 0) {
 5301              		.loc 1 1450 8 view .LVU1347
 5302 0020 0028     		cmp	r0, #0
 5303 0022 13DB     		blt	.L326
1451:libscpi/src/parser.c ****             scpiParser_parseAllProgramData(&lex_state, &state->programData, &state->numberOfParamet
 5304              		.loc 1 1451 9 is_stmt 1 view .LVU1348
1451:libscpi/src/parser.c ****             scpiParser_parseAllProgramData(&lex_state, &state->programData, &state->numberOfParamet
 5305              		.loc 1 1451 13 is_stmt 0 view .LVU1349
 5306 0024 02A9     		add	r1, sp, #8
 5307 0026 05A8     		add	r0, sp, #20
 5308 0028 FFF7FEFF 		bl	scpiLex_WhiteSpace
 5309              	.LVL671:
1451:libscpi/src/parser.c ****             scpiParser_parseAllProgramData(&lex_state, &state->programData, &state->numberOfParamet
 5310              		.loc 1 1451 12 view .LVU1350
 5311 002c 0028     		cmp	r0, #0
 5312 002e 07DD     		ble	.L327
1452:libscpi/src/parser.c ****         } else {
 5313              		.loc 1 1452 13 is_stmt 1 view .LVU1351
 5314 0030 2200     		movs	r2, r4
 5315 0032 1832     		adds	r2, r2, #24
 5316 0034 2100     		movs	r1, r4
 5317 0036 0C31     		adds	r1, r1, #12
 5318 0038 05A8     		add	r0, sp, #20
 5319 003a FFF7FEFF 		bl	scpiParser_parseAllProgramData
ARM GAS  /tmp/ccJs7hvj.s 			page 142


 5320              	.LVL672:
 5321 003e 0EE0     		b	.L328
 5322              	.L327:
1454:libscpi/src/parser.c ****         }
 5323              		.loc 1 1454 13 view .LVU1352
 5324 0040 2000     		movs	r0, r4
 5325 0042 0C30     		adds	r0, r0, #12
 5326 0044 0699     		ldr	r1, [sp, #24]
 5327 0046 FFF7FEFF 		bl	invalidateToken
 5328              	.LVL673:
 5329 004a 08E0     		b	.L328
 5330              	.L326:
1457:libscpi/src/parser.c ****         invalidateToken(&state->programData, lex_state.buffer);
 5331              		.loc 1 1457 9 view .LVU1353
 5332 004c 0599     		ldr	r1, [sp, #20]
 5333 004e 2000     		movs	r0, r4
 5334 0050 FFF7FEFF 		bl	invalidateToken
 5335              	.LVL674:
1458:libscpi/src/parser.c ****     }
 5336              		.loc 1 1458 9 view .LVU1354
 5337 0054 2000     		movs	r0, r4
 5338 0056 0C30     		adds	r0, r0, #12
 5339 0058 0599     		ldr	r1, [sp, #20]
 5340 005a FFF7FEFF 		bl	invalidateToken
 5341              	.LVL675:
 5342              	.L328:
1461:libscpi/src/parser.c ****     if (result == 0) result = scpiLex_Semicolon(&lex_state, &tmp);
 5343              		.loc 1 1461 5 view .LVU1355
1461:libscpi/src/parser.c ****     if (result == 0) result = scpiLex_Semicolon(&lex_state, &tmp);
 5344              		.loc 1 1461 22 view .LVU1356
1461:libscpi/src/parser.c ****     if (result == 0) result = scpiLex_Semicolon(&lex_state, &tmp);
 5345              		.loc 1 1461 31 is_stmt 0 view .LVU1357
 5346 005e 02A9     		add	r1, sp, #8
 5347 0060 05A8     		add	r0, sp, #20
 5348 0062 FFF7FEFF 		bl	scpiLex_NewLine
 5349              	.LVL676:
 5350 0066 051E     		subs	r5, r0, #0
 5351              	.LVL677:
1462:libscpi/src/parser.c **** 
 5352              		.loc 1 1462 5 is_stmt 1 view .LVU1358
1462:libscpi/src/parser.c **** 
 5353              		.loc 1 1462 8 is_stmt 0 view .LVU1359
 5354 0068 13D0     		beq	.L334
 5355              	.L329:
1464:libscpi/src/parser.c ****         lex_state.pos++;
 5356              		.loc 1 1464 5 is_stmt 1 view .LVU1360
1464:libscpi/src/parser.c ****         lex_state.pos++;
 5357              		.loc 1 1464 10 is_stmt 0 view .LVU1361
 5358 006a 05A8     		add	r0, sp, #20
 5359              	.LVL678:
1464:libscpi/src/parser.c ****         lex_state.pos++;
 5360              		.loc 1 1464 10 view .LVU1362
 5361 006c FFF7FEFF 		bl	scpiLex_IsEos
 5362              	.LVL679:
1464:libscpi/src/parser.c ****         lex_state.pos++;
 5363              		.loc 1 1464 8 view .LVU1363
 5364 0070 0028     		cmp	r0, #0
ARM GAS  /tmp/ccJs7hvj.s 			page 143


 5365 0072 01D1     		bne	.L330
1464:libscpi/src/parser.c ****         lex_state.pos++;
 5366              		.loc 1 1464 36 discriminator 1 view .LVU1364
 5367 0074 002D     		cmp	r5, #0
 5368 0076 12D0     		beq	.L335
 5369              	.L330:
1473:libscpi/src/parser.c ****         state->termination = SCPI_MESSAGE_TERMINATION_SEMICOLON;
 5370              		.loc 1 1473 5 is_stmt 1 view .LVU1365
1473:libscpi/src/parser.c ****         state->termination = SCPI_MESSAGE_TERMINATION_SEMICOLON;
 5371              		.loc 1 1473 36 is_stmt 0 view .LVU1366
 5372 0078 02AB     		add	r3, sp, #8
 5373 007a 1B78     		ldrb	r3, [r3]
1473:libscpi/src/parser.c ****         state->termination = SCPI_MESSAGE_TERMINATION_SEMICOLON;
 5374              		.loc 1 1473 8 view .LVU1367
 5375 007c 012B     		cmp	r3, #1
 5376 007e 1CD0     		beq	.L336
1475:libscpi/src/parser.c ****         state->termination = SCPI_MESSAGE_TERMINATION_NL;
 5377              		.loc 1 1475 12 is_stmt 1 view .LVU1368
1475:libscpi/src/parser.c ****         state->termination = SCPI_MESSAGE_TERMINATION_NL;
 5378              		.loc 1 1475 15 is_stmt 0 view .LVU1369
 5379 0080 052B     		cmp	r3, #5
 5380 0082 1DD0     		beq	.L337
1478:libscpi/src/parser.c ****     }
 5381              		.loc 1 1478 9 is_stmt 1 view .LVU1370
1478:libscpi/src/parser.c ****     }
 5382              		.loc 1 1478 28 is_stmt 0 view .LVU1371
 5383 0084 0023     		movs	r3, #0
 5384 0086 2377     		strb	r3, [r4, #28]
 5385              	.L332:
1481:libscpi/src/parser.c **** }
 5386              		.loc 1 1481 5 is_stmt 1 view .LVU1372
1481:libscpi/src/parser.c **** }
 5387              		.loc 1 1481 26 is_stmt 0 view .LVU1373
 5388 0088 069B     		ldr	r3, [sp, #24]
 5389 008a 059A     		ldr	r2, [sp, #20]
 5390 008c 981A     		subs	r0, r3, r2
1482:libscpi/src/parser.c **** 
 5391              		.loc 1 1482 1 view .LVU1374
 5392 008e 09B0     		add	sp, sp, #36
 5393              		@ sp needed
 5394              	.LVL680:
 5395              	.LVL681:
1482:libscpi/src/parser.c **** 
 5396              		.loc 1 1482 1 view .LVU1375
 5397 0090 30BD     		pop	{r4, r5, pc}
 5398              	.LVL682:
 5399              	.L334:
1462:libscpi/src/parser.c **** 
 5400              		.loc 1 1462 22 is_stmt 1 discriminator 1 view .LVU1376
1462:libscpi/src/parser.c **** 
 5401              		.loc 1 1462 31 is_stmt 0 discriminator 1 view .LVU1377
 5402 0092 02A9     		add	r1, sp, #8
 5403 0094 05A8     		add	r0, sp, #20
 5404              	.LVL683:
1462:libscpi/src/parser.c **** 
 5405              		.loc 1 1462 31 discriminator 1 view .LVU1378
 5406 0096 FFF7FEFF 		bl	scpiLex_Semicolon
ARM GAS  /tmp/ccJs7hvj.s 			page 144


 5407              	.LVL684:
 5408 009a 0500     		movs	r5, r0
 5409              	.LVL685:
1462:libscpi/src/parser.c **** 
 5410              		.loc 1 1462 31 discriminator 1 view .LVU1379
 5411 009c E5E7     		b	.L329
 5412              	.LVL686:
 5413              	.L335:
1465:libscpi/src/parser.c **** 
 5414              		.loc 1 1465 9 is_stmt 1 view .LVU1380
1465:libscpi/src/parser.c **** 
 5415              		.loc 1 1465 18 is_stmt 0 view .LVU1381
 5416 009e 069B     		ldr	r3, [sp, #24]
 5417 00a0 0193     		str	r3, [sp, #4]
1465:libscpi/src/parser.c **** 
 5418              		.loc 1 1465 22 view .LVU1382
 5419 00a2 0133     		adds	r3, r3, #1
 5420 00a4 0693     		str	r3, [sp, #24]
1467:libscpi/src/parser.c ****         state->programHeader.type = SCPI_TOKEN_INVALID;
 5421              		.loc 1 1467 9 is_stmt 1 view .LVU1383
1467:libscpi/src/parser.c ****         state->programHeader.type = SCPI_TOKEN_INVALID;
 5422              		.loc 1 1467 34 is_stmt 0 view .LVU1384
 5423 00a6 0123     		movs	r3, #1
 5424 00a8 A360     		str	r3, [r4, #8]
1468:libscpi/src/parser.c **** 
 5425              		.loc 1 1468 9 is_stmt 1 view .LVU1385
1468:libscpi/src/parser.c **** 
 5426              		.loc 1 1468 35 is_stmt 0 view .LVU1386
 5427 00aa 1833     		adds	r3, r3, #24
 5428 00ac 2370     		strb	r3, [r4]
1470:libscpi/src/parser.c ****     }
 5429              		.loc 1 1470 9 is_stmt 1 view .LVU1387
 5430 00ae 2000     		movs	r0, r4
 5431 00b0 0C30     		adds	r0, r0, #12
 5432 00b2 0599     		ldr	r1, [sp, #20]
 5433 00b4 FFF7FEFF 		bl	invalidateToken
 5434              	.LVL687:
 5435 00b8 DEE7     		b	.L330
 5436              	.L336:
1474:libscpi/src/parser.c ****     } else if (SCPI_TOKEN_NL == tmp.type) {
 5437              		.loc 1 1474 9 view .LVU1388
1474:libscpi/src/parser.c ****     } else if (SCPI_TOKEN_NL == tmp.type) {
 5438              		.loc 1 1474 28 is_stmt 0 view .LVU1389
 5439 00ba 0133     		adds	r3, r3, #1
 5440 00bc 2377     		strb	r3, [r4, #28]
 5441 00be E3E7     		b	.L332
 5442              	.L337:
1476:libscpi/src/parser.c ****     } else {
 5443              		.loc 1 1476 9 is_stmt 1 view .LVU1390
1476:libscpi/src/parser.c ****     } else {
 5444              		.loc 1 1476 28 is_stmt 0 view .LVU1391
 5445 00c0 043B     		subs	r3, r3, #4
 5446 00c2 2377     		strb	r3, [r4, #28]
 5447 00c4 E0E7     		b	.L332
 5448              		.cfi_endproc
 5449              	.LFE54:
 5451              		.section	.text.SCPI_Parse,"ax",%progbits
ARM GAS  /tmp/ccJs7hvj.s 			page 145


 5452              		.align	1
 5453              		.global	SCPI_Parse
 5454              		.syntax unified
 5455              		.code	16
 5456              		.thumb_func
 5457              		.fpu softvfp
 5459              	SCPI_Parse:
 5460              	.LVL688:
 5461              	.LFB7:
 188:libscpi/src/parser.c ****     scpi_bool_t result = TRUE;
 5462              		.loc 1 188 64 is_stmt 1 view -0
 5463              		.cfi_startproc
 5464              		@ args = 0, pretend = 0, frame = 16
 5465              		@ frame_needed = 0, uses_anonymous_args = 0
 188:libscpi/src/parser.c ****     scpi_bool_t result = TRUE;
 5466              		.loc 1 188 64 is_stmt 0 view .LVU1393
 5467 0000 F0B5     		push	{r4, r5, r6, r7, lr}
 5468              	.LCFI84:
 5469              		.cfi_def_cfa_offset 20
 5470              		.cfi_offset 4, -20
 5471              		.cfi_offset 5, -16
 5472              		.cfi_offset 6, -12
 5473              		.cfi_offset 7, -8
 5474              		.cfi_offset 14, -4
 5475 0002 D646     		mov	lr, r10
 5476 0004 4F46     		mov	r7, r9
 5477 0006 4646     		mov	r6, r8
 5478 0008 C0B5     		push	{r6, r7, lr}
 5479              	.LCFI85:
 5480              		.cfi_def_cfa_offset 32
 5481              		.cfi_offset 8, -32
 5482              		.cfi_offset 9, -28
 5483              		.cfi_offset 10, -24
 5484 000a 84B0     		sub	sp, sp, #16
 5485              	.LCFI86:
 5486              		.cfi_def_cfa_offset 48
 5487 000c 0400     		movs	r4, r0
 5488 000e 0E00     		movs	r6, r1
 5489 0010 9246     		mov	r10, r2
 189:libscpi/src/parser.c ****     scpi_parser_state_t * state;
 5490              		.loc 1 189 5 is_stmt 1 view .LVU1394
 5491              	.LVL689:
 190:libscpi/src/parser.c ****     int r;
 5492              		.loc 1 190 5 view .LVU1395
 191:libscpi/src/parser.c ****     scpi_token_t cmd_prev = {SCPI_TOKEN_UNKNOWN, NULL, 0};
 5493              		.loc 1 191 5 view .LVU1396
 192:libscpi/src/parser.c **** 
 5494              		.loc 1 192 5 view .LVU1397
 192:libscpi/src/parser.c **** 
 5495              		.loc 1 192 18 is_stmt 0 view .LVU1398
 5496 0012 01AB     		add	r3, sp, #4
 5497 0014 1A22     		movs	r2, #26
 5498              	.LVL690:
 192:libscpi/src/parser.c **** 
 5499              		.loc 1 192 18 view .LVU1399
 5500 0016 1A70     		strb	r2, [r3]
 5501 0018 0022     		movs	r2, #0
ARM GAS  /tmp/ccJs7hvj.s 			page 146


 5502 001a 0292     		str	r2, [sp, #8]
 5503 001c 0392     		str	r2, [sp, #12]
 194:libscpi/src/parser.c ****         return FALSE;
 5504              		.loc 1 194 5 is_stmt 1 view .LVU1400
 194:libscpi/src/parser.c ****         return FALSE;
 5505              		.loc 1 194 8 is_stmt 0 view .LVU1401
 5506 001e 0028     		cmp	r0, #0
 5507 0020 64D0     		beq	.L347
 198:libscpi/src/parser.c ****     context->output_count = 0;
 5508              		.loc 1 198 5 is_stmt 1 view .LVU1402
 198:libscpi/src/parser.c ****     context->output_count = 0;
 5509              		.loc 1 198 11 is_stmt 0 view .LVU1403
 5510 0022 6423     		movs	r3, #100
 5511 0024 9946     		mov	r9, r3
 5512 0026 8144     		add	r9, r9, r0
 5513              	.LVL691:
 199:libscpi/src/parser.c **** 
 5514              		.loc 1 199 5 is_stmt 1 view .LVU1404
 199:libscpi/src/parser.c **** 
 5515              		.loc 1 199 27 is_stmt 0 view .LVU1405
 5516 0028 0023     		movs	r3, #0
 5517 002a 0363     		str	r3, [r0, #48]
 189:libscpi/src/parser.c ****     scpi_parser_state_t * state;
 5518              		.loc 1 189 17 view .LVU1406
 5519 002c 0133     		adds	r3, r3, #1
 5520 002e 9846     		mov	r8, r3
 5521 0030 0CE0     		b	.L346
 5522              	.LVL692:
 5523              	.L350:
 205:libscpi/src/parser.c ****             result = FALSE;
 5524              		.loc 1 205 13 is_stmt 1 view .LVU1407
 5525 0032 6521     		movs	r1, #101
 5526 0034 4942     		rsbs	r1, r1, #0
 5527 0036 2000     		movs	r0, r4
 5528              	.LVL693:
 205:libscpi/src/parser.c ****             result = FALSE;
 5529              		.loc 1 205 13 is_stmt 0 view .LVU1408
 5530 0038 FFF7FEFF 		bl	SCPI_ErrorPush
 5531              	.LVL694:
 206:libscpi/src/parser.c ****         } else if (state->programHeader.len > 0) {
 5532              		.loc 1 206 13 is_stmt 1 view .LVU1409
 206:libscpi/src/parser.c ****         } else if (state->programHeader.len > 0) {
 5533              		.loc 1 206 20 is_stmt 0 view .LVU1410
 5534 003c 0023     		movs	r3, #0
 5535 003e 9846     		mov	r8, r3
 5536              	.LVL695:
 5537              	.L341:
 232:libscpi/src/parser.c ****             data += r;
 5538              		.loc 1 232 9 is_stmt 1 view .LVU1411
 232:libscpi/src/parser.c ****             data += r;
 5539              		.loc 1 232 12 is_stmt 0 view .LVU1412
 5540 0040 AA45     		cmp	r10, r5
 5541 0042 49DD     		ble	.L345
 233:libscpi/src/parser.c ****             len -= r;
 5542              		.loc 1 233 13 is_stmt 1 view .LVU1413
 233:libscpi/src/parser.c ****             len -= r;
 5543              		.loc 1 233 18 is_stmt 0 view .LVU1414
ARM GAS  /tmp/ccJs7hvj.s 			page 147


 5544 0044 7619     		adds	r6, r6, r5
 5545              	.LVL696:
 234:libscpi/src/parser.c ****         } else {
 5546              		.loc 1 234 13 is_stmt 1 view .LVU1415
 234:libscpi/src/parser.c ****         } else {
 5547              		.loc 1 234 17 is_stmt 0 view .LVU1416
 5548 0046 5346     		mov	r3, r10
 5549 0048 5B1B     		subs	r3, r3, r5
 5550 004a 9A46     		mov	r10, r3
 5551              	.LVL697:
 201:libscpi/src/parser.c ****         r = scpiParser_detectProgramMessageUnit(state, data, len);
 5552              		.loc 1 201 11 is_stmt 1 view .LVU1417
 5553              	.L346:
 201:libscpi/src/parser.c ****         r = scpiParser_detectProgramMessageUnit(state, data, len);
 5554              		.loc 1 201 5 view .LVU1418
 202:libscpi/src/parser.c **** 
 5555              		.loc 1 202 9 view .LVU1419
 202:libscpi/src/parser.c **** 
 5556              		.loc 1 202 13 is_stmt 0 view .LVU1420
 5557 004c 5246     		mov	r2, r10
 5558 004e 3100     		movs	r1, r6
 5559 0050 4846     		mov	r0, r9
 5560 0052 FFF7FEFF 		bl	scpiParser_detectProgramMessageUnit
 5561              	.LVL698:
 5562 0056 0500     		movs	r5, r0
 5563              	.LVL699:
 204:libscpi/src/parser.c ****             SCPI_ErrorPush(context, SCPI_ERROR_INVALID_CHARACTER);
 5564              		.loc 1 204 9 is_stmt 1 view .LVU1421
 204:libscpi/src/parser.c ****             SCPI_ErrorPush(context, SCPI_ERROR_INVALID_CHARACTER);
 5565              		.loc 1 204 33 is_stmt 0 view .LVU1422
 5566 0058 6423     		movs	r3, #100
 5567 005a E35C     		ldrb	r3, [r4, r3]
 204:libscpi/src/parser.c ****             SCPI_ErrorPush(context, SCPI_ERROR_INVALID_CHARACTER);
 5568              		.loc 1 204 12 view .LVU1423
 5569 005c 192B     		cmp	r3, #25
 5570 005e E8D0     		beq	.L350
 207:libscpi/src/parser.c **** 
 5571              		.loc 1 207 16 is_stmt 1 view .LVU1424
 207:libscpi/src/parser.c **** 
 5572              		.loc 1 207 19 is_stmt 0 view .LVU1425
 5573 0060 E36E     		ldr	r3, [r4, #108]
 5574 0062 002B     		cmp	r3, #0
 5575 0064 ECDD     		ble	.L341
 209:libscpi/src/parser.c **** 
 5576              		.loc 1 209 13 is_stmt 1 view .LVU1426
 5577 0066 2100     		movs	r1, r4
 5578 0068 6431     		adds	r1, r1, #100
 5579 006a 01A8     		add	r0, sp, #4
 5580              	.LVL700:
 209:libscpi/src/parser.c **** 
 5581              		.loc 1 209 13 is_stmt 0 view .LVU1427
 5582 006c FFF7FEFF 		bl	composeCompoundCommand
 5583              	.LVL701:
 211:libscpi/src/parser.c **** 
 5584              		.loc 1 211 13 is_stmt 1 view .LVU1428
 211:libscpi/src/parser.c **** 
 5585              		.loc 1 211 17 is_stmt 0 view .LVU1429
ARM GAS  /tmp/ccJs7hvj.s 			page 148


 5586 0070 E26E     		ldr	r2, [r4, #108]
 5587 0072 A16E     		ldr	r1, [r4, #104]
 5588 0074 2000     		movs	r0, r4
 5589 0076 FFF7FEFF 		bl	findCommandHeader
 5590              	.LVL702:
 5591 007a 071E     		subs	r7, r0, #0
 211:libscpi/src/parser.c **** 
 5592              		.loc 1 211 16 view .LVU1430
 5593 007c 17D0     		beq	.L342
 213:libscpi/src/parser.c ****                 context->param_list.lex_state.pos = context->param_list.lex_state.buffer;
 5594              		.loc 1 213 17 is_stmt 1 view .LVU1431
 213:libscpi/src/parser.c ****                 context->param_list.lex_state.pos = context->param_list.lex_state.buffer;
 5595              		.loc 1 213 74 is_stmt 0 view .LVU1432
 5596 007e 636F     		ldr	r3, [r4, #116]
 213:libscpi/src/parser.c ****                 context->param_list.lex_state.pos = context->param_list.lex_state.buffer;
 5597              		.loc 1 213 54 view .LVU1433
 5598 0080 6361     		str	r3, [r4, #20]
 214:libscpi/src/parser.c ****                 context->param_list.lex_state.len = state->programData.len;
 5599              		.loc 1 214 17 is_stmt 1 view .LVU1434
 214:libscpi/src/parser.c ****                 context->param_list.lex_state.len = state->programData.len;
 5600              		.loc 1 214 51 is_stmt 0 view .LVU1435
 5601 0082 A361     		str	r3, [r4, #24]
 215:libscpi/src/parser.c ****                 context->param_list.cmd_raw.data = state->programHeader.ptr;
 5602              		.loc 1 215 17 is_stmt 1 view .LVU1436
 215:libscpi/src/parser.c ****                 context->param_list.cmd_raw.data = state->programHeader.ptr;
 5603              		.loc 1 215 51 is_stmt 0 view .LVU1437
 5604 0084 A36F     		ldr	r3, [r4, #120]
 5605 0086 E361     		str	r3, [r4, #28]
 216:libscpi/src/parser.c ****                 context->param_list.cmd_raw.position = 0;
 5606              		.loc 1 216 17 is_stmt 1 view .LVU1438
 216:libscpi/src/parser.c ****                 context->param_list.cmd_raw.position = 0;
 5607              		.loc 1 216 50 is_stmt 0 view .LVU1439
 5608 0088 A36E     		ldr	r3, [r4, #104]
 5609 008a A362     		str	r3, [r4, #40]
 217:libscpi/src/parser.c ****                 context->param_list.cmd_raw.length = state->programHeader.len;
 5610              		.loc 1 217 17 is_stmt 1 view .LVU1440
 217:libscpi/src/parser.c ****                 context->param_list.cmd_raw.length = state->programHeader.len;
 5611              		.loc 1 217 54 is_stmt 0 view .LVU1441
 5612 008c 0023     		movs	r3, #0
 5613 008e 6362     		str	r3, [r4, #36]
 218:libscpi/src/parser.c **** 
 5614              		.loc 1 218 17 is_stmt 1 view .LVU1442
 218:libscpi/src/parser.c **** 
 5615              		.loc 1 218 52 is_stmt 0 view .LVU1443
 5616 0090 E36E     		ldr	r3, [r4, #108]
 5617 0092 2362     		str	r3, [r4, #32]
 220:libscpi/src/parser.c ****                 cmd_prev = state->programHeader;
 5618              		.loc 1 220 17 is_stmt 1 view .LVU1444
 220:libscpi/src/parser.c ****                 cmd_prev = state->programHeader;
 5619              		.loc 1 220 27 is_stmt 0 view .LVU1445
 5620 0094 2000     		movs	r0, r4
 5621 0096 FFF7FEFF 		bl	processCommand
 5622              	.LVL703:
 5623 009a 4346     		mov	r3, r8
 5624 009c 1840     		ands	r0, r3
 5625 009e C3B2     		uxtb	r3, r0
 5626 00a0 9846     		mov	r8, r3
ARM GAS  /tmp/ccJs7hvj.s 			page 149


 5627              	.LVL704:
 221:libscpi/src/parser.c ****             } else {
 5628              		.loc 1 221 17 is_stmt 1 view .LVU1446
 221:libscpi/src/parser.c ****             } else {
 5629              		.loc 1 221 26 is_stmt 0 view .LVU1447
 5630 00a2 01AA     		add	r2, sp, #4
 5631 00a4 2300     		movs	r3, r4
 5632 00a6 6433     		adds	r3, r3, #100
 5633 00a8 83CB     		ldmia	r3!, {r0, r1, r7}
 5634 00aa 83C2     		stmia	r2!, {r0, r1, r7}
 5635 00ac C8E7     		b	.L341
 5636              	.L342:
 5637              	.LBB9:
 225:libscpi/src/parser.c ****                 while (r2 > 0 && (data[r2 - 1] == '\r' || data[r2 - 1] == '\n')) r2--;
 5638              		.loc 1 225 17 is_stmt 1 view .LVU1448
 225:libscpi/src/parser.c ****                 while (r2 > 0 && (data[r2 - 1] == '\r' || data[r2 - 1] == '\n')) r2--;
 5639              		.loc 1 225 24 is_stmt 0 view .LVU1449
 5640 00ae 2B00     		movs	r3, r5
 5641              	.LVL705:
 226:libscpi/src/parser.c ****                 SCPI_ErrorPushEx(context, SCPI_ERROR_UNDEFINED_HEADER, data, r2);
 5642              		.loc 1 226 17 is_stmt 1 view .LVU1450
 226:libscpi/src/parser.c ****                 SCPI_ErrorPushEx(context, SCPI_ERROR_UNDEFINED_HEADER, data, r2);
 5643              		.loc 1 226 23 is_stmt 0 view .LVU1451
 5644 00b0 02E0     		b	.L344
 5645              	.L348:
 226:libscpi/src/parser.c ****                 SCPI_ErrorPushEx(context, SCPI_ERROR_UNDEFINED_HEADER, data, r2);
 5646              		.loc 1 226 23 view .LVU1452
 5647 00b2 0B00     		movs	r3, r1
 5648              	.LVL706:
 226:libscpi/src/parser.c ****                 SCPI_ErrorPushEx(context, SCPI_ERROR_UNDEFINED_HEADER, data, r2);
 5649              		.loc 1 226 23 view .LVU1453
 5650 00b4 00E0     		b	.L344
 5651              	.LVL707:
 5652              	.L349:
 226:libscpi/src/parser.c ****                 SCPI_ErrorPushEx(context, SCPI_ERROR_UNDEFINED_HEADER, data, r2);
 5653              		.loc 1 226 23 view .LVU1454
 5654 00b6 0B00     		movs	r3, r1
 5655              	.LVL708:
 5656              	.L344:
 226:libscpi/src/parser.c ****                 SCPI_ErrorPushEx(context, SCPI_ERROR_UNDEFINED_HEADER, data, r2);
 5657              		.loc 1 226 23 is_stmt 1 discriminator 1 view .LVU1455
 5658 00b8 002B     		cmp	r3, #0
 5659 00ba 05D0     		beq	.L343
 226:libscpi/src/parser.c ****                 SCPI_ErrorPushEx(context, SCPI_ERROR_UNDEFINED_HEADER, data, r2);
 5660              		.loc 1 226 39 is_stmt 0 discriminator 2 view .LVU1456
 5661 00bc 591E     		subs	r1, r3, #1
 5662 00be 725C     		ldrb	r2, [r6, r1]
 226:libscpi/src/parser.c ****                 SCPI_ErrorPushEx(context, SCPI_ERROR_UNDEFINED_HEADER, data, r2);
 5663              		.loc 1 226 31 discriminator 2 view .LVU1457
 5664 00c0 0D2A     		cmp	r2, #13
 5665 00c2 F6D0     		beq	.L348
 226:libscpi/src/parser.c ****                 SCPI_ErrorPushEx(context, SCPI_ERROR_UNDEFINED_HEADER, data, r2);
 5666              		.loc 1 226 56 discriminator 4 view .LVU1458
 5667 00c4 0A2A     		cmp	r2, #10
 5668 00c6 F6D0     		beq	.L349
 5669              	.L343:
 227:libscpi/src/parser.c ****                 result = FALSE;
ARM GAS  /tmp/ccJs7hvj.s 			page 150


 5670              		.loc 1 227 17 is_stmt 1 view .LVU1459
 5671 00c8 7121     		movs	r1, #113
 5672 00ca 3200     		movs	r2, r6
 5673 00cc 4942     		rsbs	r1, r1, #0
 5674 00ce 2000     		movs	r0, r4
 5675 00d0 FFF7FEFF 		bl	SCPI_ErrorPushEx
 5676              	.LVL709:
 228:libscpi/src/parser.c ****             }
 5677              		.loc 1 228 17 view .LVU1460
 228:libscpi/src/parser.c ****             }
 5678              		.loc 1 228 24 is_stmt 0 view .LVU1461
 5679 00d4 B846     		mov	r8, r7
 5680 00d6 B3E7     		b	.L341
 5681              	.LVL710:
 5682              	.L345:
 228:libscpi/src/parser.c ****             }
 5683              		.loc 1 228 24 view .LVU1462
 5684              	.LBE9:
 242:libscpi/src/parser.c **** 
 5685              		.loc 1 242 5 is_stmt 1 view .LVU1463
 5686 00d8 2000     		movs	r0, r4
 5687 00da FFF7FEFF 		bl	writeNewLine
 5688              	.LVL711:
 244:libscpi/src/parser.c **** }
 5689              		.loc 1 244 5 view .LVU1464
 5690              	.L339:
 245:libscpi/src/parser.c **** 
 5691              		.loc 1 245 1 is_stmt 0 view .LVU1465
 5692 00de 4046     		mov	r0, r8
 5693 00e0 04B0     		add	sp, sp, #16
 5694              		@ sp needed
 5695              	.LVL712:
 5696              	.LVL713:
 5697              	.LVL714:
 245:libscpi/src/parser.c **** 
 5698              		.loc 1 245 1 view .LVU1466
 5699 00e2 1CBC     		pop	{r2, r3, r4}
 5700 00e4 9046     		mov	r8, r2
 5701 00e6 9946     		mov	r9, r3
 5702 00e8 A246     		mov	r10, r4
 5703 00ea F0BD     		pop	{r4, r5, r6, r7, pc}
 5704              	.LVL715:
 5705              	.L347:
 195:libscpi/src/parser.c ****     }
 5706              		.loc 1 195 16 view .LVU1467
 5707 00ec 0023     		movs	r3, #0
 5708 00ee 9846     		mov	r8, r3
 5709 00f0 F5E7     		b	.L339
 5710              		.cfi_endproc
 5711              	.LFE7:
 5713              		.section	.text.SCPI_Input,"ax",%progbits
 5714              		.align	1
 5715              		.global	SCPI_Input
 5716              		.syntax unified
 5717              		.code	16
 5718              		.thumb_func
 5719              		.fpu softvfp
ARM GAS  /tmp/ccJs7hvj.s 			page 151


 5721              	SCPI_Input:
 5722              	.LVL716:
 5723              	.LFB9:
 308:libscpi/src/parser.c ****     scpi_bool_t result = TRUE;
 5724              		.loc 1 308 70 is_stmt 1 view -0
 5725              		.cfi_startproc
 5726              		@ args = 0, pretend = 0, frame = 0
 5727              		@ frame_needed = 0, uses_anonymous_args = 0
 308:libscpi/src/parser.c ****     scpi_bool_t result = TRUE;
 5728              		.loc 1 308 70 is_stmt 0 view .LVU1469
 5729 0000 70B5     		push	{r4, r5, r6, lr}
 5730              	.LCFI87:
 5731              		.cfi_def_cfa_offset 16
 5732              		.cfi_offset 4, -16
 5733              		.cfi_offset 5, -12
 5734              		.cfi_offset 6, -8
 5735              		.cfi_offset 14, -4
 5736 0002 0400     		movs	r4, r0
 5737 0004 151E     		subs	r5, r2, #0
 309:libscpi/src/parser.c ****     size_t totcmdlen = 0;
 5738              		.loc 1 309 5 is_stmt 1 view .LVU1470
 5739              	.LVL717:
 310:libscpi/src/parser.c ****     int cmdlen = 0;
 5740              		.loc 1 310 5 view .LVU1471
 311:libscpi/src/parser.c **** 
 5741              		.loc 1 311 5 view .LVU1472
 313:libscpi/src/parser.c ****         context->buffer.data[context->buffer.position] = 0;
 5742              		.loc 1 313 5 view .LVU1473
 313:libscpi/src/parser.c ****         context->buffer.data[context->buffer.position] = 0;
 5743              		.loc 1 313 8 is_stmt 0 view .LVU1474
 5744 0006 15D0     		beq	.L359
 5745              	.LBB10:
 318:libscpi/src/parser.c **** 
 5746              		.loc 1 318 9 is_stmt 1 view .LVU1475
 320:libscpi/src/parser.c ****         if (len > (buffer_free - 1)) {
 5747              		.loc 1 320 9 view .LVU1476
 320:libscpi/src/parser.c ****         if (len > (buffer_free - 1)) {
 5748              		.loc 1 320 63 is_stmt 0 view .LVU1477
 5749 0008 8068     		ldr	r0, [r0, #8]
 5750              	.LVL718:
 320:libscpi/src/parser.c ****         if (len > (buffer_free - 1)) {
 5751              		.loc 1 320 46 view .LVU1478
 5752 000a 6368     		ldr	r3, [r4, #4]
 5753 000c 1B1A     		subs	r3, r3, r0
 5754              	.LVL719:
 321:libscpi/src/parser.c ****             /* Input buffer overrun - invalidate buffer */
 5755              		.loc 1 321 9 is_stmt 1 view .LVU1479
 321:libscpi/src/parser.c ****             /* Input buffer overrun - invalidate buffer */
 5756              		.loc 1 321 12 is_stmt 0 view .LVU1480
 5757 000e 9A42     		cmp	r2, r3
 5758 0010 1DDA     		bge	.L360
 328:libscpi/src/parser.c ****         context->buffer.position += len;
 5759              		.loc 1 328 9 is_stmt 1 view .LVU1481
 328:libscpi/src/parser.c ****         context->buffer.position += len;
 5760              		.loc 1 328 16 is_stmt 0 view .LVU1482
 5761 0012 E368     		ldr	r3, [r4, #12]
 5762              	.LVL720:
ARM GAS  /tmp/ccJs7hvj.s 			page 152


 328:libscpi/src/parser.c ****         context->buffer.position += len;
 5763              		.loc 1 328 16 view .LVU1483
 5764 0014 9C46     		mov	ip, r3
 5765 0016 6044     		add	r0, r0, ip
 5766              	.LVL721:
 328:libscpi/src/parser.c ****         context->buffer.position += len;
 5767              		.loc 1 328 9 view .LVU1484
 5768 0018 FFF7FEFF 		bl	memcpy
 5769              	.LVL722:
 329:libscpi/src/parser.c ****         context->buffer.data[context->buffer.position] = 0;
 5770              		.loc 1 329 9 is_stmt 1 view .LVU1485
 329:libscpi/src/parser.c ****         context->buffer.data[context->buffer.position] = 0;
 5771              		.loc 1 329 34 is_stmt 0 view .LVU1486
 5772 001c A368     		ldr	r3, [r4, #8]
 5773 001e 9C46     		mov	ip, r3
 5774 0020 6544     		add	r5, r5, ip
 5775              	.LVL723:
 329:libscpi/src/parser.c ****         context->buffer.data[context->buffer.position] = 0;
 5776              		.loc 1 329 34 view .LVU1487
 5777 0022 A560     		str	r5, [r4, #8]
 330:libscpi/src/parser.c **** 
 5778              		.loc 1 330 9 is_stmt 1 view .LVU1488
 330:libscpi/src/parser.c **** 
 5779              		.loc 1 330 29 is_stmt 0 view .LVU1489
 5780 0024 E368     		ldr	r3, [r4, #12]
 5781 0026 9C46     		mov	ip, r3
 5782 0028 6544     		add	r5, r5, ip
 330:libscpi/src/parser.c **** 
 5783              		.loc 1 330 56 view .LVU1490
 5784 002a 0023     		movs	r3, #0
 5785 002c 2B70     		strb	r3, [r5]
 5786              	.LBE10:
 310:libscpi/src/parser.c ****     int cmdlen = 0;
 5787              		.loc 1 310 12 view .LVU1491
 5788 002e 0025     		movs	r5, #0
 309:libscpi/src/parser.c ****     size_t totcmdlen = 0;
 5789              		.loc 1 309 17 view .LVU1492
 5790 0030 0126     		movs	r6, #1
 5791 0032 2BE0     		b	.L355
 5792              	.LVL724:
 5793              	.L359:
 314:libscpi/src/parser.c ****         result = SCPI_Parse(context, context->buffer.data, context->buffer.position);
 5794              		.loc 1 314 9 is_stmt 1 view .LVU1493
 314:libscpi/src/parser.c ****         result = SCPI_Parse(context, context->buffer.data, context->buffer.position);
 5795              		.loc 1 314 29 is_stmt 0 view .LVU1494
 5796 0034 C368     		ldr	r3, [r0, #12]
 5797 0036 8268     		ldr	r2, [r0, #8]
 5798              	.LVL725:
 314:libscpi/src/parser.c ****         result = SCPI_Parse(context, context->buffer.data, context->buffer.position);
 5799              		.loc 1 314 29 view .LVU1495
 5800 0038 9446     		mov	ip, r2
 5801 003a 6344     		add	r3, r3, ip
 314:libscpi/src/parser.c ****         result = SCPI_Parse(context, context->buffer.data, context->buffer.position);
 5802              		.loc 1 314 56 view .LVU1496
 5803 003c 1D70     		strb	r5, [r3]
 315:libscpi/src/parser.c ****         context->buffer.position = 0;
 5804              		.loc 1 315 9 is_stmt 1 view .LVU1497
ARM GAS  /tmp/ccJs7hvj.s 			page 153


 315:libscpi/src/parser.c ****         context->buffer.position = 0;
 5805              		.loc 1 315 18 is_stmt 0 view .LVU1498
 5806 003e 8268     		ldr	r2, [r0, #8]
 5807 0040 C168     		ldr	r1, [r0, #12]
 5808              	.LVL726:
 315:libscpi/src/parser.c ****         context->buffer.position = 0;
 5809              		.loc 1 315 18 view .LVU1499
 5810 0042 FFF7FEFF 		bl	SCPI_Parse
 5811              	.LVL727:
 315:libscpi/src/parser.c ****         context->buffer.position = 0;
 5812              		.loc 1 315 18 view .LVU1500
 5813 0046 0600     		movs	r6, r0
 5814              	.LVL728:
 316:libscpi/src/parser.c ****     } else {
 5815              		.loc 1 316 9 is_stmt 1 view .LVU1501
 316:libscpi/src/parser.c ****     } else {
 5816              		.loc 1 316 34 is_stmt 0 view .LVU1502
 5817 0048 A560     		str	r5, [r4, #8]
 5818              	.LVL729:
 5819              	.L353:
 351:libscpi/src/parser.c **** 
 5820              		.loc 1 351 1 view .LVU1503
 5821 004a 3000     		movs	r0, r6
 5822              		@ sp needed
 5823              	.LVL730:
 351:libscpi/src/parser.c **** 
 5824              		.loc 1 351 1 view .LVU1504
 5825 004c 70BD     		pop	{r4, r5, r6, pc}
 5826              	.LVL731:
 5827              	.L360:
 5828              	.LBB11:
 323:libscpi/src/parser.c ****             context->buffer.data[context->buffer.position] = 0;
 5829              		.loc 1 323 13 is_stmt 1 view .LVU1505
 323:libscpi/src/parser.c ****             context->buffer.data[context->buffer.position] = 0;
 5830              		.loc 1 323 38 is_stmt 0 view .LVU1506
 5831 004e 0023     		movs	r3, #0
 5832              	.LVL732:
 323:libscpi/src/parser.c ****             context->buffer.data[context->buffer.position] = 0;
 5833              		.loc 1 323 38 view .LVU1507
 5834 0050 A360     		str	r3, [r4, #8]
 324:libscpi/src/parser.c ****             SCPI_ErrorPush(context, SCPI_ERROR_INPUT_BUFFER_OVERRUN);
 5835              		.loc 1 324 13 is_stmt 1 view .LVU1508
 324:libscpi/src/parser.c ****             SCPI_ErrorPush(context, SCPI_ERROR_INPUT_BUFFER_OVERRUN);
 5836              		.loc 1 324 60 is_stmt 0 view .LVU1509
 5837 0052 E268     		ldr	r2, [r4, #12]
 5838              	.LVL733:
 324:libscpi/src/parser.c ****             SCPI_ErrorPush(context, SCPI_ERROR_INPUT_BUFFER_OVERRUN);
 5839              		.loc 1 324 60 view .LVU1510
 5840 0054 1370     		strb	r3, [r2]
 5841              	.LVL734:
 325:libscpi/src/parser.c ****             return FALSE;
 5842              		.loc 1 325 13 is_stmt 1 view .LVU1511
 5843 0056 1749     		ldr	r1, .L362
 5844              	.LVL735:
 325:libscpi/src/parser.c ****             return FALSE;
 5845              		.loc 1 325 13 is_stmt 0 view .LVU1512
 5846 0058 2000     		movs	r0, r4
ARM GAS  /tmp/ccJs7hvj.s 			page 154


 5847 005a FFF7FEFF 		bl	SCPI_ErrorPush
 5848              	.LVL736:
 326:libscpi/src/parser.c ****         }
 5849              		.loc 1 326 13 is_stmt 1 view .LVU1513
 326:libscpi/src/parser.c ****         }
 5850              		.loc 1 326 20 is_stmt 0 view .LVU1514
 5851 005e 0026     		movs	r6, #0
 5852 0060 F3E7     		b	.L353
 5853              	.LVL737:
 5854              	.L361:
 338:libscpi/src/parser.c ****                 memmove(context->buffer.data, context->buffer.data + totcmdlen, context->buffer.pos
 5855              		.loc 1 338 17 is_stmt 1 view .LVU1515
 338:libscpi/src/parser.c ****                 memmove(context->buffer.data, context->buffer.data + totcmdlen, context->buffer.pos
 5856              		.loc 1 338 26 is_stmt 0 view .LVU1516
 5857 0062 2A00     		movs	r2, r5
 5858 0064 E168     		ldr	r1, [r4, #12]
 5859 0066 2000     		movs	r0, r4
 5860              	.LVL738:
 338:libscpi/src/parser.c ****                 memmove(context->buffer.data, context->buffer.data + totcmdlen, context->buffer.pos
 5861              		.loc 1 338 26 view .LVU1517
 5862 0068 FFF7FEFF 		bl	SCPI_Parse
 5863              	.LVL739:
 5864 006c 0600     		movs	r6, r0
 5865              	.LVL740:
 339:libscpi/src/parser.c ****                 context->buffer.position -= totcmdlen;
 5866              		.loc 1 339 17 is_stmt 1 view .LVU1518
 339:libscpi/src/parser.c ****                 context->buffer.position -= totcmdlen;
 5867              		.loc 1 339 68 is_stmt 0 view .LVU1519
 5868 006e E368     		ldr	r3, [r4, #12]
 5869 0070 5919     		adds	r1, r3, r5
 339:libscpi/src/parser.c ****                 context->buffer.position -= totcmdlen;
 5870              		.loc 1 339 17 view .LVU1520
 5871 0072 A368     		ldr	r3, [r4, #8]
 5872 0074 5A1B     		subs	r2, r3, r5
 5873 0076 E068     		ldr	r0, [r4, #12]
 5874              	.LVL741:
 339:libscpi/src/parser.c ****                 context->buffer.position -= totcmdlen;
 5875              		.loc 1 339 17 view .LVU1521
 5876 0078 FFF7FEFF 		bl	memmove
 5877              	.LVL742:
 340:libscpi/src/parser.c ****                 totcmdlen = 0;
 5878              		.loc 1 340 17 is_stmt 1 view .LVU1522
 340:libscpi/src/parser.c ****                 totcmdlen = 0;
 5879              		.loc 1 340 42 is_stmt 0 view .LVU1523
 5880 007c A368     		ldr	r3, [r4, #8]
 5881 007e 5D1B     		subs	r5, r3, r5
 5882              	.LVL743:
 340:libscpi/src/parser.c ****                 totcmdlen = 0;
 5883              		.loc 1 340 42 view .LVU1524
 5884 0080 A560     		str	r5, [r4, #8]
 341:libscpi/src/parser.c ****             } else {
 5885              		.loc 1 341 17 is_stmt 1 view .LVU1525
 5886              	.LVL744:
 341:libscpi/src/parser.c ****             } else {
 5887              		.loc 1 341 27 is_stmt 0 view .LVU1526
 5888 0082 0025     		movs	r5, #0
 5889 0084 02E0     		b	.L355
ARM GAS  /tmp/ccJs7hvj.s 			page 155


 5890              	.LVL745:
 5891              	.L358:
 345:libscpi/src/parser.c ****             }
 5892              		.loc 1 345 17 is_stmt 1 view .LVU1527
 345:libscpi/src/parser.c ****             }
 5893              		.loc 1 345 20 is_stmt 0 view .LVU1528
 5894 0086 A368     		ldr	r3, [r4, #8]
 5895 0088 AB42     		cmp	r3, r5
 5896 008a DED9     		bls	.L353
 5897              	.LVL746:
 5898              	.L355:
 333:libscpi/src/parser.c ****             cmdlen = scpiParser_detectProgramMessageUnit(&context->parser_state, context->buffer.da
 5899              		.loc 1 333 9 is_stmt 1 view .LVU1529
 334:libscpi/src/parser.c ****             totcmdlen += cmdlen;
 5900              		.loc 1 334 13 view .LVU1530
 334:libscpi/src/parser.c ****             totcmdlen += cmdlen;
 5901              		.loc 1 334 141 is_stmt 0 view .LVU1531
 5902 008c A368     		ldr	r3, [r4, #8]
 5903 008e 5A1B     		subs	r2, r3, r5
 334:libscpi/src/parser.c ****             totcmdlen += cmdlen;
 5904              		.loc 1 334 22 view .LVU1532
 5905 0090 E368     		ldr	r3, [r4, #12]
 5906 0092 5919     		adds	r1, r3, r5
 5907 0094 2000     		movs	r0, r4
 5908 0096 6430     		adds	r0, r0, #100
 5909 0098 FFF7FEFF 		bl	scpiParser_detectProgramMessageUnit
 5910              	.LVL747:
 335:libscpi/src/parser.c **** 
 5911              		.loc 1 335 13 is_stmt 1 view .LVU1533
 335:libscpi/src/parser.c **** 
 5912              		.loc 1 335 23 is_stmt 0 view .LVU1534
 5913 009c 2D18     		adds	r5, r5, r0
 5914              	.LVL748:
 337:libscpi/src/parser.c ****                 result = SCPI_Parse(context, context->buffer.data, totcmdlen);
 5915              		.loc 1 337 13 is_stmt 1 view .LVU1535
 337:libscpi/src/parser.c ****                 result = SCPI_Parse(context, context->buffer.data, totcmdlen);
 5916              		.loc 1 337 38 is_stmt 0 view .LVU1536
 5917 009e 8023     		movs	r3, #128
 5918 00a0 E35C     		ldrb	r3, [r4, r3]
 337:libscpi/src/parser.c ****                 result = SCPI_Parse(context, context->buffer.data, totcmdlen);
 5919              		.loc 1 337 16 view .LVU1537
 5920 00a2 012B     		cmp	r3, #1
 5921 00a4 DDD0     		beq	.L361
 343:libscpi/src/parser.c ****                         && context->parser_state.termination == SCPI_MESSAGE_TERMINATION_NONE) brea
 5922              		.loc 1 343 17 is_stmt 1 view .LVU1538
 343:libscpi/src/parser.c ****                         && context->parser_state.termination == SCPI_MESSAGE_TERMINATION_NONE) brea
 5923              		.loc 1 343 56 is_stmt 0 view .LVU1539
 5924 00a6 6422     		movs	r2, #100
 5925 00a8 A25C     		ldrb	r2, [r4, r2]
 343:libscpi/src/parser.c ****                         && context->parser_state.termination == SCPI_MESSAGE_TERMINATION_NONE) brea
 5926              		.loc 1 343 20 view .LVU1540
 5927 00aa 1A2A     		cmp	r2, #26
 5928 00ac EBD1     		bne	.L358
 344:libscpi/src/parser.c ****                 if (totcmdlen >= context->buffer.position) break;
 5929              		.loc 1 344 25 view .LVU1541
 5930 00ae 002B     		cmp	r3, #0
 5931 00b0 E9D1     		bne	.L358
ARM GAS  /tmp/ccJs7hvj.s 			page 156


 5932 00b2 CAE7     		b	.L353
 5933              	.L363:
 5934              		.align	2
 5935              	.L362:
 5936 00b4 95FEFFFF 		.word	-363
 5937              	.LBE11:
 5938              		.cfi_endproc
 5939              	.LFE9:
 5941              		.section	.text.SCPI_IsCmd,"ax",%progbits
 5942              		.align	1
 5943              		.global	SCPI_IsCmd
 5944              		.syntax unified
 5945              		.code	16
 5946              		.thumb_func
 5947              		.fpu softvfp
 5949              	SCPI_IsCmd:
 5950              	.LVL749:
 5951              	.LFB55:
1491:libscpi/src/parser.c ****     const char * pattern;
 5952              		.loc 1 1491 60 is_stmt 1 view -0
 5953              		.cfi_startproc
 5954              		@ args = 0, pretend = 0, frame = 0
 5955              		@ frame_needed = 0, uses_anonymous_args = 0
1491:libscpi/src/parser.c ****     const char * pattern;
 5956              		.loc 1 1491 60 is_stmt 0 view .LVU1543
 5957 0000 30B5     		push	{r4, r5, lr}
 5958              	.LCFI88:
 5959              		.cfi_def_cfa_offset 12
 5960              		.cfi_offset 4, -12
 5961              		.cfi_offset 5, -8
 5962              		.cfi_offset 14, -4
 5963 0002 83B0     		sub	sp, sp, #12
 5964              	.LCFI89:
 5965              		.cfi_def_cfa_offset 24
 5966 0004 0C00     		movs	r4, r1
1492:libscpi/src/parser.c **** 
 5967              		.loc 1 1492 5 is_stmt 1 view .LVU1544
1494:libscpi/src/parser.c ****         return FALSE;
 5968              		.loc 1 1494 5 view .LVU1545
1494:libscpi/src/parser.c ****         return FALSE;
 5969              		.loc 1 1494 29 is_stmt 0 view .LVU1546
 5970 0006 0369     		ldr	r3, [r0, #16]
1494:libscpi/src/parser.c ****         return FALSE;
 5971              		.loc 1 1494 8 view .LVU1547
 5972 0008 002B     		cmp	r3, #0
 5973 000a 0DD0     		beq	.L366
1498:libscpi/src/parser.c ****     return matchCommand(pattern, cmd, strlen(cmd), NULL, 0, 0);
 5974              		.loc 1 1498 5 is_stmt 1 view .LVU1548
1498:libscpi/src/parser.c ****     return matchCommand(pattern, cmd, strlen(cmd), NULL, 0, 0);
 5975              		.loc 1 1498 13 is_stmt 0 view .LVU1549
 5976 000c 1D68     		ldr	r5, [r3]
 5977              	.LVL750:
1499:libscpi/src/parser.c **** }
 5978              		.loc 1 1499 5 is_stmt 1 view .LVU1550
1499:libscpi/src/parser.c **** }
 5979              		.loc 1 1499 12 is_stmt 0 view .LVU1551
 5980 000e 0800     		movs	r0, r1
ARM GAS  /tmp/ccJs7hvj.s 			page 157


 5981              	.LVL751:
1499:libscpi/src/parser.c **** }
 5982              		.loc 1 1499 12 view .LVU1552
 5983 0010 FFF7FEFF 		bl	strlen
 5984              	.LVL752:
1499:libscpi/src/parser.c **** }
 5985              		.loc 1 1499 12 view .LVU1553
 5986 0014 0200     		movs	r2, r0
 5987 0016 0023     		movs	r3, #0
 5988 0018 0193     		str	r3, [sp, #4]
 5989 001a 0093     		str	r3, [sp]
 5990 001c 2100     		movs	r1, r4
 5991 001e 2800     		movs	r0, r5
 5992 0020 FFF7FEFF 		bl	matchCommand
 5993              	.LVL753:
 5994              	.L365:
1500:libscpi/src/parser.c **** 
 5995              		.loc 1 1500 1 view .LVU1554
 5996 0024 03B0     		add	sp, sp, #12
 5997              		@ sp needed
 5998              	.LVL754:
1500:libscpi/src/parser.c **** 
 5999              		.loc 1 1500 1 view .LVU1555
 6000 0026 30BD     		pop	{r4, r5, pc}
 6001              	.LVL755:
 6002              	.L366:
1495:libscpi/src/parser.c ****     }
 6003              		.loc 1 1495 16 view .LVU1556
 6004 0028 0020     		movs	r0, #0
 6005              	.LVL756:
1495:libscpi/src/parser.c ****     }
 6006              		.loc 1 1495 16 view .LVU1557
 6007 002a FBE7     		b	.L365
 6008              		.cfi_endproc
 6009              	.LFE55:
 6011              		.section	.text.SCPI_CmdTag,"ax",%progbits
 6012              		.align	1
 6013              		.global	SCPI_CmdTag
 6014              		.syntax unified
 6015              		.code	16
 6016              		.thumb_func
 6017              		.fpu softvfp
 6019              	SCPI_CmdTag:
 6020              	.LVL757:
 6021              	.LFB56:
1509:libscpi/src/parser.c ****     if (context->param_list.cmd) {
 6022              		.loc 1 1509 39 is_stmt 1 view -0
 6023              		.cfi_startproc
 6024              		@ args = 0, pretend = 0, frame = 0
 6025              		@ frame_needed = 0, uses_anonymous_args = 0
 6026              		@ link register save eliminated.
1510:libscpi/src/parser.c ****         return context->param_list.cmd->tag;
 6027              		.loc 1 1510 5 view .LVU1559
1510:libscpi/src/parser.c ****         return context->param_list.cmd->tag;
 6028              		.loc 1 1510 28 is_stmt 0 view .LVU1560
 6029 0000 0369     		ldr	r3, [r0, #16]
1510:libscpi/src/parser.c ****         return context->param_list.cmd->tag;
ARM GAS  /tmp/ccJs7hvj.s 			page 158


 6030              		.loc 1 1510 8 view .LVU1561
 6031 0002 002B     		cmp	r3, #0
 6032 0004 01D0     		beq	.L369
1511:libscpi/src/parser.c ****     } else {
 6033              		.loc 1 1511 9 is_stmt 1 view .LVU1562
1511:libscpi/src/parser.c ****     } else {
 6034              		.loc 1 1511 39 is_stmt 0 view .LVU1563
 6035 0006 9868     		ldr	r0, [r3, #8]
 6036              	.LVL758:
 6037              	.L367:
1515:libscpi/src/parser.c **** #endif /* USE_COMMAND_TAGS */
 6038              		.loc 1 1515 1 view .LVU1564
 6039              		@ sp needed
 6040 0008 7047     		bx	lr
 6041              	.LVL759:
 6042              	.L369:
1513:libscpi/src/parser.c ****     }
 6043              		.loc 1 1513 16 view .LVU1565
 6044 000a 0020     		movs	r0, #0
 6045              	.LVL760:
1513:libscpi/src/parser.c ****     }
 6046              		.loc 1 1513 16 view .LVU1566
 6047 000c FCE7     		b	.L367
 6048              		.cfi_endproc
 6049              	.LFE56:
 6051              		.section	.text.SCPI_Match,"ax",%progbits
 6052              		.align	1
 6053              		.global	SCPI_Match
 6054              		.syntax unified
 6055              		.code	16
 6056              		.thumb_func
 6057              		.fpu softvfp
 6059              	SCPI_Match:
 6060              	.LVL761:
 6061              	.LFB57:
1518:libscpi/src/parser.c ****     return matchCommand(pattern, value, len, NULL, 0, 0);
 6062              		.loc 1 1518 78 is_stmt 1 view -0
 6063              		.cfi_startproc
 6064              		@ args = 0, pretend = 0, frame = 0
 6065              		@ frame_needed = 0, uses_anonymous_args = 0
1518:libscpi/src/parser.c ****     return matchCommand(pattern, value, len, NULL, 0, 0);
 6066              		.loc 1 1518 78 is_stmt 0 view .LVU1568
 6067 0000 00B5     		push	{lr}
 6068              	.LCFI90:
 6069              		.cfi_def_cfa_offset 4
 6070              		.cfi_offset 14, -4
 6071 0002 83B0     		sub	sp, sp, #12
 6072              	.LCFI91:
 6073              		.cfi_def_cfa_offset 16
1519:libscpi/src/parser.c **** }
 6074              		.loc 1 1519 5 is_stmt 1 view .LVU1569
1519:libscpi/src/parser.c **** }
 6075              		.loc 1 1519 12 is_stmt 0 view .LVU1570
 6076 0004 0023     		movs	r3, #0
 6077 0006 0193     		str	r3, [sp, #4]
 6078 0008 0093     		str	r3, [sp]
 6079 000a FFF7FEFF 		bl	matchCommand
ARM GAS  /tmp/ccJs7hvj.s 			page 159


 6080              	.LVL762:
1520:libscpi/src/parser.c **** 
 6081              		.loc 1 1520 1 view .LVU1571
 6082 000e 03B0     		add	sp, sp, #12
 6083              		@ sp needed
 6084 0010 00BD     		pop	{pc}
 6085              		.cfi_endproc
 6086              	.LFE57:
 6088              		.section	.text.SCPI_CommandNumbers,"ax",%progbits
 6089              		.align	1
 6090              		.global	SCPI_CommandNumbers
 6091              		.syntax unified
 6092              		.code	16
 6093              		.thumb_func
 6094              		.fpu softvfp
 6096              	SCPI_CommandNumbers:
 6097              	.LVL763:
 6098              	.LFB58:
1522:libscpi/src/parser.c ****     return matchCommand(context->param_list.cmd->pattern, context->param_list.cmd_raw.data, context
 6099              		.loc 1 1522 105 is_stmt 1 view -0
 6100              		.cfi_startproc
 6101              		@ args = 0, pretend = 0, frame = 0
 6102              		@ frame_needed = 0, uses_anonymous_args = 0
1522:libscpi/src/parser.c ****     return matchCommand(context->param_list.cmd->pattern, context->param_list.cmd_raw.data, context
 6103              		.loc 1 1522 105 is_stmt 0 view .LVU1573
 6104 0000 70B5     		push	{r4, r5, r6, lr}
 6105              	.LCFI92:
 6106              		.cfi_def_cfa_offset 16
 6107              		.cfi_offset 4, -16
 6108              		.cfi_offset 5, -12
 6109              		.cfi_offset 6, -8
 6110              		.cfi_offset 14, -4
 6111 0002 82B0     		sub	sp, sp, #8
 6112              	.LCFI93:
 6113              		.cfi_def_cfa_offset 24
 6114 0004 0C00     		movs	r4, r1
 6115 0006 1500     		movs	r5, r2
1523:libscpi/src/parser.c **** }
 6116              		.loc 1 1523 5 is_stmt 1 view .LVU1574
1523:libscpi/src/parser.c **** }
 6117              		.loc 1 1523 44 is_stmt 0 view .LVU1575
 6118 0008 0669     		ldr	r6, [r0, #16]
1523:libscpi/src/parser.c **** }
 6119              		.loc 1 1523 12 view .LVU1576
 6120 000a 026A     		ldr	r2, [r0, #32]
 6121              	.LVL764:
1523:libscpi/src/parser.c **** }
 6122              		.loc 1 1523 12 view .LVU1577
 6123 000c 816A     		ldr	r1, [r0, #40]
 6124              	.LVL765:
1523:libscpi/src/parser.c **** }
 6125              		.loc 1 1523 12 view .LVU1578
 6126 000e 3068     		ldr	r0, [r6]
 6127              	.LVL766:
1523:libscpi/src/parser.c **** }
 6128              		.loc 1 1523 12 view .LVU1579
 6129 0010 0193     		str	r3, [sp, #4]
ARM GAS  /tmp/ccJs7hvj.s 			page 160


 6130 0012 0095     		str	r5, [sp]
 6131 0014 2300     		movs	r3, r4
 6132              	.LVL767:
1523:libscpi/src/parser.c **** }
 6133              		.loc 1 1523 12 view .LVU1580
 6134 0016 FFF7FEFF 		bl	matchCommand
 6135              	.LVL768:
1524:libscpi/src/parser.c **** 
 6136              		.loc 1 1524 1 view .LVU1581
 6137 001a 02B0     		add	sp, sp, #8
 6138              		@ sp needed
 6139              	.LVL769:
 6140              	.LVL770:
1524:libscpi/src/parser.c **** 
 6141              		.loc 1 1524 1 view .LVU1582
 6142 001c 70BD     		pop	{r4, r5, r6, pc}
 6143              		.cfi_endproc
 6144              	.LFE58:
 6146              		.section	.text.SCPI_ParamIsValid,"ax",%progbits
 6147              		.align	1
 6148              		.global	SCPI_ParamIsValid
 6149              		.syntax unified
 6150              		.code	16
 6151              		.thumb_func
 6152              		.fpu softvfp
 6154              	SCPI_ParamIsValid:
 6155              	.LVL771:
 6156              	.LFB59:
1532:libscpi/src/parser.c ****     return parameter->type == SCPI_TOKEN_UNKNOWN ? FALSE : TRUE;
 6157              		.loc 1 1532 61 is_stmt 1 view -0
 6158              		.cfi_startproc
 6159              		@ args = 0, pretend = 0, frame = 0
 6160              		@ frame_needed = 0, uses_anonymous_args = 0
 6161              		@ link register save eliminated.
1533:libscpi/src/parser.c **** }
 6162              		.loc 1 1533 5 view .LVU1584
1533:libscpi/src/parser.c **** }
 6163              		.loc 1 1533 21 is_stmt 0 view .LVU1585
 6164 0000 0078     		ldrb	r0, [r0]
 6165              	.LVL772:
1533:libscpi/src/parser.c **** }
 6166              		.loc 1 1533 58 view .LVU1586
 6167 0002 1A38     		subs	r0, r0, #26
 6168 0004 431E     		subs	r3, r0, #1
 6169 0006 9841     		sbcs	r0, r0, r3
 6170 0008 C0B2     		uxtb	r0, r0
1534:libscpi/src/parser.c **** 
 6171              		.loc 1 1534 1 view .LVU1587
 6172              		@ sp needed
 6173 000a 7047     		bx	lr
 6174              		.cfi_endproc
 6175              	.LFE59:
 6177              		.section	.text.SCPI_ParamErrorOccurred,"ax",%progbits
 6178              		.align	1
 6179              		.global	SCPI_ParamErrorOccurred
 6180              		.syntax unified
 6181              		.code	16
ARM GAS  /tmp/ccJs7hvj.s 			page 161


 6182              		.thumb_func
 6183              		.fpu softvfp
 6185              	SCPI_ParamErrorOccurred:
 6186              	.LVL773:
 6187              	.LFB60:
1541:libscpi/src/parser.c ****     return context->cmd_error;
 6188              		.loc 1 1541 55 is_stmt 1 view -0
 6189              		.cfi_startproc
 6190              		@ args = 0, pretend = 0, frame = 0
 6191              		@ frame_needed = 0, uses_anonymous_args = 0
 6192              		@ link register save eliminated.
1542:libscpi/src/parser.c **** }
 6193              		.loc 1 1542 5 view .LVU1589
1542:libscpi/src/parser.c **** }
 6194              		.loc 1 1542 19 is_stmt 0 view .LVU1590
 6195 0000 3823     		movs	r3, #56
 6196 0002 C05C     		ldrb	r0, [r0, r3]
 6197              	.LVL774:
1543:libscpi/src/parser.c **** 
 6198              		.loc 1 1543 1 view .LVU1591
 6199              		@ sp needed
 6200 0004 7047     		bx	lr
 6201              		.cfi_endproc
 6202              	.LFE60:
 6204              		.section	.text.SCPI_ResultArrayInt8,"ax",%progbits
 6205              		.align	1
 6206              		.global	SCPI_ResultArrayInt8
 6207              		.syntax unified
 6208              		.code	16
 6209              		.thumb_func
 6210              		.fpu softvfp
 6212              	SCPI_ResultArrayInt8:
 6213              	.LVL775:
 6214              	.LFB62:
1609:libscpi/src/parser.c **** 
1610:libscpi/src/parser.c **** 
1611:libscpi/src/parser.c **** #define RESULT_ARRAY(func) do {\
1612:libscpi/src/parser.c ****     size_t result = 0;\
1613:libscpi/src/parser.c ****     if (format == SCPI_FORMAT_ASCII) {\
1614:libscpi/src/parser.c ****         size_t i;\
1615:libscpi/src/parser.c ****         for (i = 0; i < count; i++) {\
1616:libscpi/src/parser.c ****             result += func(context, array[i]);\
1617:libscpi/src/parser.c ****         }\
1618:libscpi/src/parser.c ****     } else {\
1619:libscpi/src/parser.c ****         result = produceResultArrayBinary(context, array, count, sizeof(*array), format);\
1620:libscpi/src/parser.c ****     }\
1621:libscpi/src/parser.c ****     return result;\
1622:libscpi/src/parser.c **** } while(0)
1623:libscpi/src/parser.c **** 
1624:libscpi/src/parser.c **** /**
1625:libscpi/src/parser.c ****  * Result array of signed 8bit integers
1626:libscpi/src/parser.c ****  * @param context
1627:libscpi/src/parser.c ****  * @param array
1628:libscpi/src/parser.c ****  * @param count
1629:libscpi/src/parser.c ****  * @param format
1630:libscpi/src/parser.c ****  * @return
1631:libscpi/src/parser.c ****  */
ARM GAS  /tmp/ccJs7hvj.s 			page 162


1632:libscpi/src/parser.c **** size_t SCPI_ResultArrayInt8(scpi_t * context, const int8_t * array, size_t count, scpi_array_format
 6215              		.loc 1 1632 111 is_stmt 1 view -0
 6216              		.cfi_startproc
 6217              		@ args = 0, pretend = 0, frame = 0
 6218              		@ frame_needed = 0, uses_anonymous_args = 0
 6219              		.loc 1 1632 111 is_stmt 0 view .LVU1593
 6220 0000 F0B5     		push	{r4, r5, r6, r7, lr}
 6221              	.LCFI94:
 6222              		.cfi_def_cfa_offset 20
 6223              		.cfi_offset 4, -20
 6224              		.cfi_offset 5, -16
 6225              		.cfi_offset 6, -12
 6226              		.cfi_offset 7, -8
 6227              		.cfi_offset 14, -4
 6228 0002 C646     		mov	lr, r8
 6229 0004 00B5     		push	{lr}
 6230              	.LCFI95:
 6231              		.cfi_def_cfa_offset 24
 6232              		.cfi_offset 8, -24
 6233 0006 82B0     		sub	sp, sp, #8
 6234              	.LCFI96:
 6235              		.cfi_def_cfa_offset 32
 6236 0008 0700     		movs	r7, r0
 6237 000a 8846     		mov	r8, r1
 6238 000c 1600     		movs	r6, r2
1633:libscpi/src/parser.c ****     RESULT_ARRAY(SCPI_ResultInt8);
 6239              		.loc 1 1633 5 is_stmt 1 view .LVU1594
 6240              	.LBB12:
 6241              		.loc 1 1633 5 view .LVU1595
 6242              	.LVL776:
 6243              		.loc 1 1633 5 view .LVU1596
 6244 000e 002B     		cmp	r3, #0
 6245 0010 10D1     		bne	.L381
 6246              	.LBB13:
 6247 0012 0024     		movs	r4, #0
 6248              	.LBE13:
 6249 0014 0025     		movs	r5, #0
 6250 0016 06E0     		b	.L375
 6251              	.LVL777:
 6252              	.L377:
 6253              	.LBB14:
 6254              		.loc 1 1633 5 discriminator 5 view .LVU1597
 6255 0018 4346     		mov	r3, r8
 6256 001a 1957     		ldrsb	r1, [r3, r4]
 6257 001c 3800     		movs	r0, r7
 6258 001e FFF7FEFF 		bl	SCPI_ResultInt32
 6259              	.LVL778:
 6260 0022 2D18     		adds	r5, r5, r0
 6261              	.LVL779:
 6262              		.loc 1 1633 5 discriminator 5 view .LVU1598
 6263 0024 0134     		adds	r4, r4, #1
 6264              	.LVL780:
 6265              	.L375:
 6266              		.loc 1 1633 5 discriminator 3 view .LVU1599
 6267 0026 B442     		cmp	r4, r6
 6268 0028 F6D3     		bcc	.L377
 6269              	.LVL781:
ARM GAS  /tmp/ccJs7hvj.s 			page 163


 6270              	.L374:
 6271              		.loc 1 1633 5 is_stmt 0 discriminator 3 view .LVU1600
 6272              	.LBE14:
 6273              	.LBE12:
1634:libscpi/src/parser.c **** }
 6274              		.loc 1 1634 1 view .LVU1601
 6275 002a 2800     		movs	r0, r5
 6276 002c 02B0     		add	sp, sp, #8
 6277              		@ sp needed
 6278              	.LVL782:
 6279              	.LVL783:
 6280              	.LVL784:
 6281              	.LVL785:
 6282              		.loc 1 1634 1 view .LVU1602
 6283 002e 04BC     		pop	{r2}
 6284 0030 9046     		mov	r8, r2
 6285 0032 F0BD     		pop	{r4, r5, r6, r7, pc}
 6286              	.LVL786:
 6287              	.L381:
 6288              	.LBB15:
1633:libscpi/src/parser.c ****     RESULT_ARRAY(SCPI_ResultInt8);
 6289              		.loc 1 1633 5 is_stmt 1 discriminator 2 view .LVU1603
 6290 0034 0093     		str	r3, [sp]
 6291 0036 0123     		movs	r3, #1
 6292              	.LVL787:
1633:libscpi/src/parser.c ****     RESULT_ARRAY(SCPI_ResultInt8);
 6293              		.loc 1 1633 5 is_stmt 0 discriminator 2 view .LVU1604
 6294 0038 FFF7FEFF 		bl	produceResultArrayBinary
 6295              	.LVL788:
1633:libscpi/src/parser.c ****     RESULT_ARRAY(SCPI_ResultInt8);
 6296              		.loc 1 1633 5 discriminator 2 view .LVU1605
 6297 003c 0500     		movs	r5, r0
 6298              	.LVL789:
1633:libscpi/src/parser.c ****     RESULT_ARRAY(SCPI_ResultInt8);
 6299              		.loc 1 1633 5 is_stmt 1 discriminator 2 view .LVU1606
 6300              	.LBE15:
1633:libscpi/src/parser.c ****     RESULT_ARRAY(SCPI_ResultInt8);
 6301              		.loc 1 1633 5 discriminator 2 view .LVU1607
 6302              	.LBB16:
 6303 003e F4E7     		b	.L374
 6304              	.LBE16:
 6305              		.cfi_endproc
 6306              	.LFE62:
 6308              		.section	.text.SCPI_ResultArrayUInt8,"ax",%progbits
 6309              		.align	1
 6310              		.global	SCPI_ResultArrayUInt8
 6311              		.syntax unified
 6312              		.code	16
 6313              		.thumb_func
 6314              		.fpu softvfp
 6316              	SCPI_ResultArrayUInt8:
 6317              	.LVL790:
 6318              	.LFB63:
1635:libscpi/src/parser.c **** 
1636:libscpi/src/parser.c **** /**
1637:libscpi/src/parser.c ****  * Result array of unsigned 8bit integers
1638:libscpi/src/parser.c ****  * @param context
ARM GAS  /tmp/ccJs7hvj.s 			page 164


1639:libscpi/src/parser.c ****  * @param array
1640:libscpi/src/parser.c ****  * @param count
1641:libscpi/src/parser.c ****  * @param format
1642:libscpi/src/parser.c ****  * @return
1643:libscpi/src/parser.c ****  */
1644:libscpi/src/parser.c **** size_t SCPI_ResultArrayUInt8(scpi_t * context, const uint8_t * array, size_t count, scpi_array_form
 6319              		.loc 1 1644 113 view -0
 6320              		.cfi_startproc
 6321              		@ args = 0, pretend = 0, frame = 0
 6322              		@ frame_needed = 0, uses_anonymous_args = 0
 6323              		.loc 1 1644 113 is_stmt 0 view .LVU1609
 6324 0000 F0B5     		push	{r4, r5, r6, r7, lr}
 6325              	.LCFI97:
 6326              		.cfi_def_cfa_offset 20
 6327              		.cfi_offset 4, -20
 6328              		.cfi_offset 5, -16
 6329              		.cfi_offset 6, -12
 6330              		.cfi_offset 7, -8
 6331              		.cfi_offset 14, -4
 6332 0002 C646     		mov	lr, r8
 6333 0004 00B5     		push	{lr}
 6334              	.LCFI98:
 6335              		.cfi_def_cfa_offset 24
 6336              		.cfi_offset 8, -24
 6337 0006 82B0     		sub	sp, sp, #8
 6338              	.LCFI99:
 6339              		.cfi_def_cfa_offset 32
 6340 0008 0700     		movs	r7, r0
 6341 000a 8846     		mov	r8, r1
 6342 000c 1600     		movs	r6, r2
1645:libscpi/src/parser.c ****     RESULT_ARRAY(SCPI_ResultUInt8);
 6343              		.loc 1 1645 5 is_stmt 1 view .LVU1610
 6344              	.LBB17:
 6345              		.loc 1 1645 5 view .LVU1611
 6346              	.LVL791:
 6347              		.loc 1 1645 5 view .LVU1612
 6348 000e 002B     		cmp	r3, #0
 6349 0010 11D1     		bne	.L389
 6350              	.LBB18:
 6351 0012 0024     		movs	r4, #0
 6352              	.LBE18:
 6353 0014 0025     		movs	r5, #0
 6354 0016 07E0     		b	.L383
 6355              	.LVL792:
 6356              	.L385:
 6357              	.LBB19:
 6358              		.loc 1 1645 5 discriminator 5 view .LVU1613
 6359 0018 4346     		mov	r3, r8
 6360 001a 195D     		ldrb	r1, [r3, r4]
 6361 001c 0A22     		movs	r2, #10
 6362 001e 3800     		movs	r0, r7
 6363 0020 FFF7FEFF 		bl	SCPI_ResultUInt32Base
 6364              	.LVL793:
 6365 0024 2D18     		adds	r5, r5, r0
 6366              	.LVL794:
 6367              		.loc 1 1645 5 discriminator 5 view .LVU1614
 6368 0026 0134     		adds	r4, r4, #1
ARM GAS  /tmp/ccJs7hvj.s 			page 165


 6369              	.LVL795:
 6370              	.L383:
 6371              		.loc 1 1645 5 discriminator 3 view .LVU1615
 6372 0028 B442     		cmp	r4, r6
 6373 002a F5D3     		bcc	.L385
 6374              	.LVL796:
 6375              	.L382:
 6376              		.loc 1 1645 5 is_stmt 0 discriminator 3 view .LVU1616
 6377              	.LBE19:
 6378              	.LBE17:
1646:libscpi/src/parser.c **** }
 6379              		.loc 1 1646 1 view .LVU1617
 6380 002c 2800     		movs	r0, r5
 6381 002e 02B0     		add	sp, sp, #8
 6382              		@ sp needed
 6383              	.LVL797:
 6384              	.LVL798:
 6385              	.LVL799:
 6386              	.LVL800:
 6387              		.loc 1 1646 1 view .LVU1618
 6388 0030 04BC     		pop	{r2}
 6389 0032 9046     		mov	r8, r2
 6390 0034 F0BD     		pop	{r4, r5, r6, r7, pc}
 6391              	.LVL801:
 6392              	.L389:
 6393              	.LBB20:
1645:libscpi/src/parser.c ****     RESULT_ARRAY(SCPI_ResultUInt8);
 6394              		.loc 1 1645 5 is_stmt 1 discriminator 2 view .LVU1619
 6395 0036 0093     		str	r3, [sp]
 6396 0038 0123     		movs	r3, #1
 6397              	.LVL802:
1645:libscpi/src/parser.c ****     RESULT_ARRAY(SCPI_ResultUInt8);
 6398              		.loc 1 1645 5 is_stmt 0 discriminator 2 view .LVU1620
 6399 003a FFF7FEFF 		bl	produceResultArrayBinary
 6400              	.LVL803:
1645:libscpi/src/parser.c ****     RESULT_ARRAY(SCPI_ResultUInt8);
 6401              		.loc 1 1645 5 discriminator 2 view .LVU1621
 6402 003e 0500     		movs	r5, r0
 6403              	.LVL804:
1645:libscpi/src/parser.c ****     RESULT_ARRAY(SCPI_ResultUInt8);
 6404              		.loc 1 1645 5 is_stmt 1 discriminator 2 view .LVU1622
 6405              	.LBE20:
1645:libscpi/src/parser.c ****     RESULT_ARRAY(SCPI_ResultUInt8);
 6406              		.loc 1 1645 5 discriminator 2 view .LVU1623
 6407              	.LBB21:
 6408 0040 F4E7     		b	.L382
 6409              	.LBE21:
 6410              		.cfi_endproc
 6411              	.LFE63:
 6413              		.section	.text.SCPI_ResultArrayInt16,"ax",%progbits
 6414              		.align	1
 6415              		.global	SCPI_ResultArrayInt16
 6416              		.syntax unified
 6417              		.code	16
 6418              		.thumb_func
 6419              		.fpu softvfp
 6421              	SCPI_ResultArrayInt16:
ARM GAS  /tmp/ccJs7hvj.s 			page 166


 6422              	.LVL805:
 6423              	.LFB64:
1647:libscpi/src/parser.c **** 
1648:libscpi/src/parser.c **** /**
1649:libscpi/src/parser.c ****  * Result array of signed 16bit integers
1650:libscpi/src/parser.c ****  * @param context
1651:libscpi/src/parser.c ****  * @param array
1652:libscpi/src/parser.c ****  * @param count
1653:libscpi/src/parser.c ****  * @param format
1654:libscpi/src/parser.c ****  * @return
1655:libscpi/src/parser.c ****  */
1656:libscpi/src/parser.c **** size_t SCPI_ResultArrayInt16(scpi_t * context, const int16_t * array, size_t count, scpi_array_form
 6424              		.loc 1 1656 113 view -0
 6425              		.cfi_startproc
 6426              		@ args = 0, pretend = 0, frame = 0
 6427              		@ frame_needed = 0, uses_anonymous_args = 0
 6428              		.loc 1 1656 113 is_stmt 0 view .LVU1625
 6429 0000 F0B5     		push	{r4, r5, r6, r7, lr}
 6430              	.LCFI100:
 6431              		.cfi_def_cfa_offset 20
 6432              		.cfi_offset 4, -20
 6433              		.cfi_offset 5, -16
 6434              		.cfi_offset 6, -12
 6435              		.cfi_offset 7, -8
 6436              		.cfi_offset 14, -4
 6437 0002 C646     		mov	lr, r8
 6438 0004 00B5     		push	{lr}
 6439              	.LCFI101:
 6440              		.cfi_def_cfa_offset 24
 6441              		.cfi_offset 8, -24
 6442 0006 82B0     		sub	sp, sp, #8
 6443              	.LCFI102:
 6444              		.cfi_def_cfa_offset 32
 6445 0008 0700     		movs	r7, r0
 6446 000a 8846     		mov	r8, r1
 6447 000c 1600     		movs	r6, r2
1657:libscpi/src/parser.c ****     RESULT_ARRAY(SCPI_ResultInt16);
 6448              		.loc 1 1657 5 is_stmt 1 view .LVU1626
 6449              	.LBB22:
 6450              		.loc 1 1657 5 view .LVU1627
 6451              	.LVL806:
 6452              		.loc 1 1657 5 view .LVU1628
 6453 000e 002B     		cmp	r3, #0
 6454 0010 11D1     		bne	.L397
 6455              	.LBB23:
 6456 0012 0024     		movs	r4, #0
 6457              	.LBE23:
 6458 0014 0025     		movs	r5, #0
 6459 0016 07E0     		b	.L391
 6460              	.LVL807:
 6461              	.L393:
 6462              	.LBB24:
 6463              		.loc 1 1657 5 discriminator 5 view .LVU1629
 6464 0018 6300     		lsls	r3, r4, #1
 6465 001a 4246     		mov	r2, r8
 6466 001c 995E     		ldrsh	r1, [r3, r2]
 6467 001e 3800     		movs	r0, r7
ARM GAS  /tmp/ccJs7hvj.s 			page 167


 6468 0020 FFF7FEFF 		bl	SCPI_ResultInt32
 6469              	.LVL808:
 6470 0024 2D18     		adds	r5, r5, r0
 6471              	.LVL809:
 6472              		.loc 1 1657 5 discriminator 5 view .LVU1630
 6473 0026 0134     		adds	r4, r4, #1
 6474              	.LVL810:
 6475              	.L391:
 6476              		.loc 1 1657 5 discriminator 3 view .LVU1631
 6477 0028 B442     		cmp	r4, r6
 6478 002a F5D3     		bcc	.L393
 6479              	.LVL811:
 6480              	.L390:
 6481              		.loc 1 1657 5 is_stmt 0 discriminator 3 view .LVU1632
 6482              	.LBE24:
 6483              	.LBE22:
1658:libscpi/src/parser.c **** }
 6484              		.loc 1 1658 1 view .LVU1633
 6485 002c 2800     		movs	r0, r5
 6486 002e 02B0     		add	sp, sp, #8
 6487              		@ sp needed
 6488              	.LVL812:
 6489              	.LVL813:
 6490              	.LVL814:
 6491              	.LVL815:
 6492              		.loc 1 1658 1 view .LVU1634
 6493 0030 04BC     		pop	{r2}
 6494 0032 9046     		mov	r8, r2
 6495 0034 F0BD     		pop	{r4, r5, r6, r7, pc}
 6496              	.LVL816:
 6497              	.L397:
 6498              	.LBB25:
1657:libscpi/src/parser.c ****     RESULT_ARRAY(SCPI_ResultInt16);
 6499              		.loc 1 1657 5 is_stmt 1 discriminator 2 view .LVU1635
 6500 0036 0093     		str	r3, [sp]
 6501 0038 0223     		movs	r3, #2
 6502              	.LVL817:
1657:libscpi/src/parser.c ****     RESULT_ARRAY(SCPI_ResultInt16);
 6503              		.loc 1 1657 5 is_stmt 0 discriminator 2 view .LVU1636
 6504 003a FFF7FEFF 		bl	produceResultArrayBinary
 6505              	.LVL818:
1657:libscpi/src/parser.c ****     RESULT_ARRAY(SCPI_ResultInt16);
 6506              		.loc 1 1657 5 discriminator 2 view .LVU1637
 6507 003e 0500     		movs	r5, r0
 6508              	.LVL819:
1657:libscpi/src/parser.c ****     RESULT_ARRAY(SCPI_ResultInt16);
 6509              		.loc 1 1657 5 is_stmt 1 discriminator 2 view .LVU1638
 6510              	.LBE25:
1657:libscpi/src/parser.c ****     RESULT_ARRAY(SCPI_ResultInt16);
 6511              		.loc 1 1657 5 discriminator 2 view .LVU1639
 6512              	.LBB26:
 6513 0040 F4E7     		b	.L390
 6514              	.LBE26:
 6515              		.cfi_endproc
 6516              	.LFE64:
 6518              		.section	.text.SCPI_ResultArrayUInt16,"ax",%progbits
 6519              		.align	1
ARM GAS  /tmp/ccJs7hvj.s 			page 168


 6520              		.global	SCPI_ResultArrayUInt16
 6521              		.syntax unified
 6522              		.code	16
 6523              		.thumb_func
 6524              		.fpu softvfp
 6526              	SCPI_ResultArrayUInt16:
 6527              	.LVL820:
 6528              	.LFB65:
1659:libscpi/src/parser.c **** 
1660:libscpi/src/parser.c **** /**
1661:libscpi/src/parser.c ****  * Result array of unsigned 16bit integers
1662:libscpi/src/parser.c ****  * @param context
1663:libscpi/src/parser.c ****  * @param array
1664:libscpi/src/parser.c ****  * @param count
1665:libscpi/src/parser.c ****  * @param format
1666:libscpi/src/parser.c ****  * @return
1667:libscpi/src/parser.c ****  */
1668:libscpi/src/parser.c **** size_t SCPI_ResultArrayUInt16(scpi_t * context, const uint16_t * array, size_t count, scpi_array_fo
 6529              		.loc 1 1668 115 view -0
 6530              		.cfi_startproc
 6531              		@ args = 0, pretend = 0, frame = 0
 6532              		@ frame_needed = 0, uses_anonymous_args = 0
 6533              		.loc 1 1668 115 is_stmt 0 view .LVU1641
 6534 0000 F0B5     		push	{r4, r5, r6, r7, lr}
 6535              	.LCFI103:
 6536              		.cfi_def_cfa_offset 20
 6537              		.cfi_offset 4, -20
 6538              		.cfi_offset 5, -16
 6539              		.cfi_offset 6, -12
 6540              		.cfi_offset 7, -8
 6541              		.cfi_offset 14, -4
 6542 0002 C646     		mov	lr, r8
 6543 0004 00B5     		push	{lr}
 6544              	.LCFI104:
 6545              		.cfi_def_cfa_offset 24
 6546              		.cfi_offset 8, -24
 6547 0006 82B0     		sub	sp, sp, #8
 6548              	.LCFI105:
 6549              		.cfi_def_cfa_offset 32
 6550 0008 0700     		movs	r7, r0
 6551 000a 8846     		mov	r8, r1
 6552 000c 1600     		movs	r6, r2
1669:libscpi/src/parser.c ****     RESULT_ARRAY(SCPI_ResultUInt16);
 6553              		.loc 1 1669 5 is_stmt 1 view .LVU1642
 6554              	.LBB27:
 6555              		.loc 1 1669 5 view .LVU1643
 6556              	.LVL821:
 6557              		.loc 1 1669 5 view .LVU1644
 6558 000e 002B     		cmp	r3, #0
 6559 0010 12D1     		bne	.L405
 6560              	.LBB28:
 6561 0012 0024     		movs	r4, #0
 6562              	.LBE28:
 6563 0014 0025     		movs	r5, #0
 6564 0016 08E0     		b	.L399
 6565              	.LVL822:
 6566              	.L401:
ARM GAS  /tmp/ccJs7hvj.s 			page 169


 6567              	.LBB29:
 6568              		.loc 1 1669 5 discriminator 5 view .LVU1645
 6569 0018 6300     		lsls	r3, r4, #1
 6570 001a 4246     		mov	r2, r8
 6571 001c 995A     		ldrh	r1, [r3, r2]
 6572 001e 0A22     		movs	r2, #10
 6573 0020 3800     		movs	r0, r7
 6574 0022 FFF7FEFF 		bl	SCPI_ResultUInt32Base
 6575              	.LVL823:
 6576 0026 2D18     		adds	r5, r5, r0
 6577              	.LVL824:
 6578              		.loc 1 1669 5 discriminator 5 view .LVU1646
 6579 0028 0134     		adds	r4, r4, #1
 6580              	.LVL825:
 6581              	.L399:
 6582              		.loc 1 1669 5 discriminator 3 view .LVU1647
 6583 002a B442     		cmp	r4, r6
 6584 002c F4D3     		bcc	.L401
 6585              	.LVL826:
 6586              	.L398:
 6587              		.loc 1 1669 5 is_stmt 0 discriminator 3 view .LVU1648
 6588              	.LBE29:
 6589              	.LBE27:
1670:libscpi/src/parser.c **** }
 6590              		.loc 1 1670 1 view .LVU1649
 6591 002e 2800     		movs	r0, r5
 6592 0030 02B0     		add	sp, sp, #8
 6593              		@ sp needed
 6594              	.LVL827:
 6595              	.LVL828:
 6596              	.LVL829:
 6597              	.LVL830:
 6598              		.loc 1 1670 1 view .LVU1650
 6599 0032 04BC     		pop	{r2}
 6600 0034 9046     		mov	r8, r2
 6601 0036 F0BD     		pop	{r4, r5, r6, r7, pc}
 6602              	.LVL831:
 6603              	.L405:
 6604              	.LBB30:
1669:libscpi/src/parser.c ****     RESULT_ARRAY(SCPI_ResultUInt16);
 6605              		.loc 1 1669 5 is_stmt 1 discriminator 2 view .LVU1651
 6606 0038 0093     		str	r3, [sp]
 6607 003a 0223     		movs	r3, #2
 6608              	.LVL832:
1669:libscpi/src/parser.c ****     RESULT_ARRAY(SCPI_ResultUInt16);
 6609              		.loc 1 1669 5 is_stmt 0 discriminator 2 view .LVU1652
 6610 003c FFF7FEFF 		bl	produceResultArrayBinary
 6611              	.LVL833:
1669:libscpi/src/parser.c ****     RESULT_ARRAY(SCPI_ResultUInt16);
 6612              		.loc 1 1669 5 discriminator 2 view .LVU1653
 6613 0040 0500     		movs	r5, r0
 6614              	.LVL834:
1669:libscpi/src/parser.c ****     RESULT_ARRAY(SCPI_ResultUInt16);
 6615              		.loc 1 1669 5 is_stmt 1 discriminator 2 view .LVU1654
 6616              	.LBE30:
1669:libscpi/src/parser.c ****     RESULT_ARRAY(SCPI_ResultUInt16);
 6617              		.loc 1 1669 5 discriminator 2 view .LVU1655
ARM GAS  /tmp/ccJs7hvj.s 			page 170


 6618              	.LBB31:
 6619 0042 F4E7     		b	.L398
 6620              	.LBE31:
 6621              		.cfi_endproc
 6622              	.LFE65:
 6624              		.section	.text.SCPI_ResultArrayInt32,"ax",%progbits
 6625              		.align	1
 6626              		.global	SCPI_ResultArrayInt32
 6627              		.syntax unified
 6628              		.code	16
 6629              		.thumb_func
 6630              		.fpu softvfp
 6632              	SCPI_ResultArrayInt32:
 6633              	.LVL835:
 6634              	.LFB66:
1671:libscpi/src/parser.c **** 
1672:libscpi/src/parser.c **** /**
1673:libscpi/src/parser.c ****  * Result array of signed 32bit integers
1674:libscpi/src/parser.c ****  * @param context
1675:libscpi/src/parser.c ****  * @param array
1676:libscpi/src/parser.c ****  * @param count
1677:libscpi/src/parser.c ****  * @param format
1678:libscpi/src/parser.c ****  * @return
1679:libscpi/src/parser.c ****  */
1680:libscpi/src/parser.c **** size_t SCPI_ResultArrayInt32(scpi_t * context, const int32_t * array, size_t count, scpi_array_form
 6635              		.loc 1 1680 113 view -0
 6636              		.cfi_startproc
 6637              		@ args = 0, pretend = 0, frame = 0
 6638              		@ frame_needed = 0, uses_anonymous_args = 0
 6639              		.loc 1 1680 113 is_stmt 0 view .LVU1657
 6640 0000 F0B5     		push	{r4, r5, r6, r7, lr}
 6641              	.LCFI106:
 6642              		.cfi_def_cfa_offset 20
 6643              		.cfi_offset 4, -20
 6644              		.cfi_offset 5, -16
 6645              		.cfi_offset 6, -12
 6646              		.cfi_offset 7, -8
 6647              		.cfi_offset 14, -4
 6648 0002 C646     		mov	lr, r8
 6649 0004 00B5     		push	{lr}
 6650              	.LCFI107:
 6651              		.cfi_def_cfa_offset 24
 6652              		.cfi_offset 8, -24
 6653 0006 82B0     		sub	sp, sp, #8
 6654              	.LCFI108:
 6655              		.cfi_def_cfa_offset 32
 6656 0008 0700     		movs	r7, r0
 6657 000a 8846     		mov	r8, r1
 6658 000c 1600     		movs	r6, r2
1681:libscpi/src/parser.c ****     RESULT_ARRAY(SCPI_ResultInt32);
 6659              		.loc 1 1681 5 is_stmt 1 view .LVU1658
 6660              	.LBB32:
 6661              		.loc 1 1681 5 view .LVU1659
 6662              	.LVL836:
 6663              		.loc 1 1681 5 view .LVU1660
 6664 000e 002B     		cmp	r3, #0
 6665 0010 11D1     		bne	.L413
ARM GAS  /tmp/ccJs7hvj.s 			page 171


 6666              	.LBB33:
 6667 0012 0024     		movs	r4, #0
 6668              	.LBE33:
 6669 0014 0025     		movs	r5, #0
 6670 0016 07E0     		b	.L407
 6671              	.LVL837:
 6672              	.L409:
 6673              	.LBB34:
 6674              		.loc 1 1681 5 discriminator 5 view .LVU1661
 6675 0018 A300     		lsls	r3, r4, #2
 6676 001a 4246     		mov	r2, r8
 6677 001c D158     		ldr	r1, [r2, r3]
 6678 001e 3800     		movs	r0, r7
 6679 0020 FFF7FEFF 		bl	SCPI_ResultInt32
 6680              	.LVL838:
 6681 0024 2D18     		adds	r5, r5, r0
 6682              	.LVL839:
 6683              		.loc 1 1681 5 discriminator 5 view .LVU1662
 6684 0026 0134     		adds	r4, r4, #1
 6685              	.LVL840:
 6686              	.L407:
 6687              		.loc 1 1681 5 discriminator 3 view .LVU1663
 6688 0028 B442     		cmp	r4, r6
 6689 002a F5D3     		bcc	.L409
 6690              	.LVL841:
 6691              	.L406:
 6692              		.loc 1 1681 5 is_stmt 0 discriminator 3 view .LVU1664
 6693              	.LBE34:
 6694              	.LBE32:
1682:libscpi/src/parser.c **** }
 6695              		.loc 1 1682 1 view .LVU1665
 6696 002c 2800     		movs	r0, r5
 6697 002e 02B0     		add	sp, sp, #8
 6698              		@ sp needed
 6699              	.LVL842:
 6700              	.LVL843:
 6701              	.LVL844:
 6702              	.LVL845:
 6703              		.loc 1 1682 1 view .LVU1666
 6704 0030 04BC     		pop	{r2}
 6705 0032 9046     		mov	r8, r2
 6706 0034 F0BD     		pop	{r4, r5, r6, r7, pc}
 6707              	.LVL846:
 6708              	.L413:
 6709              	.LBB35:
1681:libscpi/src/parser.c ****     RESULT_ARRAY(SCPI_ResultInt32);
 6710              		.loc 1 1681 5 is_stmt 1 discriminator 2 view .LVU1667
 6711 0036 0093     		str	r3, [sp]
 6712 0038 0423     		movs	r3, #4
 6713              	.LVL847:
1681:libscpi/src/parser.c ****     RESULT_ARRAY(SCPI_ResultInt32);
 6714              		.loc 1 1681 5 is_stmt 0 discriminator 2 view .LVU1668
 6715 003a FFF7FEFF 		bl	produceResultArrayBinary
 6716              	.LVL848:
1681:libscpi/src/parser.c ****     RESULT_ARRAY(SCPI_ResultInt32);
 6717              		.loc 1 1681 5 discriminator 2 view .LVU1669
 6718 003e 0500     		movs	r5, r0
ARM GAS  /tmp/ccJs7hvj.s 			page 172


 6719              	.LVL849:
1681:libscpi/src/parser.c ****     RESULT_ARRAY(SCPI_ResultInt32);
 6720              		.loc 1 1681 5 is_stmt 1 discriminator 2 view .LVU1670
 6721              	.LBE35:
1681:libscpi/src/parser.c ****     RESULT_ARRAY(SCPI_ResultInt32);
 6722              		.loc 1 1681 5 discriminator 2 view .LVU1671
 6723              	.LBB36:
 6724 0040 F4E7     		b	.L406
 6725              	.LBE36:
 6726              		.cfi_endproc
 6727              	.LFE66:
 6729              		.section	.text.SCPI_ResultArrayUInt32,"ax",%progbits
 6730              		.align	1
 6731              		.global	SCPI_ResultArrayUInt32
 6732              		.syntax unified
 6733              		.code	16
 6734              		.thumb_func
 6735              		.fpu softvfp
 6737              	SCPI_ResultArrayUInt32:
 6738              	.LVL850:
 6739              	.LFB67:
1683:libscpi/src/parser.c **** 
1684:libscpi/src/parser.c **** /**
1685:libscpi/src/parser.c ****  * Result array of unsigned 32bit integers
1686:libscpi/src/parser.c ****  * @param context
1687:libscpi/src/parser.c ****  * @param array
1688:libscpi/src/parser.c ****  * @param count
1689:libscpi/src/parser.c ****  * @param format
1690:libscpi/src/parser.c ****  * @return
1691:libscpi/src/parser.c ****  */
1692:libscpi/src/parser.c **** size_t SCPI_ResultArrayUInt32(scpi_t * context, const uint32_t * array, size_t count, scpi_array_fo
 6740              		.loc 1 1692 115 view -0
 6741              		.cfi_startproc
 6742              		@ args = 0, pretend = 0, frame = 0
 6743              		@ frame_needed = 0, uses_anonymous_args = 0
 6744              		.loc 1 1692 115 is_stmt 0 view .LVU1673
 6745 0000 F0B5     		push	{r4, r5, r6, r7, lr}
 6746              	.LCFI109:
 6747              		.cfi_def_cfa_offset 20
 6748              		.cfi_offset 4, -20
 6749              		.cfi_offset 5, -16
 6750              		.cfi_offset 6, -12
 6751              		.cfi_offset 7, -8
 6752              		.cfi_offset 14, -4
 6753 0002 C646     		mov	lr, r8
 6754 0004 00B5     		push	{lr}
 6755              	.LCFI110:
 6756              		.cfi_def_cfa_offset 24
 6757              		.cfi_offset 8, -24
 6758 0006 82B0     		sub	sp, sp, #8
 6759              	.LCFI111:
 6760              		.cfi_def_cfa_offset 32
 6761 0008 0700     		movs	r7, r0
 6762 000a 8846     		mov	r8, r1
 6763 000c 1600     		movs	r6, r2
1693:libscpi/src/parser.c ****     RESULT_ARRAY(SCPI_ResultUInt32);
 6764              		.loc 1 1693 5 is_stmt 1 view .LVU1674
ARM GAS  /tmp/ccJs7hvj.s 			page 173


 6765              	.LBB37:
 6766              		.loc 1 1693 5 view .LVU1675
 6767              	.LVL851:
 6768              		.loc 1 1693 5 view .LVU1676
 6769 000e 002B     		cmp	r3, #0
 6770 0010 12D1     		bne	.L421
 6771              	.LBB38:
 6772 0012 0024     		movs	r4, #0
 6773              	.LBE38:
 6774 0014 0025     		movs	r5, #0
 6775 0016 08E0     		b	.L415
 6776              	.LVL852:
 6777              	.L417:
 6778              	.LBB39:
 6779              		.loc 1 1693 5 discriminator 5 view .LVU1677
 6780 0018 A300     		lsls	r3, r4, #2
 6781 001a 4246     		mov	r2, r8
 6782 001c D158     		ldr	r1, [r2, r3]
 6783 001e 0A22     		movs	r2, #10
 6784 0020 3800     		movs	r0, r7
 6785 0022 FFF7FEFF 		bl	SCPI_ResultUInt32Base
 6786              	.LVL853:
 6787 0026 2D18     		adds	r5, r5, r0
 6788              	.LVL854:
 6789              		.loc 1 1693 5 discriminator 5 view .LVU1678
 6790 0028 0134     		adds	r4, r4, #1
 6791              	.LVL855:
 6792              	.L415:
 6793              		.loc 1 1693 5 discriminator 3 view .LVU1679
 6794 002a B442     		cmp	r4, r6
 6795 002c F4D3     		bcc	.L417
 6796              	.LVL856:
 6797              	.L414:
 6798              		.loc 1 1693 5 is_stmt 0 discriminator 3 view .LVU1680
 6799              	.LBE39:
 6800              	.LBE37:
1694:libscpi/src/parser.c **** }
 6801              		.loc 1 1694 1 view .LVU1681
 6802 002e 2800     		movs	r0, r5
 6803 0030 02B0     		add	sp, sp, #8
 6804              		@ sp needed
 6805              	.LVL857:
 6806              	.LVL858:
 6807              	.LVL859:
 6808              	.LVL860:
 6809              		.loc 1 1694 1 view .LVU1682
 6810 0032 04BC     		pop	{r2}
 6811 0034 9046     		mov	r8, r2
 6812 0036 F0BD     		pop	{r4, r5, r6, r7, pc}
 6813              	.LVL861:
 6814              	.L421:
 6815              	.LBB40:
1693:libscpi/src/parser.c ****     RESULT_ARRAY(SCPI_ResultUInt32);
 6816              		.loc 1 1693 5 is_stmt 1 discriminator 2 view .LVU1683
 6817 0038 0093     		str	r3, [sp]
 6818 003a 0423     		movs	r3, #4
 6819              	.LVL862:
ARM GAS  /tmp/ccJs7hvj.s 			page 174


1693:libscpi/src/parser.c ****     RESULT_ARRAY(SCPI_ResultUInt32);
 6820              		.loc 1 1693 5 is_stmt 0 discriminator 2 view .LVU1684
 6821 003c FFF7FEFF 		bl	produceResultArrayBinary
 6822              	.LVL863:
1693:libscpi/src/parser.c ****     RESULT_ARRAY(SCPI_ResultUInt32);
 6823              		.loc 1 1693 5 discriminator 2 view .LVU1685
 6824 0040 0500     		movs	r5, r0
 6825              	.LVL864:
1693:libscpi/src/parser.c ****     RESULT_ARRAY(SCPI_ResultUInt32);
 6826              		.loc 1 1693 5 is_stmt 1 discriminator 2 view .LVU1686
 6827              	.LBE40:
1693:libscpi/src/parser.c ****     RESULT_ARRAY(SCPI_ResultUInt32);
 6828              		.loc 1 1693 5 discriminator 2 view .LVU1687
 6829              	.LBB41:
 6830 0042 F4E7     		b	.L414
 6831              	.LBE41:
 6832              		.cfi_endproc
 6833              	.LFE67:
 6835              		.section	.text.SCPI_ResultArrayInt64,"ax",%progbits
 6836              		.align	1
 6837              		.global	SCPI_ResultArrayInt64
 6838              		.syntax unified
 6839              		.code	16
 6840              		.thumb_func
 6841              		.fpu softvfp
 6843              	SCPI_ResultArrayInt64:
 6844              	.LVL865:
 6845              	.LFB68:
1695:libscpi/src/parser.c **** 
1696:libscpi/src/parser.c **** /**
1697:libscpi/src/parser.c ****  * Result array of signed 64bit integers
1698:libscpi/src/parser.c ****  * @param context
1699:libscpi/src/parser.c ****  * @param array
1700:libscpi/src/parser.c ****  * @param count
1701:libscpi/src/parser.c ****  * @param format
1702:libscpi/src/parser.c ****  * @return
1703:libscpi/src/parser.c ****  */
1704:libscpi/src/parser.c **** size_t SCPI_ResultArrayInt64(scpi_t * context, const int64_t * array, size_t count, scpi_array_form
 6846              		.loc 1 1704 113 view -0
 6847              		.cfi_startproc
 6848              		@ args = 0, pretend = 0, frame = 0
 6849              		@ frame_needed = 0, uses_anonymous_args = 0
 6850              		.loc 1 1704 113 is_stmt 0 view .LVU1689
 6851 0000 F0B5     		push	{r4, r5, r6, r7, lr}
 6852              	.LCFI112:
 6853              		.cfi_def_cfa_offset 20
 6854              		.cfi_offset 4, -20
 6855              		.cfi_offset 5, -16
 6856              		.cfi_offset 6, -12
 6857              		.cfi_offset 7, -8
 6858              		.cfi_offset 14, -4
 6859 0002 C646     		mov	lr, r8
 6860 0004 00B5     		push	{lr}
 6861              	.LCFI113:
 6862              		.cfi_def_cfa_offset 24
 6863              		.cfi_offset 8, -24
 6864 0006 82B0     		sub	sp, sp, #8
ARM GAS  /tmp/ccJs7hvj.s 			page 175


 6865              	.LCFI114:
 6866              		.cfi_def_cfa_offset 32
 6867 0008 0700     		movs	r7, r0
 6868 000a 8846     		mov	r8, r1
 6869 000c 1600     		movs	r6, r2
1705:libscpi/src/parser.c ****     RESULT_ARRAY(SCPI_ResultInt64);
 6870              		.loc 1 1705 5 is_stmt 1 view .LVU1690
 6871              	.LBB42:
 6872              		.loc 1 1705 5 view .LVU1691
 6873              	.LVL866:
 6874              		.loc 1 1705 5 view .LVU1692
 6875 000e 002B     		cmp	r3, #0
 6876 0010 12D1     		bne	.L429
 6877              	.LBB43:
 6878 0012 0024     		movs	r4, #0
 6879              	.LBE43:
 6880 0014 0025     		movs	r5, #0
 6881 0016 08E0     		b	.L423
 6882              	.LVL867:
 6883              	.L425:
 6884              	.LBB44:
 6885              		.loc 1 1705 5 discriminator 5 view .LVU1693
 6886 0018 E300     		lsls	r3, r4, #3
 6887 001a 4344     		add	r3, r3, r8
 6888 001c 1A68     		ldr	r2, [r3]
 6889 001e 5B68     		ldr	r3, [r3, #4]
 6890 0020 3800     		movs	r0, r7
 6891 0022 FFF7FEFF 		bl	SCPI_ResultInt64
 6892              	.LVL868:
 6893 0026 2D18     		adds	r5, r5, r0
 6894              	.LVL869:
 6895              		.loc 1 1705 5 discriminator 5 view .LVU1694
 6896 0028 0134     		adds	r4, r4, #1
 6897              	.LVL870:
 6898              	.L423:
 6899              		.loc 1 1705 5 discriminator 3 view .LVU1695
 6900 002a B442     		cmp	r4, r6
 6901 002c F4D3     		bcc	.L425
 6902              	.LVL871:
 6903              	.L422:
 6904              		.loc 1 1705 5 is_stmt 0 discriminator 3 view .LVU1696
 6905              	.LBE44:
 6906              	.LBE42:
1706:libscpi/src/parser.c **** }
 6907              		.loc 1 1706 1 view .LVU1697
 6908 002e 2800     		movs	r0, r5
 6909 0030 02B0     		add	sp, sp, #8
 6910              		@ sp needed
 6911              	.LVL872:
 6912              	.LVL873:
 6913              	.LVL874:
 6914              	.LVL875:
 6915              		.loc 1 1706 1 view .LVU1698
 6916 0032 04BC     		pop	{r2}
 6917 0034 9046     		mov	r8, r2
 6918 0036 F0BD     		pop	{r4, r5, r6, r7, pc}
 6919              	.LVL876:
ARM GAS  /tmp/ccJs7hvj.s 			page 176


 6920              	.L429:
 6921              	.LBB45:
1705:libscpi/src/parser.c ****     RESULT_ARRAY(SCPI_ResultInt64);
 6922              		.loc 1 1705 5 is_stmt 1 discriminator 2 view .LVU1699
 6923 0038 0093     		str	r3, [sp]
 6924 003a 0823     		movs	r3, #8
 6925              	.LVL877:
1705:libscpi/src/parser.c ****     RESULT_ARRAY(SCPI_ResultInt64);
 6926              		.loc 1 1705 5 is_stmt 0 discriminator 2 view .LVU1700
 6927 003c FFF7FEFF 		bl	produceResultArrayBinary
 6928              	.LVL878:
1705:libscpi/src/parser.c ****     RESULT_ARRAY(SCPI_ResultInt64);
 6929              		.loc 1 1705 5 discriminator 2 view .LVU1701
 6930 0040 0500     		movs	r5, r0
 6931              	.LVL879:
1705:libscpi/src/parser.c ****     RESULT_ARRAY(SCPI_ResultInt64);
 6932              		.loc 1 1705 5 is_stmt 1 discriminator 2 view .LVU1702
 6933              	.LBE45:
1705:libscpi/src/parser.c ****     RESULT_ARRAY(SCPI_ResultInt64);
 6934              		.loc 1 1705 5 discriminator 2 view .LVU1703
 6935              	.LBB46:
 6936 0042 F4E7     		b	.L422
 6937              	.LBE46:
 6938              		.cfi_endproc
 6939              	.LFE68:
 6941              		.section	.text.SCPI_ResultArrayUInt64,"ax",%progbits
 6942              		.align	1
 6943              		.global	SCPI_ResultArrayUInt64
 6944              		.syntax unified
 6945              		.code	16
 6946              		.thumb_func
 6947              		.fpu softvfp
 6949              	SCPI_ResultArrayUInt64:
 6950              	.LVL880:
 6951              	.LFB69:
1707:libscpi/src/parser.c **** 
1708:libscpi/src/parser.c **** /**
1709:libscpi/src/parser.c ****  * Result array of unsigned 64bit integers
1710:libscpi/src/parser.c ****  * @param context
1711:libscpi/src/parser.c ****  * @param array
1712:libscpi/src/parser.c ****  * @param count
1713:libscpi/src/parser.c ****  * @param format
1714:libscpi/src/parser.c ****  * @return
1715:libscpi/src/parser.c ****  */
1716:libscpi/src/parser.c **** size_t SCPI_ResultArrayUInt64(scpi_t * context, const uint64_t * array, size_t count, scpi_array_fo
 6952              		.loc 1 1716 115 view -0
 6953              		.cfi_startproc
 6954              		@ args = 0, pretend = 0, frame = 0
 6955              		@ frame_needed = 0, uses_anonymous_args = 0
 6956              		.loc 1 1716 115 is_stmt 0 view .LVU1705
 6957 0000 F0B5     		push	{r4, r5, r6, r7, lr}
 6958              	.LCFI115:
 6959              		.cfi_def_cfa_offset 20
 6960              		.cfi_offset 4, -20
 6961              		.cfi_offset 5, -16
 6962              		.cfi_offset 6, -12
 6963              		.cfi_offset 7, -8
ARM GAS  /tmp/ccJs7hvj.s 			page 177


 6964              		.cfi_offset 14, -4
 6965 0002 C646     		mov	lr, r8
 6966 0004 00B5     		push	{lr}
 6967              	.LCFI116:
 6968              		.cfi_def_cfa_offset 24
 6969              		.cfi_offset 8, -24
 6970 0006 82B0     		sub	sp, sp, #8
 6971              	.LCFI117:
 6972              		.cfi_def_cfa_offset 32
 6973 0008 0700     		movs	r7, r0
 6974 000a 8846     		mov	r8, r1
 6975 000c 1600     		movs	r6, r2
1717:libscpi/src/parser.c ****     RESULT_ARRAY(SCPI_ResultUInt64);
 6976              		.loc 1 1717 5 is_stmt 1 view .LVU1706
 6977              	.LBB47:
 6978              		.loc 1 1717 5 view .LVU1707
 6979              	.LVL881:
 6980              		.loc 1 1717 5 view .LVU1708
 6981 000e 002B     		cmp	r3, #0
 6982 0010 14D1     		bne	.L437
 6983              	.LBB48:
 6984 0012 0024     		movs	r4, #0
 6985              	.LBE48:
 6986 0014 0025     		movs	r5, #0
 6987 0016 0AE0     		b	.L431
 6988              	.LVL882:
 6989              	.L433:
 6990              	.LBB49:
 6991              		.loc 1 1717 5 discriminator 5 view .LVU1709
 6992 0018 E300     		lsls	r3, r4, #3
 6993 001a 4344     		add	r3, r3, r8
 6994 001c 1A68     		ldr	r2, [r3]
 6995 001e 5B68     		ldr	r3, [r3, #4]
 6996 0020 0A21     		movs	r1, #10
 6997 0022 0091     		str	r1, [sp]
 6998 0024 3800     		movs	r0, r7
 6999 0026 FFF7FEFF 		bl	SCPI_ResultUInt64Base
 7000              	.LVL883:
 7001 002a 2D18     		adds	r5, r5, r0
 7002              	.LVL884:
 7003              		.loc 1 1717 5 discriminator 5 view .LVU1710
 7004 002c 0134     		adds	r4, r4, #1
 7005              	.LVL885:
 7006              	.L431:
 7007              		.loc 1 1717 5 discriminator 3 view .LVU1711
 7008 002e B442     		cmp	r4, r6
 7009 0030 F2D3     		bcc	.L433
 7010              	.LVL886:
 7011              	.L430:
 7012              		.loc 1 1717 5 is_stmt 0 discriminator 3 view .LVU1712
 7013              	.LBE49:
 7014              	.LBE47:
1718:libscpi/src/parser.c **** }
 7015              		.loc 1 1718 1 view .LVU1713
 7016 0032 2800     		movs	r0, r5
 7017 0034 02B0     		add	sp, sp, #8
 7018              		@ sp needed
ARM GAS  /tmp/ccJs7hvj.s 			page 178


 7019              	.LVL887:
 7020              	.LVL888:
 7021              	.LVL889:
 7022              	.LVL890:
 7023              		.loc 1 1718 1 view .LVU1714
 7024 0036 04BC     		pop	{r2}
 7025 0038 9046     		mov	r8, r2
 7026 003a F0BD     		pop	{r4, r5, r6, r7, pc}
 7027              	.LVL891:
 7028              	.L437:
 7029              	.LBB50:
1717:libscpi/src/parser.c ****     RESULT_ARRAY(SCPI_ResultUInt64);
 7030              		.loc 1 1717 5 is_stmt 1 discriminator 2 view .LVU1715
 7031 003c 0093     		str	r3, [sp]
 7032 003e 0823     		movs	r3, #8
 7033              	.LVL892:
1717:libscpi/src/parser.c ****     RESULT_ARRAY(SCPI_ResultUInt64);
 7034              		.loc 1 1717 5 is_stmt 0 discriminator 2 view .LVU1716
 7035 0040 FFF7FEFF 		bl	produceResultArrayBinary
 7036              	.LVL893:
1717:libscpi/src/parser.c ****     RESULT_ARRAY(SCPI_ResultUInt64);
 7037              		.loc 1 1717 5 discriminator 2 view .LVU1717
 7038 0044 0500     		movs	r5, r0
 7039              	.LVL894:
1717:libscpi/src/parser.c ****     RESULT_ARRAY(SCPI_ResultUInt64);
 7040              		.loc 1 1717 5 is_stmt 1 discriminator 2 view .LVU1718
 7041              	.LBE50:
1717:libscpi/src/parser.c ****     RESULT_ARRAY(SCPI_ResultUInt64);
 7042              		.loc 1 1717 5 discriminator 2 view .LVU1719
 7043              	.LBB51:
 7044 0046 F4E7     		b	.L430
 7045              	.LBE51:
 7046              		.cfi_endproc
 7047              	.LFE69:
 7049              		.section	.text.SCPI_ResultArrayFloat,"ax",%progbits
 7050              		.align	1
 7051              		.global	SCPI_ResultArrayFloat
 7052              		.syntax unified
 7053              		.code	16
 7054              		.thumb_func
 7055              		.fpu softvfp
 7057              	SCPI_ResultArrayFloat:
 7058              	.LVL895:
 7059              	.LFB70:
1719:libscpi/src/parser.c **** 
1720:libscpi/src/parser.c **** /**
1721:libscpi/src/parser.c ****  * Result array of floats
1722:libscpi/src/parser.c ****  * @param context
1723:libscpi/src/parser.c ****  * @param array
1724:libscpi/src/parser.c ****  * @param count
1725:libscpi/src/parser.c ****  * @param format
1726:libscpi/src/parser.c ****  * @return
1727:libscpi/src/parser.c ****  */
1728:libscpi/src/parser.c **** size_t SCPI_ResultArrayFloat(scpi_t * context, const float * array, size_t count, scpi_array_format
 7060              		.loc 1 1728 111 view -0
 7061              		.cfi_startproc
 7062              		@ args = 0, pretend = 0, frame = 0
ARM GAS  /tmp/ccJs7hvj.s 			page 179


 7063              		@ frame_needed = 0, uses_anonymous_args = 0
 7064              		.loc 1 1728 111 is_stmt 0 view .LVU1721
 7065 0000 F0B5     		push	{r4, r5, r6, r7, lr}
 7066              	.LCFI118:
 7067              		.cfi_def_cfa_offset 20
 7068              		.cfi_offset 4, -20
 7069              		.cfi_offset 5, -16
 7070              		.cfi_offset 6, -12
 7071              		.cfi_offset 7, -8
 7072              		.cfi_offset 14, -4
 7073 0002 C646     		mov	lr, r8
 7074 0004 00B5     		push	{lr}
 7075              	.LCFI119:
 7076              		.cfi_def_cfa_offset 24
 7077              		.cfi_offset 8, -24
 7078 0006 82B0     		sub	sp, sp, #8
 7079              	.LCFI120:
 7080              		.cfi_def_cfa_offset 32
 7081 0008 0700     		movs	r7, r0
 7082 000a 8846     		mov	r8, r1
 7083 000c 1600     		movs	r6, r2
1729:libscpi/src/parser.c ****     RESULT_ARRAY(SCPI_ResultFloat);
 7084              		.loc 1 1729 5 is_stmt 1 view .LVU1722
 7085              	.LBB52:
 7086              		.loc 1 1729 5 view .LVU1723
 7087              	.LVL896:
 7088              		.loc 1 1729 5 view .LVU1724
 7089 000e 002B     		cmp	r3, #0
 7090 0010 11D1     		bne	.L445
 7091              	.LBB53:
 7092 0012 0024     		movs	r4, #0
 7093              	.LBE53:
 7094 0014 0025     		movs	r5, #0
 7095 0016 07E0     		b	.L439
 7096              	.LVL897:
 7097              	.L441:
 7098              	.LBB54:
 7099              		.loc 1 1729 5 discriminator 5 view .LVU1725
 7100 0018 A300     		lsls	r3, r4, #2
 7101 001a 4246     		mov	r2, r8
 7102 001c D158     		ldr	r1, [r2, r3]
 7103 001e 3800     		movs	r0, r7
 7104 0020 FFF7FEFF 		bl	SCPI_ResultFloat
 7105              	.LVL898:
 7106 0024 2D18     		adds	r5, r5, r0
 7107              	.LVL899:
 7108              		.loc 1 1729 5 discriminator 5 view .LVU1726
 7109 0026 0134     		adds	r4, r4, #1
 7110              	.LVL900:
 7111              	.L439:
 7112              		.loc 1 1729 5 discriminator 3 view .LVU1727
 7113 0028 B442     		cmp	r4, r6
 7114 002a F5D3     		bcc	.L441
 7115              	.LVL901:
 7116              	.L438:
 7117              		.loc 1 1729 5 is_stmt 0 discriminator 3 view .LVU1728
 7118              	.LBE54:
ARM GAS  /tmp/ccJs7hvj.s 			page 180


 7119              	.LBE52:
1730:libscpi/src/parser.c **** }
 7120              		.loc 1 1730 1 view .LVU1729
 7121 002c 2800     		movs	r0, r5
 7122 002e 02B0     		add	sp, sp, #8
 7123              		@ sp needed
 7124              	.LVL902:
 7125              	.LVL903:
 7126              	.LVL904:
 7127              	.LVL905:
 7128              		.loc 1 1730 1 view .LVU1730
 7129 0030 04BC     		pop	{r2}
 7130 0032 9046     		mov	r8, r2
 7131 0034 F0BD     		pop	{r4, r5, r6, r7, pc}
 7132              	.LVL906:
 7133              	.L445:
 7134              	.LBB55:
1729:libscpi/src/parser.c ****     RESULT_ARRAY(SCPI_ResultFloat);
 7135              		.loc 1 1729 5 is_stmt 1 discriminator 2 view .LVU1731
 7136 0036 0093     		str	r3, [sp]
 7137 0038 0423     		movs	r3, #4
 7138              	.LVL907:
1729:libscpi/src/parser.c ****     RESULT_ARRAY(SCPI_ResultFloat);
 7139              		.loc 1 1729 5 is_stmt 0 discriminator 2 view .LVU1732
 7140 003a FFF7FEFF 		bl	produceResultArrayBinary
 7141              	.LVL908:
1729:libscpi/src/parser.c ****     RESULT_ARRAY(SCPI_ResultFloat);
 7142              		.loc 1 1729 5 discriminator 2 view .LVU1733
 7143 003e 0500     		movs	r5, r0
 7144              	.LVL909:
1729:libscpi/src/parser.c ****     RESULT_ARRAY(SCPI_ResultFloat);
 7145              		.loc 1 1729 5 is_stmt 1 discriminator 2 view .LVU1734
 7146              	.LBE55:
1729:libscpi/src/parser.c ****     RESULT_ARRAY(SCPI_ResultFloat);
 7147              		.loc 1 1729 5 discriminator 2 view .LVU1735
 7148              	.LBB56:
 7149 0040 F4E7     		b	.L438
 7150              	.LBE56:
 7151              		.cfi_endproc
 7152              	.LFE70:
 7154              		.section	.text.SCPI_ResultArrayDouble,"ax",%progbits
 7155              		.align	1
 7156              		.global	SCPI_ResultArrayDouble
 7157              		.syntax unified
 7158              		.code	16
 7159              		.thumb_func
 7160              		.fpu softvfp
 7162              	SCPI_ResultArrayDouble:
 7163              	.LVL910:
 7164              	.LFB71:
1731:libscpi/src/parser.c **** 
1732:libscpi/src/parser.c **** /**
1733:libscpi/src/parser.c ****  * Result array of doubles
1734:libscpi/src/parser.c ****  * @param context
1735:libscpi/src/parser.c ****  * @param array
1736:libscpi/src/parser.c ****  * @param count
1737:libscpi/src/parser.c ****  * @param format
ARM GAS  /tmp/ccJs7hvj.s 			page 181


1738:libscpi/src/parser.c ****  * @return
1739:libscpi/src/parser.c ****  */
1740:libscpi/src/parser.c **** size_t SCPI_ResultArrayDouble(scpi_t * context, const double * array, size_t count, scpi_array_form
 7165              		.loc 1 1740 113 view -0
 7166              		.cfi_startproc
 7167              		@ args = 0, pretend = 0, frame = 0
 7168              		@ frame_needed = 0, uses_anonymous_args = 0
 7169              		.loc 1 1740 113 is_stmt 0 view .LVU1737
 7170 0000 F0B5     		push	{r4, r5, r6, r7, lr}
 7171              	.LCFI121:
 7172              		.cfi_def_cfa_offset 20
 7173              		.cfi_offset 4, -20
 7174              		.cfi_offset 5, -16
 7175              		.cfi_offset 6, -12
 7176              		.cfi_offset 7, -8
 7177              		.cfi_offset 14, -4
 7178 0002 C646     		mov	lr, r8
 7179 0004 00B5     		push	{lr}
 7180              	.LCFI122:
 7181              		.cfi_def_cfa_offset 24
 7182              		.cfi_offset 8, -24
 7183 0006 82B0     		sub	sp, sp, #8
 7184              	.LCFI123:
 7185              		.cfi_def_cfa_offset 32
 7186 0008 0700     		movs	r7, r0
 7187 000a 8846     		mov	r8, r1
 7188 000c 1600     		movs	r6, r2
1741:libscpi/src/parser.c ****     RESULT_ARRAY(SCPI_ResultDouble);
 7189              		.loc 1 1741 5 is_stmt 1 view .LVU1738
 7190              	.LBB57:
 7191              		.loc 1 1741 5 view .LVU1739
 7192              	.LVL911:
 7193              		.loc 1 1741 5 view .LVU1740
 7194 000e 002B     		cmp	r3, #0
 7195 0010 12D1     		bne	.L453
 7196              	.LBB58:
 7197 0012 0024     		movs	r4, #0
 7198              	.LBE58:
 7199 0014 0025     		movs	r5, #0
 7200 0016 08E0     		b	.L447
 7201              	.LVL912:
 7202              	.L449:
 7203              	.LBB59:
 7204              		.loc 1 1741 5 discriminator 5 view .LVU1741
 7205 0018 E300     		lsls	r3, r4, #3
 7206 001a 4344     		add	r3, r3, r8
 7207 001c 1A68     		ldr	r2, [r3]
 7208 001e 5B68     		ldr	r3, [r3, #4]
 7209 0020 3800     		movs	r0, r7
 7210 0022 FFF7FEFF 		bl	SCPI_ResultDouble
 7211              	.LVL913:
 7212 0026 2D18     		adds	r5, r5, r0
 7213              	.LVL914:
 7214              		.loc 1 1741 5 discriminator 5 view .LVU1742
 7215 0028 0134     		adds	r4, r4, #1
 7216              	.LVL915:
 7217              	.L447:
ARM GAS  /tmp/ccJs7hvj.s 			page 182


 7218              		.loc 1 1741 5 discriminator 3 view .LVU1743
 7219 002a B442     		cmp	r4, r6
 7220 002c F4D3     		bcc	.L449
 7221              	.LVL916:
 7222              	.L446:
 7223              		.loc 1 1741 5 is_stmt 0 discriminator 3 view .LVU1744
 7224              	.LBE59:
 7225              	.LBE57:
1742:libscpi/src/parser.c **** }
 7226              		.loc 1 1742 1 view .LVU1745
 7227 002e 2800     		movs	r0, r5
 7228 0030 02B0     		add	sp, sp, #8
 7229              		@ sp needed
 7230              	.LVL917:
 7231              	.LVL918:
 7232              	.LVL919:
 7233              	.LVL920:
 7234              		.loc 1 1742 1 view .LVU1746
 7235 0032 04BC     		pop	{r2}
 7236 0034 9046     		mov	r8, r2
 7237 0036 F0BD     		pop	{r4, r5, r6, r7, pc}
 7238              	.LVL921:
 7239              	.L453:
 7240              	.LBB60:
1741:libscpi/src/parser.c ****     RESULT_ARRAY(SCPI_ResultDouble);
 7241              		.loc 1 1741 5 is_stmt 1 discriminator 2 view .LVU1747
 7242 0038 0093     		str	r3, [sp]
 7243 003a 0823     		movs	r3, #8
 7244              	.LVL922:
1741:libscpi/src/parser.c ****     RESULT_ARRAY(SCPI_ResultDouble);
 7245              		.loc 1 1741 5 is_stmt 0 discriminator 2 view .LVU1748
 7246 003c FFF7FEFF 		bl	produceResultArrayBinary
 7247              	.LVL923:
1741:libscpi/src/parser.c ****     RESULT_ARRAY(SCPI_ResultDouble);
 7248              		.loc 1 1741 5 discriminator 2 view .LVU1749
 7249 0040 0500     		movs	r5, r0
 7250              	.LVL924:
1741:libscpi/src/parser.c ****     RESULT_ARRAY(SCPI_ResultDouble);
 7251              		.loc 1 1741 5 is_stmt 1 discriminator 2 view .LVU1750
 7252              	.LBE60:
1741:libscpi/src/parser.c ****     RESULT_ARRAY(SCPI_ResultDouble);
 7253              		.loc 1 1741 5 discriminator 2 view .LVU1751
 7254              	.LBB61:
 7255 0042 F4E7     		b	.L446
 7256              	.LBE61:
 7257              		.cfi_endproc
 7258              	.LFE71:
 7260              		.section	.text.SCPI_ParamArrayInt32,"ax",%progbits
 7261              		.align	1
 7262              		.global	SCPI_ParamArrayInt32
 7263              		.syntax unified
 7264              		.code	16
 7265              		.thumb_func
 7266              		.fpu softvfp
 7268              	SCPI_ParamArrayInt32:
 7269              	.LVL925:
 7270              	.LFB72:
ARM GAS  /tmp/ccJs7hvj.s 			page 183


1743:libscpi/src/parser.c **** 
1744:libscpi/src/parser.c **** /*
1745:libscpi/src/parser.c ****  * Template macro to generate all SCPI_ParamArrayXYZ function
1746:libscpi/src/parser.c ****  */
1747:libscpi/src/parser.c **** #define PARAM_ARRAY_TEMPLATE(func) do{\
1748:libscpi/src/parser.c ****     if (format != SCPI_FORMAT_ASCII) return FALSE;\
1749:libscpi/src/parser.c ****     for (*o_count = 0; *o_count < i_count; (*o_count)++) {\
1750:libscpi/src/parser.c ****         if (!func(context, &data[*o_count], mandatory)) {\
1751:libscpi/src/parser.c ****             break;\
1752:libscpi/src/parser.c ****         }\
1753:libscpi/src/parser.c ****         mandatory = FALSE;\
1754:libscpi/src/parser.c ****     }\
1755:libscpi/src/parser.c ****     return mandatory ? FALSE : TRUE;\
1756:libscpi/src/parser.c **** }while(0)
1757:libscpi/src/parser.c **** 
1758:libscpi/src/parser.c **** /**
1759:libscpi/src/parser.c ****  * Read list of values up to i_count
1760:libscpi/src/parser.c ****  * @param context
1761:libscpi/src/parser.c ****  * @param data - array to fill
1762:libscpi/src/parser.c ****  * @param i_count - number of elements of data
1763:libscpi/src/parser.c ****  * @param o_count - real number of filled elements
1764:libscpi/src/parser.c ****  * @param mandatory
1765:libscpi/src/parser.c ****  * @return TRUE on success
1766:libscpi/src/parser.c ****  */
1767:libscpi/src/parser.c **** scpi_bool_t SCPI_ParamArrayInt32(scpi_t * context, int32_t *data, size_t i_count, size_t *o_count, 
 7271              		.loc 1 1767 151 view -0
 7272              		.cfi_startproc
 7273              		@ args = 8, pretend = 0, frame = 0
 7274              		@ frame_needed = 0, uses_anonymous_args = 0
 7275              		.loc 1 1767 151 is_stmt 0 view .LVU1753
 7276 0000 F0B5     		push	{r4, r5, r6, r7, lr}
 7277              	.LCFI124:
 7278              		.cfi_def_cfa_offset 20
 7279              		.cfi_offset 4, -20
 7280              		.cfi_offset 5, -16
 7281              		.cfi_offset 6, -12
 7282              		.cfi_offset 7, -8
 7283              		.cfi_offset 14, -4
 7284 0002 C646     		mov	lr, r8
 7285 0004 00B5     		push	{lr}
 7286              	.LCFI125:
 7287              		.cfi_def_cfa_offset 24
 7288              		.cfi_offset 8, -24
 7289 0006 0700     		movs	r7, r0
 7290 0008 8846     		mov	r8, r1
 7291 000a 1600     		movs	r6, r2
 7292 000c 1D00     		movs	r5, r3
 7293 000e 06AB     		add	r3, sp, #24
 7294              	.LVL926:
 7295              		.loc 1 1767 151 view .LVU1754
 7296 0010 1B78     		ldrb	r3, [r3]
 7297              	.LVL927:
 7298              		.loc 1 1767 151 view .LVU1755
 7299 0012 07AA     		add	r2, sp, #28
 7300              	.LVL928:
 7301              		.loc 1 1767 151 view .LVU1756
 7302 0014 1478     		ldrb	r4, [r2]
ARM GAS  /tmp/ccJs7hvj.s 			page 184


1768:libscpi/src/parser.c ****     PARAM_ARRAY_TEMPLATE(SCPI_ParamInt32);
 7303              		.loc 1 1768 5 is_stmt 1 view .LVU1757
 7304              		.loc 1 1768 5 view .LVU1758
 7305 0016 002B     		cmp	r3, #0
 7306 0018 16D1     		bne	.L459
 7307              		.loc 1 1768 5 discriminator 2 view .LVU1759
 7308 001a 2B60     		str	r3, [r5]
 7309              	.LVL929:
 7310              	.L456:
 7311              		.loc 1 1768 5 discriminator 7 view .LVU1760
 7312 001c 2968     		ldr	r1, [r5]
 7313 001e B142     		cmp	r1, r6
 7314 0020 0CD2     		bcs	.L457
 7315              		.loc 1 1768 5 discriminator 8 view .LVU1761
 7316 0022 8900     		lsls	r1, r1, #2
 7317 0024 4144     		add	r1, r1, r8
 7318 0026 2200     		movs	r2, r4
 7319 0028 3800     		movs	r0, r7
 7320 002a FFF7FEFF 		bl	SCPI_ParamInt32
 7321              	.LVL930:
 7322 002e 0028     		cmp	r0, #0
 7323 0030 04D0     		beq	.L457
 7324              		.loc 1 1768 5 discriminator 6 view .LVU1762
 7325              	.LVL931:
 7326              		.loc 1 1768 5 discriminator 6 view .LVU1763
 7327 0032 2B68     		ldr	r3, [r5]
 7328 0034 5C1C     		adds	r4, r3, #1
 7329 0036 2C60     		str	r4, [r5]
 7330 0038 0024     		movs	r4, #0
 7331 003a EFE7     		b	.L456
 7332              	.LVL932:
 7333              	.L457:
 7334              		.loc 1 1768 5 discriminator 9 view .LVU1764
 7335 003c 0120     		movs	r0, #1
 7336 003e 6040     		eors	r0, r4
 7337 0040 C0B2     		uxtb	r0, r0
 7338              	.LVL933:
 7339              	.L455:
 7340              		.loc 1 1768 5 discriminator 10 view .LVU1765
1769:libscpi/src/parser.c **** }
 7341              		.loc 1 1769 1 is_stmt 0 discriminator 10 view .LVU1766
 7342              		@ sp needed
 7343              	.LVL934:
 7344              	.LVL935:
 7345              	.LVL936:
 7346              	.LVL937:
 7347              		.loc 1 1769 1 discriminator 10 view .LVU1767
 7348 0042 04BC     		pop	{r2}
 7349 0044 9046     		mov	r8, r2
 7350 0046 F0BD     		pop	{r4, r5, r6, r7, pc}
 7351              	.LVL938:
 7352              	.L459:
1768:libscpi/src/parser.c ****     PARAM_ARRAY_TEMPLATE(SCPI_ParamInt32);
 7353              		.loc 1 1768 5 view .LVU1768
 7354 0048 0020     		movs	r0, #0
 7355              	.LVL939:
1768:libscpi/src/parser.c ****     PARAM_ARRAY_TEMPLATE(SCPI_ParamInt32);
ARM GAS  /tmp/ccJs7hvj.s 			page 185


 7356              		.loc 1 1768 5 view .LVU1769
 7357 004a FAE7     		b	.L455
 7358              		.cfi_endproc
 7359              	.LFE72:
 7361              		.section	.text.SCPI_ParamArrayUInt32,"ax",%progbits
 7362              		.align	1
 7363              		.global	SCPI_ParamArrayUInt32
 7364              		.syntax unified
 7365              		.code	16
 7366              		.thumb_func
 7367              		.fpu softvfp
 7369              	SCPI_ParamArrayUInt32:
 7370              	.LVL940:
 7371              	.LFB73:
1770:libscpi/src/parser.c **** 
1771:libscpi/src/parser.c **** /**
1772:libscpi/src/parser.c ****  * Read list of values up to i_count
1773:libscpi/src/parser.c ****  * @param context
1774:libscpi/src/parser.c ****  * @param data - array to fill
1775:libscpi/src/parser.c ****  * @param i_count - number of elements of data
1776:libscpi/src/parser.c ****  * @param o_count - real number of filled elements
1777:libscpi/src/parser.c ****  * @param mandatory
1778:libscpi/src/parser.c ****  * @return TRUE on success
1779:libscpi/src/parser.c ****  */
1780:libscpi/src/parser.c **** scpi_bool_t SCPI_ParamArrayUInt32(scpi_t * context, uint32_t *data, size_t i_count, size_t *o_count
 7372              		.loc 1 1780 153 is_stmt 1 view -0
 7373              		.cfi_startproc
 7374              		@ args = 8, pretend = 0, frame = 0
 7375              		@ frame_needed = 0, uses_anonymous_args = 0
 7376              		.loc 1 1780 153 is_stmt 0 view .LVU1771
 7377 0000 F0B5     		push	{r4, r5, r6, r7, lr}
 7378              	.LCFI126:
 7379              		.cfi_def_cfa_offset 20
 7380              		.cfi_offset 4, -20
 7381              		.cfi_offset 5, -16
 7382              		.cfi_offset 6, -12
 7383              		.cfi_offset 7, -8
 7384              		.cfi_offset 14, -4
 7385 0002 C646     		mov	lr, r8
 7386 0004 00B5     		push	{lr}
 7387              	.LCFI127:
 7388              		.cfi_def_cfa_offset 24
 7389              		.cfi_offset 8, -24
 7390 0006 0700     		movs	r7, r0
 7391 0008 8846     		mov	r8, r1
 7392 000a 1600     		movs	r6, r2
 7393 000c 1D00     		movs	r5, r3
 7394 000e 06AB     		add	r3, sp, #24
 7395              	.LVL941:
 7396              		.loc 1 1780 153 view .LVU1772
 7397 0010 1B78     		ldrb	r3, [r3]
 7398              	.LVL942:
 7399              		.loc 1 1780 153 view .LVU1773
 7400 0012 07AA     		add	r2, sp, #28
 7401              	.LVL943:
 7402              		.loc 1 1780 153 view .LVU1774
 7403 0014 1478     		ldrb	r4, [r2]
ARM GAS  /tmp/ccJs7hvj.s 			page 186


1781:libscpi/src/parser.c ****     PARAM_ARRAY_TEMPLATE(SCPI_ParamUInt32);
 7404              		.loc 1 1781 5 is_stmt 1 view .LVU1775
 7405              		.loc 1 1781 5 view .LVU1776
 7406 0016 002B     		cmp	r3, #0
 7407 0018 16D1     		bne	.L465
 7408              		.loc 1 1781 5 discriminator 2 view .LVU1777
 7409 001a 2B60     		str	r3, [r5]
 7410              	.LVL944:
 7411              	.L462:
 7412              		.loc 1 1781 5 discriminator 7 view .LVU1778
 7413 001c 2968     		ldr	r1, [r5]
 7414 001e B142     		cmp	r1, r6
 7415 0020 0CD2     		bcs	.L463
 7416              		.loc 1 1781 5 discriminator 8 view .LVU1779
 7417 0022 8900     		lsls	r1, r1, #2
 7418 0024 4144     		add	r1, r1, r8
 7419 0026 2200     		movs	r2, r4
 7420 0028 3800     		movs	r0, r7
 7421 002a FFF7FEFF 		bl	SCPI_ParamUInt32
 7422              	.LVL945:
 7423 002e 0028     		cmp	r0, #0
 7424 0030 04D0     		beq	.L463
 7425              		.loc 1 1781 5 discriminator 6 view .LVU1780
 7426              	.LVL946:
 7427              		.loc 1 1781 5 discriminator 6 view .LVU1781
 7428 0032 2B68     		ldr	r3, [r5]
 7429 0034 5C1C     		adds	r4, r3, #1
 7430 0036 2C60     		str	r4, [r5]
 7431 0038 0024     		movs	r4, #0
 7432 003a EFE7     		b	.L462
 7433              	.LVL947:
 7434              	.L463:
 7435              		.loc 1 1781 5 discriminator 9 view .LVU1782
 7436 003c 0120     		movs	r0, #1
 7437 003e 6040     		eors	r0, r4
 7438 0040 C0B2     		uxtb	r0, r0
 7439              	.LVL948:
 7440              	.L461:
 7441              		.loc 1 1781 5 discriminator 10 view .LVU1783
1782:libscpi/src/parser.c **** }
 7442              		.loc 1 1782 1 is_stmt 0 discriminator 10 view .LVU1784
 7443              		@ sp needed
 7444              	.LVL949:
 7445              	.LVL950:
 7446              	.LVL951:
 7447              	.LVL952:
 7448              		.loc 1 1782 1 discriminator 10 view .LVU1785
 7449 0042 04BC     		pop	{r2}
 7450 0044 9046     		mov	r8, r2
 7451 0046 F0BD     		pop	{r4, r5, r6, r7, pc}
 7452              	.LVL953:
 7453              	.L465:
1781:libscpi/src/parser.c ****     PARAM_ARRAY_TEMPLATE(SCPI_ParamUInt32);
 7454              		.loc 1 1781 5 view .LVU1786
 7455 0048 0020     		movs	r0, #0
 7456              	.LVL954:
1781:libscpi/src/parser.c ****     PARAM_ARRAY_TEMPLATE(SCPI_ParamUInt32);
ARM GAS  /tmp/ccJs7hvj.s 			page 187


 7457              		.loc 1 1781 5 view .LVU1787
 7458 004a FAE7     		b	.L461
 7459              		.cfi_endproc
 7460              	.LFE73:
 7462              		.section	.text.SCPI_ParamArrayInt64,"ax",%progbits
 7463              		.align	1
 7464              		.global	SCPI_ParamArrayInt64
 7465              		.syntax unified
 7466              		.code	16
 7467              		.thumb_func
 7468              		.fpu softvfp
 7470              	SCPI_ParamArrayInt64:
 7471              	.LVL955:
 7472              	.LFB74:
1783:libscpi/src/parser.c **** 
1784:libscpi/src/parser.c **** /**
1785:libscpi/src/parser.c ****  * Read list of values up to i_count
1786:libscpi/src/parser.c ****  * @param context
1787:libscpi/src/parser.c ****  * @param data - array to fill
1788:libscpi/src/parser.c ****  * @param i_count - number of elements of data
1789:libscpi/src/parser.c ****  * @param o_count - real number of filled elements
1790:libscpi/src/parser.c ****  * @param mandatory
1791:libscpi/src/parser.c ****  * @return TRUE on success
1792:libscpi/src/parser.c ****  */
1793:libscpi/src/parser.c **** scpi_bool_t SCPI_ParamArrayInt64(scpi_t * context, int64_t *data, size_t i_count, size_t *o_count, 
 7473              		.loc 1 1793 151 is_stmt 1 view -0
 7474              		.cfi_startproc
 7475              		@ args = 8, pretend = 0, frame = 0
 7476              		@ frame_needed = 0, uses_anonymous_args = 0
 7477              		.loc 1 1793 151 is_stmt 0 view .LVU1789
 7478 0000 F0B5     		push	{r4, r5, r6, r7, lr}
 7479              	.LCFI128:
 7480              		.cfi_def_cfa_offset 20
 7481              		.cfi_offset 4, -20
 7482              		.cfi_offset 5, -16
 7483              		.cfi_offset 6, -12
 7484              		.cfi_offset 7, -8
 7485              		.cfi_offset 14, -4
 7486 0002 C646     		mov	lr, r8
 7487 0004 00B5     		push	{lr}
 7488              	.LCFI129:
 7489              		.cfi_def_cfa_offset 24
 7490              		.cfi_offset 8, -24
 7491 0006 0700     		movs	r7, r0
 7492 0008 8846     		mov	r8, r1
 7493 000a 1600     		movs	r6, r2
 7494 000c 1D00     		movs	r5, r3
 7495 000e 06AB     		add	r3, sp, #24
 7496              	.LVL956:
 7497              		.loc 1 1793 151 view .LVU1790
 7498 0010 1B78     		ldrb	r3, [r3]
 7499              	.LVL957:
 7500              		.loc 1 1793 151 view .LVU1791
 7501 0012 07AA     		add	r2, sp, #28
 7502              	.LVL958:
 7503              		.loc 1 1793 151 view .LVU1792
 7504 0014 1478     		ldrb	r4, [r2]
ARM GAS  /tmp/ccJs7hvj.s 			page 188


1794:libscpi/src/parser.c ****     PARAM_ARRAY_TEMPLATE(SCPI_ParamInt64);
 7505              		.loc 1 1794 5 is_stmt 1 view .LVU1793
 7506              		.loc 1 1794 5 view .LVU1794
 7507 0016 002B     		cmp	r3, #0
 7508 0018 16D1     		bne	.L471
 7509              		.loc 1 1794 5 discriminator 2 view .LVU1795
 7510 001a 2B60     		str	r3, [r5]
 7511              	.LVL959:
 7512              	.L468:
 7513              		.loc 1 1794 5 discriminator 7 view .LVU1796
 7514 001c 2968     		ldr	r1, [r5]
 7515 001e B142     		cmp	r1, r6
 7516 0020 0CD2     		bcs	.L469
 7517              		.loc 1 1794 5 discriminator 8 view .LVU1797
 7518 0022 C900     		lsls	r1, r1, #3
 7519 0024 4144     		add	r1, r1, r8
 7520 0026 2200     		movs	r2, r4
 7521 0028 3800     		movs	r0, r7
 7522 002a FFF7FEFF 		bl	SCPI_ParamInt64
 7523              	.LVL960:
 7524 002e 0028     		cmp	r0, #0
 7525 0030 04D0     		beq	.L469
 7526              		.loc 1 1794 5 discriminator 6 view .LVU1798
 7527              	.LVL961:
 7528              		.loc 1 1794 5 discriminator 6 view .LVU1799
 7529 0032 2B68     		ldr	r3, [r5]
 7530 0034 5C1C     		adds	r4, r3, #1
 7531 0036 2C60     		str	r4, [r5]
 7532 0038 0024     		movs	r4, #0
 7533 003a EFE7     		b	.L468
 7534              	.LVL962:
 7535              	.L469:
 7536              		.loc 1 1794 5 discriminator 9 view .LVU1800
 7537 003c 0120     		movs	r0, #1
 7538 003e 6040     		eors	r0, r4
 7539 0040 C0B2     		uxtb	r0, r0
 7540              	.LVL963:
 7541              	.L467:
 7542              		.loc 1 1794 5 discriminator 10 view .LVU1801
1795:libscpi/src/parser.c **** }
 7543              		.loc 1 1795 1 is_stmt 0 discriminator 10 view .LVU1802
 7544              		@ sp needed
 7545              	.LVL964:
 7546              	.LVL965:
 7547              	.LVL966:
 7548              	.LVL967:
 7549              		.loc 1 1795 1 discriminator 10 view .LVU1803
 7550 0042 04BC     		pop	{r2}
 7551 0044 9046     		mov	r8, r2
 7552 0046 F0BD     		pop	{r4, r5, r6, r7, pc}
 7553              	.LVL968:
 7554              	.L471:
1794:libscpi/src/parser.c ****     PARAM_ARRAY_TEMPLATE(SCPI_ParamInt64);
 7555              		.loc 1 1794 5 view .LVU1804
 7556 0048 0020     		movs	r0, #0
 7557              	.LVL969:
1794:libscpi/src/parser.c ****     PARAM_ARRAY_TEMPLATE(SCPI_ParamInt64);
ARM GAS  /tmp/ccJs7hvj.s 			page 189


 7558              		.loc 1 1794 5 view .LVU1805
 7559 004a FAE7     		b	.L467
 7560              		.cfi_endproc
 7561              	.LFE74:
 7563              		.section	.text.SCPI_ParamArrayUInt64,"ax",%progbits
 7564              		.align	1
 7565              		.global	SCPI_ParamArrayUInt64
 7566              		.syntax unified
 7567              		.code	16
 7568              		.thumb_func
 7569              		.fpu softvfp
 7571              	SCPI_ParamArrayUInt64:
 7572              	.LVL970:
 7573              	.LFB75:
1796:libscpi/src/parser.c **** 
1797:libscpi/src/parser.c **** /**
1798:libscpi/src/parser.c ****  * Read list of values up to i_count
1799:libscpi/src/parser.c ****  * @param context
1800:libscpi/src/parser.c ****  * @param data - array to fill
1801:libscpi/src/parser.c ****  * @param i_count - number of elements of data
1802:libscpi/src/parser.c ****  * @param o_count - real number of filled elements
1803:libscpi/src/parser.c ****  * @param mandatory
1804:libscpi/src/parser.c ****  * @return TRUE on success
1805:libscpi/src/parser.c ****  */
1806:libscpi/src/parser.c **** scpi_bool_t SCPI_ParamArrayUInt64(scpi_t * context, uint64_t *data, size_t i_count, size_t *o_count
 7574              		.loc 1 1806 153 is_stmt 1 view -0
 7575              		.cfi_startproc
 7576              		@ args = 8, pretend = 0, frame = 0
 7577              		@ frame_needed = 0, uses_anonymous_args = 0
 7578              		.loc 1 1806 153 is_stmt 0 view .LVU1807
 7579 0000 F0B5     		push	{r4, r5, r6, r7, lr}
 7580              	.LCFI130:
 7581              		.cfi_def_cfa_offset 20
 7582              		.cfi_offset 4, -20
 7583              		.cfi_offset 5, -16
 7584              		.cfi_offset 6, -12
 7585              		.cfi_offset 7, -8
 7586              		.cfi_offset 14, -4
 7587 0002 C646     		mov	lr, r8
 7588 0004 00B5     		push	{lr}
 7589              	.LCFI131:
 7590              		.cfi_def_cfa_offset 24
 7591              		.cfi_offset 8, -24
 7592 0006 0700     		movs	r7, r0
 7593 0008 8846     		mov	r8, r1
 7594 000a 1600     		movs	r6, r2
 7595 000c 1D00     		movs	r5, r3
 7596 000e 06AB     		add	r3, sp, #24
 7597              	.LVL971:
 7598              		.loc 1 1806 153 view .LVU1808
 7599 0010 1B78     		ldrb	r3, [r3]
 7600              	.LVL972:
 7601              		.loc 1 1806 153 view .LVU1809
 7602 0012 07AA     		add	r2, sp, #28
 7603              	.LVL973:
 7604              		.loc 1 1806 153 view .LVU1810
 7605 0014 1478     		ldrb	r4, [r2]
ARM GAS  /tmp/ccJs7hvj.s 			page 190


1807:libscpi/src/parser.c ****     PARAM_ARRAY_TEMPLATE(SCPI_ParamUInt64);
 7606              		.loc 1 1807 5 is_stmt 1 view .LVU1811
 7607              		.loc 1 1807 5 view .LVU1812
 7608 0016 002B     		cmp	r3, #0
 7609 0018 16D1     		bne	.L477
 7610              		.loc 1 1807 5 discriminator 2 view .LVU1813
 7611 001a 2B60     		str	r3, [r5]
 7612              	.LVL974:
 7613              	.L474:
 7614              		.loc 1 1807 5 discriminator 7 view .LVU1814
 7615 001c 2968     		ldr	r1, [r5]
 7616 001e B142     		cmp	r1, r6
 7617 0020 0CD2     		bcs	.L475
 7618              		.loc 1 1807 5 discriminator 8 view .LVU1815
 7619 0022 C900     		lsls	r1, r1, #3
 7620 0024 4144     		add	r1, r1, r8
 7621 0026 2200     		movs	r2, r4
 7622 0028 3800     		movs	r0, r7
 7623 002a FFF7FEFF 		bl	SCPI_ParamUInt64
 7624              	.LVL975:
 7625 002e 0028     		cmp	r0, #0
 7626 0030 04D0     		beq	.L475
 7627              		.loc 1 1807 5 discriminator 6 view .LVU1816
 7628              	.LVL976:
 7629              		.loc 1 1807 5 discriminator 6 view .LVU1817
 7630 0032 2B68     		ldr	r3, [r5]
 7631 0034 5C1C     		adds	r4, r3, #1
 7632 0036 2C60     		str	r4, [r5]
 7633 0038 0024     		movs	r4, #0
 7634 003a EFE7     		b	.L474
 7635              	.LVL977:
 7636              	.L475:
 7637              		.loc 1 1807 5 discriminator 9 view .LVU1818
 7638 003c 0120     		movs	r0, #1
 7639 003e 6040     		eors	r0, r4
 7640 0040 C0B2     		uxtb	r0, r0
 7641              	.LVL978:
 7642              	.L473:
 7643              		.loc 1 1807 5 discriminator 10 view .LVU1819
1808:libscpi/src/parser.c **** }
 7644              		.loc 1 1808 1 is_stmt 0 discriminator 10 view .LVU1820
 7645              		@ sp needed
 7646              	.LVL979:
 7647              	.LVL980:
 7648              	.LVL981:
 7649              	.LVL982:
 7650              		.loc 1 1808 1 discriminator 10 view .LVU1821
 7651 0042 04BC     		pop	{r2}
 7652 0044 9046     		mov	r8, r2
 7653 0046 F0BD     		pop	{r4, r5, r6, r7, pc}
 7654              	.LVL983:
 7655              	.L477:
1807:libscpi/src/parser.c ****     PARAM_ARRAY_TEMPLATE(SCPI_ParamUInt64);
 7656              		.loc 1 1807 5 view .LVU1822
 7657 0048 0020     		movs	r0, #0
 7658              	.LVL984:
1807:libscpi/src/parser.c ****     PARAM_ARRAY_TEMPLATE(SCPI_ParamUInt64);
ARM GAS  /tmp/ccJs7hvj.s 			page 191


 7659              		.loc 1 1807 5 view .LVU1823
 7660 004a FAE7     		b	.L473
 7661              		.cfi_endproc
 7662              	.LFE75:
 7664              		.section	.text.SCPI_ParamArrayFloat,"ax",%progbits
 7665              		.align	1
 7666              		.global	SCPI_ParamArrayFloat
 7667              		.syntax unified
 7668              		.code	16
 7669              		.thumb_func
 7670              		.fpu softvfp
 7672              	SCPI_ParamArrayFloat:
 7673              	.LVL985:
 7674              	.LFB76:
1809:libscpi/src/parser.c **** 
1810:libscpi/src/parser.c **** /**
1811:libscpi/src/parser.c ****  * Read list of values up to i_count
1812:libscpi/src/parser.c ****  * @param context
1813:libscpi/src/parser.c ****  * @param data - array to fill
1814:libscpi/src/parser.c ****  * @param i_count - number of elements of data
1815:libscpi/src/parser.c ****  * @param o_count - real number of filled elements
1816:libscpi/src/parser.c ****  * @param mandatory
1817:libscpi/src/parser.c ****  * @return TRUE on success
1818:libscpi/src/parser.c ****  */
1819:libscpi/src/parser.c **** scpi_bool_t SCPI_ParamArrayFloat(scpi_t * context, float *data, size_t i_count, size_t *o_count, sc
 7675              		.loc 1 1819 149 is_stmt 1 view -0
 7676              		.cfi_startproc
 7677              		@ args = 8, pretend = 0, frame = 0
 7678              		@ frame_needed = 0, uses_anonymous_args = 0
 7679              		.loc 1 1819 149 is_stmt 0 view .LVU1825
 7680 0000 F0B5     		push	{r4, r5, r6, r7, lr}
 7681              	.LCFI132:
 7682              		.cfi_def_cfa_offset 20
 7683              		.cfi_offset 4, -20
 7684              		.cfi_offset 5, -16
 7685              		.cfi_offset 6, -12
 7686              		.cfi_offset 7, -8
 7687              		.cfi_offset 14, -4
 7688 0002 C646     		mov	lr, r8
 7689 0004 00B5     		push	{lr}
 7690              	.LCFI133:
 7691              		.cfi_def_cfa_offset 24
 7692              		.cfi_offset 8, -24
 7693 0006 0700     		movs	r7, r0
 7694 0008 8846     		mov	r8, r1
 7695 000a 1600     		movs	r6, r2
 7696 000c 1D00     		movs	r5, r3
 7697 000e 06AB     		add	r3, sp, #24
 7698              	.LVL986:
 7699              		.loc 1 1819 149 view .LVU1826
 7700 0010 1B78     		ldrb	r3, [r3]
 7701              	.LVL987:
 7702              		.loc 1 1819 149 view .LVU1827
 7703 0012 07AA     		add	r2, sp, #28
 7704              	.LVL988:
 7705              		.loc 1 1819 149 view .LVU1828
 7706 0014 1478     		ldrb	r4, [r2]
ARM GAS  /tmp/ccJs7hvj.s 			page 192


1820:libscpi/src/parser.c ****     PARAM_ARRAY_TEMPLATE(SCPI_ParamFloat);
 7707              		.loc 1 1820 5 is_stmt 1 view .LVU1829
 7708              		.loc 1 1820 5 view .LVU1830
 7709 0016 002B     		cmp	r3, #0
 7710 0018 16D1     		bne	.L483
 7711              		.loc 1 1820 5 discriminator 2 view .LVU1831
 7712 001a 2B60     		str	r3, [r5]
 7713              	.LVL989:
 7714              	.L480:
 7715              		.loc 1 1820 5 discriminator 7 view .LVU1832
 7716 001c 2968     		ldr	r1, [r5]
 7717 001e B142     		cmp	r1, r6
 7718 0020 0CD2     		bcs	.L481
 7719              		.loc 1 1820 5 discriminator 8 view .LVU1833
 7720 0022 8900     		lsls	r1, r1, #2
 7721 0024 4144     		add	r1, r1, r8
 7722 0026 2200     		movs	r2, r4
 7723 0028 3800     		movs	r0, r7
 7724 002a FFF7FEFF 		bl	SCPI_ParamFloat
 7725              	.LVL990:
 7726 002e 0028     		cmp	r0, #0
 7727 0030 04D0     		beq	.L481
 7728              		.loc 1 1820 5 discriminator 6 view .LVU1834
 7729              	.LVL991:
 7730              		.loc 1 1820 5 discriminator 6 view .LVU1835
 7731 0032 2B68     		ldr	r3, [r5]
 7732 0034 5C1C     		adds	r4, r3, #1
 7733 0036 2C60     		str	r4, [r5]
 7734 0038 0024     		movs	r4, #0
 7735 003a EFE7     		b	.L480
 7736              	.LVL992:
 7737              	.L481:
 7738              		.loc 1 1820 5 discriminator 9 view .LVU1836
 7739 003c 0120     		movs	r0, #1
 7740 003e 6040     		eors	r0, r4
 7741 0040 C0B2     		uxtb	r0, r0
 7742              	.LVL993:
 7743              	.L479:
 7744              		.loc 1 1820 5 discriminator 10 view .LVU1837
1821:libscpi/src/parser.c **** }
 7745              		.loc 1 1821 1 is_stmt 0 discriminator 10 view .LVU1838
 7746              		@ sp needed
 7747              	.LVL994:
 7748              	.LVL995:
 7749              	.LVL996:
 7750              	.LVL997:
 7751              		.loc 1 1821 1 discriminator 10 view .LVU1839
 7752 0042 04BC     		pop	{r2}
 7753 0044 9046     		mov	r8, r2
 7754 0046 F0BD     		pop	{r4, r5, r6, r7, pc}
 7755              	.LVL998:
 7756              	.L483:
1820:libscpi/src/parser.c ****     PARAM_ARRAY_TEMPLATE(SCPI_ParamFloat);
 7757              		.loc 1 1820 5 view .LVU1840
 7758 0048 0020     		movs	r0, #0
 7759              	.LVL999:
1820:libscpi/src/parser.c ****     PARAM_ARRAY_TEMPLATE(SCPI_ParamFloat);
ARM GAS  /tmp/ccJs7hvj.s 			page 193


 7760              		.loc 1 1820 5 view .LVU1841
 7761 004a FAE7     		b	.L479
 7762              		.cfi_endproc
 7763              	.LFE76:
 7765              		.section	.text.SCPI_ParamArrayDouble,"ax",%progbits
 7766              		.align	1
 7767              		.global	SCPI_ParamArrayDouble
 7768              		.syntax unified
 7769              		.code	16
 7770              		.thumb_func
 7771              		.fpu softvfp
 7773              	SCPI_ParamArrayDouble:
 7774              	.LVL1000:
 7775              	.LFB77:
1822:libscpi/src/parser.c **** 
1823:libscpi/src/parser.c **** /**
1824:libscpi/src/parser.c ****  * Read list of values up to i_count
1825:libscpi/src/parser.c ****  * @param context
1826:libscpi/src/parser.c ****  * @param data - array to fill
1827:libscpi/src/parser.c ****  * @param i_count - number of elements of data
1828:libscpi/src/parser.c ****  * @param o_count - real number of filled elements
1829:libscpi/src/parser.c ****  * @param mandatory
1830:libscpi/src/parser.c ****  * @return TRUE on success
1831:libscpi/src/parser.c ****  */
1832:libscpi/src/parser.c **** scpi_bool_t SCPI_ParamArrayDouble(scpi_t * context, double *data, size_t i_count, size_t *o_count, 
 7776              		.loc 1 1832 151 is_stmt 1 view -0
 7777              		.cfi_startproc
 7778              		@ args = 8, pretend = 0, frame = 0
 7779              		@ frame_needed = 0, uses_anonymous_args = 0
 7780              		.loc 1 1832 151 is_stmt 0 view .LVU1843
 7781 0000 F0B5     		push	{r4, r5, r6, r7, lr}
 7782              	.LCFI134:
 7783              		.cfi_def_cfa_offset 20
 7784              		.cfi_offset 4, -20
 7785              		.cfi_offset 5, -16
 7786              		.cfi_offset 6, -12
 7787              		.cfi_offset 7, -8
 7788              		.cfi_offset 14, -4
 7789 0002 C646     		mov	lr, r8
 7790 0004 00B5     		push	{lr}
 7791              	.LCFI135:
 7792              		.cfi_def_cfa_offset 24
 7793              		.cfi_offset 8, -24
 7794 0006 0700     		movs	r7, r0
 7795 0008 8846     		mov	r8, r1
 7796 000a 1600     		movs	r6, r2
 7797 000c 1D00     		movs	r5, r3
 7798 000e 06AB     		add	r3, sp, #24
 7799              	.LVL1001:
 7800              		.loc 1 1832 151 view .LVU1844
 7801 0010 1B78     		ldrb	r3, [r3]
 7802              	.LVL1002:
 7803              		.loc 1 1832 151 view .LVU1845
 7804 0012 07AA     		add	r2, sp, #28
 7805              	.LVL1003:
 7806              		.loc 1 1832 151 view .LVU1846
 7807 0014 1478     		ldrb	r4, [r2]
ARM GAS  /tmp/ccJs7hvj.s 			page 194


1833:libscpi/src/parser.c ****     PARAM_ARRAY_TEMPLATE(SCPI_ParamDouble);
 7808              		.loc 1 1833 5 is_stmt 1 view .LVU1847
 7809              		.loc 1 1833 5 view .LVU1848
 7810 0016 002B     		cmp	r3, #0
 7811 0018 16D1     		bne	.L489
 7812              		.loc 1 1833 5 discriminator 2 view .LVU1849
 7813 001a 2B60     		str	r3, [r5]
 7814              	.LVL1004:
 7815              	.L486:
 7816              		.loc 1 1833 5 discriminator 7 view .LVU1850
 7817 001c 2968     		ldr	r1, [r5]
 7818 001e B142     		cmp	r1, r6
 7819 0020 0CD2     		bcs	.L487
 7820              		.loc 1 1833 5 discriminator 8 view .LVU1851
 7821 0022 C900     		lsls	r1, r1, #3
 7822 0024 4144     		add	r1, r1, r8
 7823 0026 2200     		movs	r2, r4
 7824 0028 3800     		movs	r0, r7
 7825 002a FFF7FEFF 		bl	SCPI_ParamDouble
 7826              	.LVL1005:
 7827 002e 0028     		cmp	r0, #0
 7828 0030 04D0     		beq	.L487
 7829              		.loc 1 1833 5 discriminator 6 view .LVU1852
 7830              	.LVL1006:
 7831              		.loc 1 1833 5 discriminator 6 view .LVU1853
 7832 0032 2B68     		ldr	r3, [r5]
 7833 0034 5C1C     		adds	r4, r3, #1
 7834 0036 2C60     		str	r4, [r5]
 7835 0038 0024     		movs	r4, #0
 7836 003a EFE7     		b	.L486
 7837              	.LVL1007:
 7838              	.L487:
 7839              		.loc 1 1833 5 discriminator 9 view .LVU1854
 7840 003c 0120     		movs	r0, #1
 7841 003e 6040     		eors	r0, r4
 7842 0040 C0B2     		uxtb	r0, r0
 7843              	.LVL1008:
 7844              	.L485:
 7845              		.loc 1 1833 5 discriminator 10 view .LVU1855
1834:libscpi/src/parser.c **** }
 7846              		.loc 1 1834 1 is_stmt 0 discriminator 10 view .LVU1856
 7847              		@ sp needed
 7848              	.LVL1009:
 7849              	.LVL1010:
 7850              	.LVL1011:
 7851              	.LVL1012:
 7852              		.loc 1 1834 1 discriminator 10 view .LVU1857
 7853 0042 04BC     		pop	{r2}
 7854 0044 9046     		mov	r8, r2
 7855 0046 F0BD     		pop	{r4, r5, r6, r7, pc}
 7856              	.LVL1013:
 7857              	.L489:
1833:libscpi/src/parser.c ****     PARAM_ARRAY_TEMPLATE(SCPI_ParamDouble);
 7858              		.loc 1 1833 5 view .LVU1858
 7859 0048 0020     		movs	r0, #0
 7860              	.LVL1014:
1833:libscpi/src/parser.c ****     PARAM_ARRAY_TEMPLATE(SCPI_ParamDouble);
ARM GAS  /tmp/ccJs7hvj.s 			page 195


 7861              		.loc 1 1833 5 view .LVU1859
 7862 004a FAE7     		b	.L485
 7863              		.cfi_endproc
 7864              	.LFE77:
 7866              		.global	scpi_bool_def
 7867              		.section	.rodata.str1.4,"aMS",%progbits,1
 7868              		.align	2
 7869              	.LC16:
 7870 0000 4F464600 		.ascii	"OFF\000"
 7871              		.align	2
 7872              	.LC17:
 7873 0004 4F4E00   		.ascii	"ON\000"
 7874              		.section	.rodata.scpi_bool_def,"a"
 7875              		.align	2
 7876              		.set	.LANCHOR0,. + 0
 7879              	scpi_bool_def:
 7880 0000 00000000 		.word	.LC16
 7881 0004 00000000 		.word	0
 7882 0008 04000000 		.word	.LC17
 7883 000c 01000000 		.word	1
 7884 0010 00000000 		.word	0
 7885 0014 FFFFFFFF 		.word	-1
 7886              		.text
 7887              	.Letext0:
 7888              		.file 2 "/usr/lib/gcc/arm-none-eabi/9.2.1/include/stddef.h"
 7889              		.file 3 "/usr/include/newlib/sys/_types.h"
 7890              		.file 4 "/usr/include/newlib/sys/reent.h"
 7891              		.file 5 "/usr/include/newlib/sys/lock.h"
 7892              		.file 6 "/usr/include/newlib/ctype.h"
 7893              		.file 7 "/usr/lib/gcc/arm-none-eabi/9.2.1/include/stdint.h"
 7894              		.file 8 "libscpi/inc/scpi/types.h"
 7895              		.file 9 "libscpi/inc/scpi/parser.h"
 7896              		.file 10 "libscpi/src/utils_private.h"
 7897              		.file 11 "libscpi/inc/scpi/error.h"
 7898              		.file 12 "/usr/include/newlib/string.h"
 7899              		.file 13 "libscpi/src/lexer_private.h"
 7900              		.file 14 "libscpi/inc/scpi/utils.h"
 7901              		.file 15 "<built-in>"
ARM GAS  /tmp/ccJs7hvj.s 			page 196


DEFINED SYMBOLS
                            *ABS*:0000000000000000 parser.c
     /tmp/ccJs7hvj.s:16     .text.writeData:0000000000000000 $t
     /tmp/ccJs7hvj.s:23     .text.writeData:0000000000000000 writeData
     /tmp/ccJs7hvj.s:60     .text.flushData:0000000000000000 $t
     /tmp/ccJs7hvj.s:66     .text.flushData:0000000000000000 flushData
     /tmp/ccJs7hvj.s:126    .rodata.writeDelimiter.str1.4:0000000000000000 $d
     /tmp/ccJs7hvj.s:130    .text.writeDelimiter:0000000000000000 $t
     /tmp/ccJs7hvj.s:136    .text.writeDelimiter:0000000000000000 writeDelimiter
     /tmp/ccJs7hvj.s:174    .text.writeDelimiter:0000000000000018 $d
     /tmp/ccJs7hvj.s:179    .rodata.writeNewLine.str1.4:0000000000000000 $d
     /tmp/ccJs7hvj.s:183    .text.writeNewLine:0000000000000000 $t
     /tmp/ccJs7hvj.s:189    .text.writeNewLine:0000000000000000 writeNewLine
     /tmp/ccJs7hvj.s:245    .text.writeNewLine:0000000000000024 $d
     /tmp/ccJs7hvj.s:251    .rodata.writeSemicolon.str1.4:0000000000000000 $d
     /tmp/ccJs7hvj.s:255    .text.writeSemicolon:0000000000000000 $t
     /tmp/ccJs7hvj.s:261    .text.writeSemicolon:0000000000000000 writeSemicolon
     /tmp/ccJs7hvj.s:299    .text.writeSemicolon:0000000000000018 $d
     /tmp/ccJs7hvj.s:304    .rodata.getBasePrefix.str1.4:0000000000000000 $d
     /tmp/ccJs7hvj.s:314    .text.getBasePrefix:0000000000000000 $t
     /tmp/ccJs7hvj.s:320    .text.getBasePrefix:0000000000000000 getBasePrefix
     /tmp/ccJs7hvj.s:366    .text.getBasePrefix:000000000000001c $d
     /tmp/ccJs7hvj.s:373    .text.invalidateToken:0000000000000000 $t
     /tmp/ccJs7hvj.s:379    .text.invalidateToken:0000000000000000 invalidateToken
     /tmp/ccJs7hvj.s:405    .text.processCommand:0000000000000000 $t
     /tmp/ccJs7hvj.s:411    .text.processCommand:0000000000000000 processCommand
     /tmp/ccJs7hvj.s:556    .text.findCommandHeader:0000000000000000 $t
     /tmp/ccJs7hvj.s:562    .text.findCommandHeader:0000000000000000 findCommandHeader
     /tmp/ccJs7hvj.s:651    .text.resultUInt32BaseSign:0000000000000000 $t
     /tmp/ccJs7hvj.s:657    .text.resultUInt32BaseSign:0000000000000000 resultUInt32BaseSign
     /tmp/ccJs7hvj.s:766    .text.resultUInt64BaseSign:0000000000000000 $t
     /tmp/ccJs7hvj.s:772    .text.resultUInt64BaseSign:0000000000000000 resultUInt64BaseSign
     /tmp/ccJs7hvj.s:885    .text.ParamSignToUInt32:0000000000000000 $t
     /tmp/ccJs7hvj.s:891    .text.ParamSignToUInt32:0000000000000000 ParamSignToUInt32
     /tmp/ccJs7hvj.s:1030   .text.ParamSignToUInt32:0000000000000088 $d
     /tmp/ccJs7hvj.s:1035   .text.ParamSignToUInt64:0000000000000000 $t
     /tmp/ccJs7hvj.s:1041   .text.ParamSignToUInt64:0000000000000000 ParamSignToUInt64
     /tmp/ccJs7hvj.s:1180   .text.ParamSignToUInt64:0000000000000088 $d
     /tmp/ccJs7hvj.s:1185   .text.SCPI_Init:0000000000000000 $t
     /tmp/ccJs7hvj.s:1192   .text.SCPI_Init:0000000000000000 SCPI_Init
     /tmp/ccJs7hvj.s:1296   .text.SCPI_ResultCharacters:0000000000000000 $t
     /tmp/ccJs7hvj.s:1303   .text.SCPI_ResultCharacters:0000000000000000 SCPI_ResultCharacters
     /tmp/ccJs7hvj.s:1361   .text.SCPI_ResultInt32:0000000000000000 $t
     /tmp/ccJs7hvj.s:1368   .text.SCPI_ResultInt32:0000000000000000 SCPI_ResultInt32
     /tmp/ccJs7hvj.s:1394   .text.SCPI_ResultUInt32Base:0000000000000000 $t
     /tmp/ccJs7hvj.s:1401   .text.SCPI_ResultUInt32Base:0000000000000000 SCPI_ResultUInt32Base
     /tmp/ccJs7hvj.s:1426   .text.SCPI_ResultInt64:0000000000000000 $t
     /tmp/ccJs7hvj.s:1433   .text.SCPI_ResultInt64:0000000000000000 SCPI_ResultInt64
     /tmp/ccJs7hvj.s:1464   .text.SCPI_ResultUInt64Base:0000000000000000 $t
     /tmp/ccJs7hvj.s:1471   .text.SCPI_ResultUInt64Base:0000000000000000 SCPI_ResultUInt64Base
     /tmp/ccJs7hvj.s:1509   .text.SCPI_ResultFloat:0000000000000000 $t
     /tmp/ccJs7hvj.s:1516   .text.SCPI_ResultFloat:0000000000000000 SCPI_ResultFloat
     /tmp/ccJs7hvj.s:1588   .text.SCPI_ResultDouble:0000000000000000 $t
     /tmp/ccJs7hvj.s:1595   .text.SCPI_ResultDouble:0000000000000000 SCPI_ResultDouble
     /tmp/ccJs7hvj.s:1669   .rodata.SCPI_ResultText.str1.4:0000000000000000 $d
     /tmp/ccJs7hvj.s:1673   .text.SCPI_ResultText:0000000000000000 $t
     /tmp/ccJs7hvj.s:1680   .text.SCPI_ResultText:0000000000000000 SCPI_ResultText
ARM GAS  /tmp/ccJs7hvj.s 			page 197


     /tmp/ccJs7hvj.s:1837   .text.SCPI_ResultText:0000000000000088 $d
     /tmp/ccJs7hvj.s:1842   .text.SCPI_ResultError:0000000000000000 $t
     /tmp/ccJs7hvj.s:1849   .text.SCPI_ResultError:0000000000000000 SCPI_ResultError
     /tmp/ccJs7hvj.s:2161   .text.SCPI_ResultError:0000000000000140 $d
     /tmp/ccJs7hvj.s:2166   .text.SCPI_ResultArbitraryBlockHeader:0000000000000000 $t
     /tmp/ccJs7hvj.s:2173   .text.SCPI_ResultArbitraryBlockHeader:0000000000000000 SCPI_ResultArbitraryBlockHeader
     /tmp/ccJs7hvj.s:2250   .text.SCPI_ResultArbitraryBlockData:0000000000000000 $t
     /tmp/ccJs7hvj.s:2257   .text.SCPI_ResultArbitraryBlockData:0000000000000000 SCPI_ResultArbitraryBlockData
     /tmp/ccJs7hvj.s:2315   .text.SCPI_ResultArbitraryBlockData:000000000000002c $d
     /tmp/ccJs7hvj.s:2320   .text.SCPI_ResultArbitraryBlock:0000000000000000 $t
     /tmp/ccJs7hvj.s:2327   .text.SCPI_ResultArbitraryBlock:0000000000000000 SCPI_ResultArbitraryBlock
     /tmp/ccJs7hvj.s:2383   .text.produceResultArrayBinary:0000000000000000 $t
     /tmp/ccJs7hvj.s:2389   .text.produceResultArrayBinary:0000000000000000 produceResultArrayBinary
     /tmp/ccJs7hvj.s:2673   .text.produceResultArrayBinary:0000000000000120 $d
     /tmp/ccJs7hvj.s:2679   .text.SCPI_ResultBool:0000000000000000 $t
     /tmp/ccJs7hvj.s:2686   .text.SCPI_ResultBool:0000000000000000 SCPI_ResultBool
     /tmp/ccJs7hvj.s:2712   .text.SCPI_ParamIsNumber:0000000000000000 $t
     /tmp/ccJs7hvj.s:2719   .text.SCPI_ParamIsNumber:0000000000000000 SCPI_ParamIsNumber
     /tmp/ccJs7hvj.s:2780   .text.SCPI_ParamToInt32:0000000000000000 $t
     /tmp/ccJs7hvj.s:2787   .text.SCPI_ParamToInt32:0000000000000000 SCPI_ParamToInt32
     /tmp/ccJs7hvj.s:2812   .text.SCPI_ParamToUInt32:0000000000000000 $t
     /tmp/ccJs7hvj.s:2819   .text.SCPI_ParamToUInt32:0000000000000000 SCPI_ParamToUInt32
     /tmp/ccJs7hvj.s:2844   .text.SCPI_ParamToInt64:0000000000000000 $t
     /tmp/ccJs7hvj.s:2851   .text.SCPI_ParamToInt64:0000000000000000 SCPI_ParamToInt64
     /tmp/ccJs7hvj.s:2876   .text.SCPI_ParamToUInt64:0000000000000000 $t
     /tmp/ccJs7hvj.s:2883   .text.SCPI_ParamToUInt64:0000000000000000 SCPI_ParamToUInt64
     /tmp/ccJs7hvj.s:2909   .text.SCPI_ParamToFloat:0000000000000000 $t
     /tmp/ccJs7hvj.s:2916   .text.SCPI_ParamToFloat:0000000000000000 SCPI_ParamToFloat
     /tmp/ccJs7hvj.s:3023   .text.SCPI_ParamToFloat:0000000000000054 $d
     /tmp/ccJs7hvj.s:3029   .text.SCPI_ParamToDouble:0000000000000000 $t
     /tmp/ccJs7hvj.s:3036   .text.SCPI_ParamToDouble:0000000000000000 SCPI_ParamToDouble
     /tmp/ccJs7hvj.s:3145   .text.SCPI_ParamToDouble:0000000000000058 $d
     /tmp/ccJs7hvj.s:3150   .text.SCPI_ParamToChoice:0000000000000000 $t
     /tmp/ccJs7hvj.s:3157   .text.SCPI_ParamToChoice:0000000000000000 SCPI_ParamToChoice
     /tmp/ccJs7hvj.s:3310   .text.SCPI_ParamToChoice:0000000000000088 $d
     /tmp/ccJs7hvj.s:3315   .text.SCPI_ChoiceToName:0000000000000000 $t
     /tmp/ccJs7hvj.s:3322   .text.SCPI_ChoiceToName:0000000000000000 SCPI_ChoiceToName
     /tmp/ccJs7hvj.s:3389   .text.scpiParser_parseProgramData:0000000000000000 $t
     /tmp/ccJs7hvj.s:3397   .text.scpiParser_parseProgramData:0000000000000000 scpiParser_parseProgramData
     /tmp/ccJs7hvj.s:3601   .text.SCPI_Parameter:0000000000000000 $t
     /tmp/ccJs7hvj.s:3608   .text.SCPI_Parameter:0000000000000000 SCPI_Parameter
     /tmp/ccJs7hvj.s:3782   .text.SCPI_Parameter:00000000000000b0 $d
     /tmp/ccJs7hvj.s:3787   .text.SCPI_ParamFloat:0000000000000000 $t
     /tmp/ccJs7hvj.s:3794   .text.SCPI_ParamFloat:0000000000000000 SCPI_ParamFloat
     /tmp/ccJs7hvj.s:3907   .text.SCPI_ParamFloat:0000000000000060 $d
     /tmp/ccJs7hvj.s:3912   .text.SCPI_ParamDouble:0000000000000000 $t
     /tmp/ccJs7hvj.s:3919   .text.SCPI_ParamDouble:0000000000000000 SCPI_ParamDouble
     /tmp/ccJs7hvj.s:4032   .text.SCPI_ParamDouble:0000000000000060 $d
     /tmp/ccJs7hvj.s:4037   .text.ParamSignUInt32:0000000000000000 $t
     /tmp/ccJs7hvj.s:4043   .text.ParamSignUInt32:0000000000000000 ParamSignUInt32
     /tmp/ccJs7hvj.s:4163   .text.ParamSignUInt32:0000000000000068 $d
     /tmp/ccJs7hvj.s:4168   .text.SCPI_ParamInt32:0000000000000000 $t
     /tmp/ccJs7hvj.s:4175   .text.SCPI_ParamInt32:0000000000000000 SCPI_ParamInt32
     /tmp/ccJs7hvj.s:4200   .text.SCPI_ParamUInt32:0000000000000000 $t
     /tmp/ccJs7hvj.s:4207   .text.SCPI_ParamUInt32:0000000000000000 SCPI_ParamUInt32
     /tmp/ccJs7hvj.s:4232   .text.ParamSignUInt64:0000000000000000 $t
     /tmp/ccJs7hvj.s:4238   .text.ParamSignUInt64:0000000000000000 ParamSignUInt64
ARM GAS  /tmp/ccJs7hvj.s 			page 198


     /tmp/ccJs7hvj.s:4358   .text.ParamSignUInt64:0000000000000068 $d
     /tmp/ccJs7hvj.s:4363   .text.SCPI_ParamInt64:0000000000000000 $t
     /tmp/ccJs7hvj.s:4370   .text.SCPI_ParamInt64:0000000000000000 SCPI_ParamInt64
     /tmp/ccJs7hvj.s:4395   .text.SCPI_ParamUInt64:0000000000000000 $t
     /tmp/ccJs7hvj.s:4402   .text.SCPI_ParamUInt64:0000000000000000 SCPI_ParamUInt64
     /tmp/ccJs7hvj.s:4427   .text.SCPI_ParamCharacters:0000000000000000 $t
     /tmp/ccJs7hvj.s:4434   .text.SCPI_ParamCharacters:0000000000000000 SCPI_ParamCharacters
     /tmp/ccJs7hvj.s:4536   .text.SCPI_ParamCharacters:0000000000000050 $d
     /tmp/ccJs7hvj.s:4541   .text.SCPI_ParamArbitraryBlock:0000000000000000 $t
     /tmp/ccJs7hvj.s:4548   .text.SCPI_ParamArbitraryBlock:0000000000000000 SCPI_ParamArbitraryBlock
     /tmp/ccJs7hvj.s:4649   .text.SCPI_ParamArbitraryBlock:0000000000000050 $d
     /tmp/ccJs7hvj.s:4654   .text.SCPI_ParamCopyText:0000000000000000 $t
     /tmp/ccJs7hvj.s:4661   .text.SCPI_ParamCopyText:0000000000000000 SCPI_ParamCopyText
     /tmp/ccJs7hvj.s:4855   .text.SCPI_ParamCopyText:0000000000000094 $d
     /tmp/ccJs7hvj.s:4860   .text.SCPI_ParamBool:0000000000000000 $t
     /tmp/ccJs7hvj.s:4867   .text.SCPI_ParamBool:0000000000000000 SCPI_ParamBool
     /tmp/ccJs7hvj.s:4977   .text.SCPI_ParamBool:0000000000000058 $d
     /tmp/ccJs7hvj.s:4983   .text.SCPI_ParamChoice:0000000000000000 $t
     /tmp/ccJs7hvj.s:4990   .text.SCPI_ParamChoice:0000000000000000 SCPI_ParamChoice
     /tmp/ccJs7hvj.s:5075   .text.SCPI_ParamChoice:000000000000003c $d
     /tmp/ccJs7hvj.s:5080   .text.scpiParser_parseAllProgramData:0000000000000000 $t
     /tmp/ccJs7hvj.s:5088   .text.scpiParser_parseAllProgramData:0000000000000000 scpiParser_parseAllProgramData
     /tmp/ccJs7hvj.s:5244   .text.scpiParser_detectProgramMessageUnit:0000000000000000 $t
     /tmp/ccJs7hvj.s:5252   .text.scpiParser_detectProgramMessageUnit:0000000000000000 scpiParser_detectProgramMessageUnit
     /tmp/ccJs7hvj.s:5452   .text.SCPI_Parse:0000000000000000 $t
     /tmp/ccJs7hvj.s:5459   .text.SCPI_Parse:0000000000000000 SCPI_Parse
     /tmp/ccJs7hvj.s:5714   .text.SCPI_Input:0000000000000000 $t
     /tmp/ccJs7hvj.s:5721   .text.SCPI_Input:0000000000000000 SCPI_Input
     /tmp/ccJs7hvj.s:5936   .text.SCPI_Input:00000000000000b4 $d
     /tmp/ccJs7hvj.s:5942   .text.SCPI_IsCmd:0000000000000000 $t
     /tmp/ccJs7hvj.s:5949   .text.SCPI_IsCmd:0000000000000000 SCPI_IsCmd
     /tmp/ccJs7hvj.s:6012   .text.SCPI_CmdTag:0000000000000000 $t
     /tmp/ccJs7hvj.s:6019   .text.SCPI_CmdTag:0000000000000000 SCPI_CmdTag
     /tmp/ccJs7hvj.s:6052   .text.SCPI_Match:0000000000000000 $t
     /tmp/ccJs7hvj.s:6059   .text.SCPI_Match:0000000000000000 SCPI_Match
     /tmp/ccJs7hvj.s:6089   .text.SCPI_CommandNumbers:0000000000000000 $t
     /tmp/ccJs7hvj.s:6096   .text.SCPI_CommandNumbers:0000000000000000 SCPI_CommandNumbers
     /tmp/ccJs7hvj.s:6147   .text.SCPI_ParamIsValid:0000000000000000 $t
     /tmp/ccJs7hvj.s:6154   .text.SCPI_ParamIsValid:0000000000000000 SCPI_ParamIsValid
     /tmp/ccJs7hvj.s:6178   .text.SCPI_ParamErrorOccurred:0000000000000000 $t
     /tmp/ccJs7hvj.s:6185   .text.SCPI_ParamErrorOccurred:0000000000000000 SCPI_ParamErrorOccurred
     /tmp/ccJs7hvj.s:6205   .text.SCPI_ResultArrayInt8:0000000000000000 $t
     /tmp/ccJs7hvj.s:6212   .text.SCPI_ResultArrayInt8:0000000000000000 SCPI_ResultArrayInt8
     /tmp/ccJs7hvj.s:6309   .text.SCPI_ResultArrayUInt8:0000000000000000 $t
     /tmp/ccJs7hvj.s:6316   .text.SCPI_ResultArrayUInt8:0000000000000000 SCPI_ResultArrayUInt8
     /tmp/ccJs7hvj.s:6414   .text.SCPI_ResultArrayInt16:0000000000000000 $t
     /tmp/ccJs7hvj.s:6421   .text.SCPI_ResultArrayInt16:0000000000000000 SCPI_ResultArrayInt16
     /tmp/ccJs7hvj.s:6519   .text.SCPI_ResultArrayUInt16:0000000000000000 $t
     /tmp/ccJs7hvj.s:6526   .text.SCPI_ResultArrayUInt16:0000000000000000 SCPI_ResultArrayUInt16
     /tmp/ccJs7hvj.s:6625   .text.SCPI_ResultArrayInt32:0000000000000000 $t
     /tmp/ccJs7hvj.s:6632   .text.SCPI_ResultArrayInt32:0000000000000000 SCPI_ResultArrayInt32
     /tmp/ccJs7hvj.s:6730   .text.SCPI_ResultArrayUInt32:0000000000000000 $t
     /tmp/ccJs7hvj.s:6737   .text.SCPI_ResultArrayUInt32:0000000000000000 SCPI_ResultArrayUInt32
     /tmp/ccJs7hvj.s:6836   .text.SCPI_ResultArrayInt64:0000000000000000 $t
     /tmp/ccJs7hvj.s:6843   .text.SCPI_ResultArrayInt64:0000000000000000 SCPI_ResultArrayInt64
     /tmp/ccJs7hvj.s:6942   .text.SCPI_ResultArrayUInt64:0000000000000000 $t
     /tmp/ccJs7hvj.s:6949   .text.SCPI_ResultArrayUInt64:0000000000000000 SCPI_ResultArrayUInt64
ARM GAS  /tmp/ccJs7hvj.s 			page 199


     /tmp/ccJs7hvj.s:7050   .text.SCPI_ResultArrayFloat:0000000000000000 $t
     /tmp/ccJs7hvj.s:7057   .text.SCPI_ResultArrayFloat:0000000000000000 SCPI_ResultArrayFloat
     /tmp/ccJs7hvj.s:7155   .text.SCPI_ResultArrayDouble:0000000000000000 $t
     /tmp/ccJs7hvj.s:7162   .text.SCPI_ResultArrayDouble:0000000000000000 SCPI_ResultArrayDouble
     /tmp/ccJs7hvj.s:7261   .text.SCPI_ParamArrayInt32:0000000000000000 $t
     /tmp/ccJs7hvj.s:7268   .text.SCPI_ParamArrayInt32:0000000000000000 SCPI_ParamArrayInt32
     /tmp/ccJs7hvj.s:7362   .text.SCPI_ParamArrayUInt32:0000000000000000 $t
     /tmp/ccJs7hvj.s:7369   .text.SCPI_ParamArrayUInt32:0000000000000000 SCPI_ParamArrayUInt32
     /tmp/ccJs7hvj.s:7463   .text.SCPI_ParamArrayInt64:0000000000000000 $t
     /tmp/ccJs7hvj.s:7470   .text.SCPI_ParamArrayInt64:0000000000000000 SCPI_ParamArrayInt64
     /tmp/ccJs7hvj.s:7564   .text.SCPI_ParamArrayUInt64:0000000000000000 $t
     /tmp/ccJs7hvj.s:7571   .text.SCPI_ParamArrayUInt64:0000000000000000 SCPI_ParamArrayUInt64
     /tmp/ccJs7hvj.s:7665   .text.SCPI_ParamArrayFloat:0000000000000000 $t
     /tmp/ccJs7hvj.s:7672   .text.SCPI_ParamArrayFloat:0000000000000000 SCPI_ParamArrayFloat
     /tmp/ccJs7hvj.s:7766   .text.SCPI_ParamArrayDouble:0000000000000000 $t
     /tmp/ccJs7hvj.s:7773   .text.SCPI_ParamArrayDouble:0000000000000000 SCPI_ParamArrayDouble
     /tmp/ccJs7hvj.s:7879   .rodata.scpi_bool_def:0000000000000000 scpi_bool_def
     /tmp/ccJs7hvj.s:7868   .rodata.str1.4:0000000000000000 $d
     /tmp/ccJs7hvj.s:7875   .rodata.scpi_bool_def:0000000000000000 $d

UNDEFINED SYMBOLS
SCPI_ErrorPush
matchCommand
UInt32ToStrBaseSign
UInt64ToStrBaseSign
strBaseToUInt32
strBaseToInt32
strBaseToUInt64
strBaseToInt64
memset
SCPI_ErrorInit
SCPI_FloatToStr
SCPI_DoubleToStr
strlen
strnpbrk
SCPI_ErrorTranslate
SCPI_UInt32ToStrBase
SCPI_GetNativeFormat
SCPI_Swap16
SCPI_Swap64
SCPI_Swap32
__aeabi_ui2f
strToFloat
__aeabi_ul2d
strToDouble
matchPattern
scpiLex_WhiteSpace
scpiLex_NondecimalNumericData
scpiLex_CharacterProgramData
scpiLex_DecimalNumericProgramData
scpiLex_SuffixProgramData
scpiLex_StringProgramData
scpiLex_ArbitraryBlockProgramData
scpiLex_ProgramExpression
scpiLex_Comma
scpiLex_ProgramHeader
scpiLex_NewLine
ARM GAS  /tmp/ccJs7hvj.s 			page 200


scpiLex_IsEos
scpiLex_Semicolon
composeCompoundCommand
SCPI_ErrorPushEx
memcpy
memmove
